
test_s:     file format elf32-littlearm


Disassembly of section .text:

20000000 <__vectors0>:
20000000:	20008168 	.word	0x20008168
20000004:	20000061 	.word	0x20000061
20000008:	2000008e 	.word	0x2000008eg
2000000c:	2000008e 	.word	0x2000008e
20000010:	2000008e 	.word	0x2000008e

20000014 <local_id>:
20000014:	facefeed 	.word	0xfacefeed

20000018 <_ada_test_s>:
20000018:	b480      	push	{r7}
2000001a:	af00      	add	r7, sp, #0
2000001c:	4b03      	ldr	r3, [pc, #12]	; (2000002c <_ada_test_s+0x14>)
2000001e:	f503 5300 	add.w	r3, r3, #8192	; 0x2000
20000022:	3304      	adds	r3, #4
20000024:	2210      	movs	r2, #16
20000026:	601a      	str	r2, [r3, #0]
20000028:	bf00      	nop
2000002a:	e7fd      	b.n	20000028 <_ada_test_s+0x10>
2000002c:	4008c000 	.word	0x4008c000

20000030 <adainit>:
20000030:	b480      	push	{r7}
20000032:	af00      	add	r7, sp, #0
20000034:	bf00      	nop
20000036:	46bd      	mov	sp, r7
20000038:	f85d 7b04 	ldr.w	r7, [sp], #4
2000003c:	4770      	bx	lr
2000003e:	bf00      	nop

20000040 <main>:
20000040:	b580      	push	{r7, lr}
20000042:	b082      	sub	sp, #8
20000044:	af00      	add	r7, sp, #0
20000046:	4b04      	ldr	r3, [pc, #16]	; (20000058 <main+0x18>)
20000048:	607b      	str	r3, [r7, #4]
2000004a:	f7ff fff1 	bl	20000030 <adainit>
2000004e:	f7ff ffe3 	bl	20000018 <_ada_test_s>
20000052:	3708      	adds	r7, #8
20000054:	46bd      	mov	sp, r7
20000056:	bd80      	pop	{r7, pc}
20000058:	20000158 	.word	0x20000158
2000005c:	00000000 	.word	0x00000000

20000060 <_start_ram>:
20000060:	f8df d02c 	ldr.w	sp, [pc, #44]	; 20000090 <hang+0x2>
20000064:	f000 f820 	bl	200000a8 <_nxp_start_common>
20000068:	f240 1068 	movw	r0, #360	; 0x168
2000006c:	f2c2 0000 	movt	r0, #8192	; 0x2000
20000070:	f240 0100 	movw	r1, #0
20000074:	f04f 0200 	mov.w	r2, #0
20000078:	b119      	cbz	r1, 20000082 <_start_ram+0x22>
2000007a:	f840 2b04 	str.w	r2, [r0], #4
2000007e:	3901      	subs	r1, #1
20000080:	d1fb      	bne.n	2000007a <_start_ram+0x1a>
20000082:	f000 f80f 	bl	200000a4 <_ada_setup_pll>
20000086:	f7ff ffdb 	bl	20000040 <main>
2000008a:	f000 f803 	bl	20000094 <_exit>

2000008e <hang>:
2000008e:	e7fe      	b.n	2000008e <hang>
20000090:	20008168 	.word	0x20008168

20000094 <_exit>:
20000094:	4b01      	ldr	r3, [pc, #4]	; (2000009c <_exit+0x8>)
20000096:	4a02      	ldr	r2, [pc, #8]	; (200000a0 <_exit+0xc>)
20000098:	601a      	str	r2, [r3, #0]
2000009a:	e7fe      	b.n	2000009a <_exit+0x6>
2000009c:	e000ed0c 	.word	0xe000ed0c
200000a0:	05fa0004 	.word	0x05fa0004

200000a4 <_ada_setup_pll>:
200000a4:	4770      	bx	lr
200000a6:	bf00      	nop

200000a8 <_nxp_start_common>:
200000a8:	f64e 5088 	movw	r0, #60808	; 0xed88
200000ac:	f2ce 0000 	movt	r0, #57344	; 0xe000
200000b0:	6801      	ldr	r1, [r0, #0]
200000b2:	f441 0170 	orr.w	r1, r1, #15728640	; 0xf00000
200000b6:	6001      	str	r1, [r0, #0]
200000b8:	f3bf 8f4f 	dsb	sy
200000bc:	f3bf 8f6f 	isb	sy
200000c0:	4770      	bx	lr

200000c2 <is_secure>:
200000c2:	e840 f000 	tt	r0, r0
200000c6:	0240      	lsls	r0, r0, #9
200000c8:	2800      	cmp	r0, #0
200000ca:	db02      	blt.n	200000d2 <secure_return>
200000cc:	f04f 0040 	mov.w	r0, #64	; 0x40
200000d0:	4770      	bx	lr

200000d2 <secure_return>:
200000d2:	f04f 0000 	mov.w	r0, #0
200000d6:	4770      	bx	lr

200000d8 <secure_code>:
200000d8:	00000001 	.word	0x00000001

200000dc <__acle_se_s_from_ns_veneer>:
200000dc:	b480      	push	{r7}
200000de:	b083      	sub	sp, #12
200000e0:	af00      	add	r7, sp, #0
200000e2:	6078      	str	r0, [r7, #4]
200000e4:	2300      	movs	r3, #0
200000e6:	bf00      	nop
200000e8:	4618      	mov	r0, r3
200000ea:	370c      	adds	r7, #12
200000ec:	46bd      	mov	sp, r7
200000ee:	f85d 7b04 	ldr.w	r7, [sp], #4
200000f2:	4671      	mov	r1, lr
200000f4:	4672      	mov	r2, lr
200000f6:	4673      	mov	r3, lr
200000f8:	eeb7 0a00 	vmov.f32	s0, #112	; 0x3f800000  1.0
200000fc:	eef7 0a00 	vmov.f32	s1, #112	; 0x3f800000  1.0
20000100:	eeb7 1a00 	vmov.f32	s2, #112	; 0x3f800000  1.0
20000104:	eef7 1a00 	vmov.f32	s3, #112	; 0x3f800000  1.0
20000108:	eeb7 2a00 	vmov.f32	s4, #112	; 0x3f800000  1.0
2000010c:	eef7 2a00 	vmov.f32	s5, #112	; 0x3f800000  1.0
20000110:	eeb7 3a00 	vmov.f32	s6, #112	; 0x3f800000  1.0
20000114:	eef7 3a00 	vmov.f32	s7, #112	; 0x3f800000  1.0
20000118:	eeb7 4a00 	vmov.f32	s8, #112	; 0x3f800000  1.0
2000011c:	eef7 4a00 	vmov.f32	s9, #112	; 0x3f800000  1.0
20000120:	eeb7 5a00 	vmov.f32	s10, #112	; 0x3f800000  1.0
20000124:	eef7 5a00 	vmov.f32	s11, #112	; 0x3f800000  1.0
20000128:	eeb7 6a00 	vmov.f32	s12, #112	; 0x3f800000  1.0
2000012c:	eef7 6a00 	vmov.f32	s13, #112	; 0x3f800000  1.0
20000130:	eeb7 7a00 	vmov.f32	s14, #112	; 0x3f800000  1.0
20000134:	eef7 7a00 	vmov.f32	s15, #112	; 0x3f800000  1.0
20000138:	f38e 8c00 	msr	CPSR_fs, lr
2000013c:	b410      	push	{r4}
2000013e:	eef1 ca10 	vmrs	ip, fpscr
20000142:	f64f 7460 	movw	r4, #65376	; 0xff60
20000146:	f6c0 74ff 	movt	r4, #4095	; 0xfff
2000014a:	ea0c 0c04 	and.w	ip, ip, r4
2000014e:	eee1 ca10 	vmsr	fpscr, ip
20000152:	bc10      	pop	{r4}
20000154:	46f4      	mov	ip, lr
20000156:	4774      	bxns	lr

Disassembly of section .gnu.sgstubs:

2001f000 <s_from_ns_veneer>:
2001f000:	e97f e97f 	sg
2001f004:	f7e1 b86a 	b.w	200000dc <__acle_se_s_from_ns_veneer>
	...
