Archive member included to satisfy reference by file (symbol)

/home/hedley/ada/NXP/LPC/LPC55S69/test3/Ada_Drivers_Library/boards/lib/lpc55s69_evk_s/ravenscar-sfp/Debug/liblpc55s69_evk_s.a(nxp-board.o)
                              test_s.o (nxp__board__initialize_board)
/home/hedley/ada/NXP/LPC/LPC55S69/test3/Ada_Drivers_Library/arch/ARM/NXP/lib/lpc55s69_evk_s/ravenscar-sfp/Debug/liblpc55s69.a(nxp-device.o)
                              test_s.o (nxp__device__enable_clock__3)
/home/hedley/ada/NXP/LPC/LPC55S69/test3/Ada_Drivers_Library/arch/ARM/NXP/lib/lpc55s69_evk_s/ravenscar-sfp/Debug/liblpc55s69.a(nxp-gpio.o)
                              /home/hedley/ada/NXP/LPC/LPC55S69/test3/Ada_Drivers_Library/arch/ARM/NXP/lib/lpc55s69_evk_s/ravenscar-sfp/Debug/liblpc55s69.a(nxp-device.o) (nxp__gpio__gpio_pointT)
/home/hedley/ada/NXP/LPC/LPC55S69/test3/Ada_Drivers_Library/arch/ARM/NXP/lib/lpc55s69_evk_s/ravenscar-sfp/Debug/liblpc55s69.a(nxp-inputmux.o)
                              test_s.o (nxp__inputmux__enable_inputmux)
/home/hedley/ada/NXP/LPC/LPC55S69/test3/Ada_Drivers_Library/arch/ARM/NXP/lib/lpc55s69_evk_s/ravenscar-sfp/Debug/liblpc55s69.a(nxp-pint.o)
                              test_s.o (nxp__pint__enable_pint)
/home/hedley/ada/Ada_Drivers_Library/hal/lib/lpc55s69_evk_s/ravenscar-sfp/Debug/libHAL.a(hal-gpio.o)
                              /home/hedley/ada/NXP/LPC/LPC55S69/test3/Ada_Drivers_Library/arch/ARM/NXP/lib/lpc55s69_evk_s/ravenscar-sfp/Debug/liblpc55s69.a(nxp-gpio.o) (hal__gpio__gpio_pointT)
/home/hedley/ada/NXP/LPC/LPC55S69/test3/Ada_Drivers_Library/embedded-runtimes/ravenscar-lpc55s69_evk_s/sfp/adalib/libgnarl.a(a-reatim.o)
                              test_s.o (ada__real_time__Oadd)
/home/hedley/ada/NXP/LPC/LPC55S69/test3/Ada_Drivers_Library/embedded-runtimes/ravenscar-lpc55s69_evk_s/sfp/adalib/libgnarl.a(a-retide.o)
                              test_s.o (ada__real_time__delays__delay_until)
/home/hedley/ada/NXP/LPC/LPC55S69/test3/Ada_Drivers_Library/embedded-runtimes/ravenscar-lpc55s69_evk_s/sfp/adalib/libgnarl.a(a-sytaco.o)
                              /home/hedley/ada/NXP/LPC/LPC55S69/test3/test_s/obj/Debug/button.o (ada__synchronous_task_control__suspension_objectVIP)
/home/hedley/ada/NXP/LPC/LPC55S69/test3/Ada_Drivers_Library/embedded-runtimes/ravenscar-lpc55s69_evk_s/sfp/adalib/libgnarl.a(s-bbbosu.o)
                              /home/hedley/ada/NXP/LPC/LPC55S69/test3/Ada_Drivers_Library/embedded-runtimes/ravenscar-lpc55s69_evk_s/sfp/adalib/libgnarl.a(a-reatim.o) (system__bb__board_support__time__read_clock)
/home/hedley/ada/NXP/LPC/LPC55S69/test3/Ada_Drivers_Library/embedded-runtimes/ravenscar-lpc55s69_evk_s/sfp/adalib/libgnarl.a(s-bbcppr.o)
                              /home/hedley/ada/NXP/LPC/LPC55S69/test3/Ada_Drivers_Library/embedded-runtimes/ravenscar-lpc55s69_evk_s/sfp/adalib/libgnarl.a(s-bbbosu.o) (system__bb__cpu_primitives__install_trap_handler)
/home/hedley/ada/NXP/LPC/LPC55S69/test3/Ada_Drivers_Library/embedded-runtimes/ravenscar-lpc55s69_evk_s/sfp/adalib/libgnarl.a(s-bbinte.o)
                              /home/hedley/ada/NXP/LPC/LPC55S69/test3/Ada_Drivers_Library/embedded-runtimes/ravenscar-lpc55s69_evk_s/sfp/adalib/libgnarl.a(s-bbbosu.o) (system__bb__interrupts__interrupt_wrapper)
/home/hedley/ada/NXP/LPC/LPC55S69/test3/Ada_Drivers_Library/embedded-runtimes/ravenscar-lpc55s69_evk_s/sfp/adalib/libgnarl.a(s-bbthqu.o)
                              /home/hedley/ada/NXP/LPC/LPC55S69/test3/Ada_Drivers_Library/embedded-runtimes/ravenscar-lpc55s69_evk_s/sfp/adalib/libgnarl.a(s-bbinte.o) (system__bb__threads__queues__change_priority)
/home/hedley/ada/NXP/LPC/LPC55S69/test3/Ada_Drivers_Library/embedded-runtimes/ravenscar-lpc55s69_evk_s/sfp/adalib/libgnarl.a(s-bbtime.o)
                              /home/hedley/ada/NXP/LPC/LPC55S69/test3/Ada_Drivers_Library/embedded-runtimes/ravenscar-lpc55s69_evk_s/sfp/adalib/libgnarl.a(a-retide.o) (system__bb__time__delay_until)
/home/hedley/ada/NXP/LPC/LPC55S69/test3/Ada_Drivers_Library/embedded-runtimes/ravenscar-lpc55s69_evk_s/sfp/adalib/libgnarl.a(s-bcpcst.o)
                              /home/hedley/ada/NXP/LPC/LPC55S69/test3/Ada_Drivers_Library/embedded-runtimes/ravenscar-lpc55s69_evk_s/sfp/adalib/libgnarl.a(s-bbcppr.o) (system__bb__cpu_primitives__context_switch_trigger__initialize_context_switch)
/home/hedley/ada/NXP/LPC/LPC55S69/test3/Ada_Drivers_Library/embedded-runtimes/ravenscar-lpc55s69_evk_s/sfp/adalib/libgnarl.a(s-interr.o)
                              /home/hedley/ada/NXP/LPC/LPC55S69/test3/test_s/obj/Debug/button.o (system__interrupts__install_restricted_handlers)
/home/hedley/ada/NXP/LPC/LPC55S69/test3/Ada_Drivers_Library/embedded-runtimes/ravenscar-lpc55s69_evk_s/sfp/adalib/libgnarl.a(s-taprob.o)
                              /home/hedley/ada/NXP/LPC/LPC55S69/test3/test_s/obj/Debug/button.o (system__tasking__protected_objects__initialize_protection)
/home/hedley/ada/NXP/LPC/LPC55S69/test3/Ada_Drivers_Library/embedded-runtimes/ravenscar-lpc55s69_evk_s/sfp/adalib/libgnarl.a(s-tarest.o)
                              b__test_s.o (__gnat_activate_all_tasks)
/home/hedley/ada/NXP/LPC/LPC55S69/test3/Ada_Drivers_Library/embedded-runtimes/ravenscar-lpc55s69_evk_s/sfp/adalib/libgnarl.a(s-tasdeb.o)
                              /home/hedley/ada/NXP/LPC/LPC55S69/test3/Ada_Drivers_Library/embedded-runtimes/ravenscar-lpc55s69_evk_s/sfp/adalib/libgnarl.a(s-tarest.o) (system__tasking__debug__last_task)
/home/hedley/ada/NXP/LPC/LPC55S69/test3/Ada_Drivers_Library/embedded-runtimes/ravenscar-lpc55s69_evk_s/sfp/adalib/libgnarl.a(s-taskin.o)
                              /home/hedley/ada/NXP/LPC/LPC55S69/test3/Ada_Drivers_Library/embedded-runtimes/ravenscar-lpc55s69_evk_s/sfp/adalib/libgnarl.a(s-tarest.o) (system__tasking__initialize_atcb)
/home/hedley/ada/NXP/LPC/LPC55S69/test3/Ada_Drivers_Library/embedded-runtimes/ravenscar-lpc55s69_evk_s/sfp/adalib/libgnarl.a(s-tpobmu.o)
                              b__test_s.o (system__tasking__protected_objects__multiprocessors___elabb)
/home/hedley/ada/NXP/LPC/LPC55S69/test3/Ada_Drivers_Library/embedded-runtimes/ravenscar-lpc55s69_evk_s/sfp/adalib/libgnarl.a(s-tposen.o)
                              /home/hedley/ada/NXP/LPC/LPC55S69/test3/Ada_Drivers_Library/embedded-runtimes/ravenscar-lpc55s69_evk_s/sfp/adalib/libgnarl.a(a-sytaco.o) (system__tasking__protected_objects__single_entry__initialize_protection_entry)
/home/hedley/ada/NXP/LPC/LPC55S69/test3/Ada_Drivers_Library/embedded-runtimes/ravenscar-lpc55s69_evk_s/sfp/adalib/libgnarl.a(s-bbprot.o)
                              /home/hedley/ada/NXP/LPC/LPC55S69/test3/Ada_Drivers_Library/embedded-runtimes/ravenscar-lpc55s69_evk_s/sfp/adalib/libgnarl.a(s-bbtime.o) (system__bb__protection__leave_kernel)
/home/hedley/ada/NXP/LPC/LPC55S69/test3/Ada_Drivers_Library/embedded-runtimes/ravenscar-lpc55s69_evk_s/sfp/adalib/libgnarl.a(s-bbthre.o)
                              /home/hedley/ada/NXP/LPC/LPC55S69/test3/Ada_Drivers_Library/embedded-runtimes/ravenscar-lpc55s69_evk_s/sfp/adalib/libgnarl.a(s-taskin.o) (system__bb__threads__initialize)
/home/hedley/ada/NXP/LPC/LPC55S69/test3/Ada_Drivers_Library/embedded-runtimes/ravenscar-lpc55s69_evk_s/sfp/adalib/libgnarl.a(s-bbtiev.o)
                              /home/hedley/ada/NXP/LPC/LPC55S69/test3/Ada_Drivers_Library/embedded-runtimes/ravenscar-lpc55s69_evk_s/sfp/adalib/libgnarl.a(s-bbtime.o) (system__bb__timing_events__execute_expired_timing_events)
/home/hedley/ada/NXP/LPC/LPC55S69/test3/Ada_Drivers_Library/embedded-runtimes/ravenscar-lpc55s69_evk_s/sfp/adalib/libgnarl.a(s-taprop.o)
                              /home/hedley/ada/NXP/LPC/LPC55S69/test3/Ada_Drivers_Library/embedded-runtimes/ravenscar-lpc55s69_evk_s/sfp/adalib/libgnarl.a(s-tpobmu.o) (system__task_primitives__operations__get_cpu)
/home/hedley/ada/NXP/LPC/LPC55S69/test3/Ada_Drivers_Library/embedded-runtimes/ravenscar-lpc55s69_evk_s/sfp/adalib/libgnat.a(a-elchha.o)
                              test_s.o (__gnat_last_chance_handler)
/home/hedley/ada/NXP/LPC/LPC55S69/test3/Ada_Drivers_Library/embedded-runtimes/ravenscar-lpc55s69_evk_s/sfp/adalib/libgnat.a(g-io.o)
                              /home/hedley/ada/NXP/LPC/LPC55S69/test3/Ada_Drivers_Library/embedded-runtimes/ravenscar-lpc55s69_evk_s/sfp/adalib/libgnat.a(a-elchha.o) (gnat__io__put__2)
/home/hedley/ada/NXP/LPC/LPC55S69/test3/Ada_Drivers_Library/embedded-runtimes/ravenscar-lpc55s69_evk_s/sfp/adalib/libgnat.a(handler.o)
                              /home/hedley/ada/NXP/LPC/LPC55S69/test3/Ada_Drivers_Library/embedded-runtimes/ravenscar-lpc55s69_evk_s/sfp/adalib/libgnarl.a(s-bbcppr.o) (__vectors)
/home/hedley/ada/NXP/LPC/LPC55S69/test3/Ada_Drivers_Library/embedded-runtimes/ravenscar-lpc55s69_evk_s/sfp/adalib/libgnat.a(s-assert.o)
                              /home/hedley/ada/NXP/LPC/LPC55S69/test3/Ada_Drivers_Library/arch/ARM/NXP/lib/lpc55s69_evk_s/ravenscar-sfp/Debug/liblpc55s69.a(nxp-gpio.o) (system__assertions__raise_assert_failure)
/home/hedley/ada/NXP/LPC/LPC55S69/test3/Ada_Drivers_Library/embedded-runtimes/ravenscar-lpc55s69_evk_s/sfp/adalib/libgnat.a(s-macres.o)
                              /home/hedley/ada/NXP/LPC/LPC55S69/test3/Ada_Drivers_Library/embedded-runtimes/ravenscar-lpc55s69_evk_s/sfp/adalib/libgnat.a(a-elchha.o) (system__machine_reset__stop)
/home/hedley/ada/NXP/LPC/LPC55S69/test3/Ada_Drivers_Library/embedded-runtimes/ravenscar-lpc55s69_evk_s/sfp/adalib/libgnat.a(s-memcop.o)
                              /home/hedley/ada/NXP/LPC/LPC55S69/test3/Ada_Drivers_Library/embedded-runtimes/ravenscar-lpc55s69_evk_s/sfp/adalib/libgnarl.a(s-bbcppr.o) (memcpy)
/home/hedley/ada/NXP/LPC/LPC55S69/test3/Ada_Drivers_Library/embedded-runtimes/ravenscar-lpc55s69_evk_s/sfp/adalib/libgnat.a(s-memset.o)
                              /home/hedley/ada/NXP/LPC/LPC55S69/test3/Ada_Drivers_Library/embedded-runtimes/ravenscar-lpc55s69_evk_s/sfp/adalib/libgnarl.a(s-bbcppr.o) (memset)
/home/hedley/ada/NXP/LPC/LPC55S69/test3/Ada_Drivers_Library/embedded-runtimes/ravenscar-lpc55s69_evk_s/sfp/adalib/libgnat.a(s-parame.o)
                              /home/hedley/ada/NXP/LPC/LPC55S69/test3/Ada_Drivers_Library/embedded-runtimes/ravenscar-lpc55s69_evk_s/sfp/adalib/libgnarl.a(s-taskin.o) (system__parameters__adjust_storage_size)
/home/hedley/ada/NXP/LPC/LPC55S69/test3/Ada_Drivers_Library/embedded-runtimes/ravenscar-lpc55s69_evk_s/sfp/adalib/libgnat.a(s-secsta.o)
                              b__test_s.o (system__secondary_stack__ss_stackIP)
/home/hedley/ada/NXP/LPC/LPC55S69/test3/Ada_Drivers_Library/embedded-runtimes/ravenscar-lpc55s69_evk_s/sfp/adalib/libgnat.a(s-textio.o)
                              /home/hedley/ada/NXP/LPC/LPC55S69/test3/Ada_Drivers_Library/embedded-runtimes/ravenscar-lpc55s69_evk_s/sfp/adalib/libgnat.a(g-io.o) (system__text_io__initialize)
/home/hedley/ada/NXP/LPC/LPC55S69/test3/Ada_Drivers_Library/embedded-runtimes/ravenscar-lpc55s69_evk_s/sfp/adalib/libgnat.a(start-common.o)
                              /home/hedley/ada/NXP/LPC/LPC55S69/test3/Ada_Drivers_Library/arch/ARM/NXP/lib/lpc55s69_evk_s/ravenscar-sfp/Debug/liblpc55s69.a(nxp-device.o) (secure_code)
/home/hedley/ada/NXP/LPC/LPC55S69/test3/Ada_Drivers_Library/embedded-runtimes/ravenscar-lpc55s69_evk_s/sfp/adalib/libgnat.a(start-ram.o)
                              (_start_ram)
/home/hedley/ada/NXP/LPC/LPC55S69/test3/Ada_Drivers_Library/embedded-runtimes/ravenscar-lpc55s69_evk_s/sfp/adalib/libgnat.a(a-except.o)
                              /home/hedley/ada/NXP/LPC/LPC55S69/test3/Ada_Drivers_Library/embedded-runtimes/ravenscar-lpc55s69_evk_s/sfp/adalib/libgnat.a(s-assert.o) (ada__exceptions__empty_c_string___UNC)
/home/hedley/ada/NXP/LPC/LPC55S69/test3/Ada_Drivers_Library/embedded-runtimes/ravenscar-lpc55s69_evk_s/sfp/adalib/libgnat.a(setup_pll.o)
                              /home/hedley/ada/NXP/LPC/LPC55S69/test3/Ada_Drivers_Library/embedded-runtimes/ravenscar-lpc55s69_evk_s/sfp/adalib/libgnat.a(start-ram.o) (_ada_setup_pll)
/opt/GNAT/2019-arm-elf/bin/../lib/gcc/arm-eabi/7.4.1/thumb/v7e-m/fpv4-sp/hard/libgcc.a(_aeabi_ldivmod.o)
                              /home/hedley/ada/NXP/LPC/LPC55S69/test3/Ada_Drivers_Library/embedded-runtimes/ravenscar-lpc55s69_evk_s/sfp/adalib/libgnarl.a(a-reatim.o) (__aeabi_ldivmod)
/opt/GNAT/2019-arm-elf/bin/../lib/gcc/arm-eabi/7.4.1/thumb/v7e-m/fpv4-sp/hard/libgcc.a(_aeabi_uldivmod.o)
                              /home/hedley/ada/NXP/LPC/LPC55S69/test3/Ada_Drivers_Library/embedded-runtimes/ravenscar-lpc55s69_evk_s/sfp/adalib/libgnarl.a(a-reatim.o) (__aeabi_uldivmod)
/opt/GNAT/2019-arm-elf/bin/../lib/gcc/arm-eabi/7.4.1/thumb/v7e-m/fpv4-sp/hard/libgcc.a(_udivmoddi4.o)
                              /opt/GNAT/2019-arm-elf/bin/../lib/gcc/arm-eabi/7.4.1/thumb/v7e-m/fpv4-sp/hard/libgcc.a(_aeabi_ldivmod.o) (__udivmoddi4)
/opt/GNAT/2019-arm-elf/bin/../lib/gcc/arm-eabi/7.4.1/thumb/v7e-m/fpv4-sp/hard/libgcc.a(_dvmd_tls.o)
                              /opt/GNAT/2019-arm-elf/bin/../lib/gcc/arm-eabi/7.4.1/thumb/v7e-m/fpv4-sp/hard/libgcc.a(_aeabi_ldivmod.o) (__aeabi_ldiv0)

Discarded input sections

 .text          0x0000000000000000        0x0 test_s.o
 .data          0x0000000000000000        0x0 test_s.o
 .bss           0x0000000000000000        0x0 test_s.o
 .text          0x0000000000000000        0x0 b__test_s.o
 .data          0x0000000000000000        0x0 b__test_s.o
 .bss           0x0000000000000000        0x0 b__test_s.o
 .data.ada_main_E
                0x0000000000000000        0x2 b__test_s.o
 .rodata.__gnat_version
                0x0000000000000000       0x2b b__test_s.o
 .text          0x0000000000000000        0x0 /home/hedley/ada/NXP/LPC/LPC55S69/test3/test_s/obj/Debug/button.o
 .data          0x0000000000000000        0x0 /home/hedley/ada/NXP/LPC/LPC55S69/test3/test_s/obj/Debug/button.o
 .bss           0x0000000000000000        0x0 /home/hedley/ada/NXP/LPC/LPC55S69/test3/test_s/obj/Debug/button.o
 .text.button__finalize_spec
                0x0000000000000000       0x18 /home/hedley/ada/NXP/LPC/LPC55S69/test3/test_s/obj/Debug/button.o
 .text          0x0000000000000000        0x0 /home/hedley/ada/NXP/LPC/LPC55S69/test3/Ada_Drivers_Library/boards/lib/lpc55s69_evk_s/ravenscar-sfp/Debug/liblpc55s69_evk_s.a(nxp-board.o)
 .data          0x0000000000000000        0x0 /home/hedley/ada/NXP/LPC/LPC55S69/test3/Ada_Drivers_Library/boards/lib/lpc55s69_evk_s/ravenscar-sfp/Debug/liblpc55s69_evk_s.a(nxp-board.o)
 .bss           0x0000000000000000        0x0 /home/hedley/ada/NXP/LPC/LPC55S69/test3/Ada_Drivers_Library/boards/lib/lpc55s69_evk_s/ravenscar-sfp/Debug/liblpc55s69_evk_s.a(nxp-board.o)
 .rodata.nxp__board__red_led
                0x0000000000000000        0x4 /home/hedley/ada/NXP/LPC/LPC55S69/test3/Ada_Drivers_Library/boards/lib/lpc55s69_evk_s/ravenscar-sfp/Debug/liblpc55s69_evk_s.a(nxp-board.o)
 .rodata.nxp__board__green_led
                0x0000000000000000        0x4 /home/hedley/ada/NXP/LPC/LPC55S69/test3/Ada_Drivers_Library/boards/lib/lpc55s69_evk_s/ravenscar-sfp/Debug/liblpc55s69_evk_s.a(nxp-board.o)
 .rodata.nxp__board__blue_led
                0x0000000000000000        0x4 /home/hedley/ada/NXP/LPC/LPC55S69/test3/Ada_Drivers_Library/boards/lib/lpc55s69_evk_s/ravenscar-sfp/Debug/liblpc55s69_evk_s.a(nxp-board.o)
 .rodata.nxp__board__leds
                0x0000000000000000        0x4 /home/hedley/ada/NXP/LPC/LPC55S69/test3/Ada_Drivers_Library/boards/lib/lpc55s69_evk_s/ravenscar-sfp/Debug/liblpc55s69_evk_s.a(nxp-board.o)
 .rodata.nxp__board__user_button
                0x0000000000000000        0x4 /home/hedley/ada/NXP/LPC/LPC55S69/test3/Ada_Drivers_Library/boards/lib/lpc55s69_evk_s/ravenscar-sfp/Debug/liblpc55s69_evk_s.a(nxp-board.o)
 .rodata.nxp__board__wake_button
                0x0000000000000000        0x4 /home/hedley/ada/NXP/LPC/LPC55S69/test3/Ada_Drivers_Library/boards/lib/lpc55s69_evk_s/ravenscar-sfp/Debug/liblpc55s69_evk_s.a(nxp-board.o)
 .text          0x0000000000000000        0x0 /home/hedley/ada/NXP/LPC/LPC55S69/test3/Ada_Drivers_Library/arch/ARM/NXP/lib/lpc55s69_evk_s/ravenscar-sfp/Debug/liblpc55s69.a(nxp-device.o)
 .data          0x0000000000000000        0x0 /home/hedley/ada/NXP/LPC/LPC55S69/test3/Ada_Drivers_Library/arch/ARM/NXP/lib/lpc55s69_evk_s/ravenscar-sfp/Debug/liblpc55s69.a(nxp-device.o)
 .bss           0x0000000000000000        0x0 /home/hedley/ada/NXP/LPC/LPC55S69/test3/Ada_Drivers_Library/arch/ARM/NXP/lib/lpc55s69_evk_s/ravenscar-sfp/Debug/liblpc55s69.a(nxp-device.o)
 .text.nxp__device__disable_clock
                0x0000000000000000       0x84 /home/hedley/ada/NXP/LPC/LPC55S69/test3/Ada_Drivers_Library/arch/ARM/NXP/lib/lpc55s69_evk_s/ravenscar-sfp/Debug/liblpc55s69.a(nxp-device.o)
 .text.nxp__device__enable_clock__2
                0x0000000000000000       0x34 /home/hedley/ada/NXP/LPC/LPC55S69/test3/Ada_Drivers_Library/arch/ARM/NXP/lib/lpc55s69_evk_s/ravenscar-sfp/Debug/liblpc55s69.a(nxp-device.o)
 .text.nxp__device__disable_clock__2
                0x0000000000000000       0x34 /home/hedley/ada/NXP/LPC/LPC55S69/test3/Ada_Drivers_Library/arch/ARM/NXP/lib/lpc55s69_evk_s/ravenscar-sfp/Debug/liblpc55s69.a(nxp-device.o)
 .text.nxp__device__disable_clock__3
                0x0000000000000000       0x70 /home/hedley/ada/NXP/LPC/LPC55S69/test3/Ada_Drivers_Library/arch/ARM/NXP/lib/lpc55s69_evk_s/ravenscar-sfp/Debug/liblpc55s69.a(nxp-device.o)
 .text.nxp__device__reset
                0x0000000000000000       0x14 /home/hedley/ada/NXP/LPC/LPC55S69/test3/Ada_Drivers_Library/arch/ARM/NXP/lib/lpc55s69_evk_s/ravenscar-sfp/Debug/liblpc55s69.a(nxp-device.o)
 .text.nxp__device__reset__2
                0x0000000000000000       0x2c /home/hedley/ada/NXP/LPC/LPC55S69/test3/Ada_Drivers_Library/arch/ARM/NXP/lib/lpc55s69_evk_s/ravenscar-sfp/Debug/liblpc55s69.a(nxp-device.o)
 .text.nxp__device__reset__3
                0x0000000000000000       0xec /home/hedley/ada/NXP/LPC/LPC55S69/test3/Ada_Drivers_Library/arch/ARM/NXP/lib/lpc55s69_evk_s/ravenscar-sfp/Debug/liblpc55s69.a(nxp-device.o)
 .rodata.nxp__device__unknown_portE
                0x0000000000000000       0x18 /home/hedley/ada/NXP/LPC/LPC55S69/test3/Ada_Drivers_Library/arch/ARM/NXP/lib/lpc55s69_evk_s/ravenscar-sfp/Debug/liblpc55s69.a(nxp-device.o)
 .rodata.nxp__device__R2s
                0x0000000000000000        0x4 /home/hedley/ada/NXP/LPC/LPC55S69/test3/Ada_Drivers_Library/arch/ARM/NXP/lib/lpc55s69_evk_s/ravenscar-sfp/Debug/liblpc55s69.a(nxp-device.o)
 .data.nxp__device__unknown_port
                0x0000000000000000       0x18 /home/hedley/ada/NXP/LPC/LPC55S69/test3/Ada_Drivers_Library/arch/ARM/NXP/lib/lpc55s69_evk_s/ravenscar-sfp/Debug/liblpc55s69.a(nxp-device.o)
 .rodata.nxp__device__gpio_af_fc0_usart
                0x0000000000000000        0x1 /home/hedley/ada/NXP/LPC/LPC55S69/test3/Ada_Drivers_Library/arch/ARM/NXP/lib/lpc55s69_evk_s/ravenscar-sfp/Debug/liblpc55s69.a(nxp-device.o)
 .text          0x0000000000000000        0x0 /home/hedley/ada/NXP/LPC/LPC55S69/test3/Ada_Drivers_Library/arch/ARM/NXP/lib/lpc55s69_evk_s/ravenscar-sfp/Debug/liblpc55s69.a(nxp-gpio.o)
 .data          0x0000000000000000        0x0 /home/hedley/ada/NXP/LPC/LPC55S69/test3/Ada_Drivers_Library/arch/ARM/NXP/lib/lpc55s69_evk_s/ravenscar-sfp/Debug/liblpc55s69.a(nxp-gpio.o)
 .bss           0x0000000000000000        0x0 /home/hedley/ada/NXP/LPC/LPC55S69/test3/Ada_Drivers_Library/arch/ARM/NXP/lib/lpc55s69_evk_s/ravenscar-sfp/Debug/liblpc55s69.a(nxp-gpio.o)
 .text.nxp__gpio__gpio_pinsIP
                0x0000000000000000       0x14 /home/hedley/ada/NXP/LPC/LPC55S69/test3/Ada_Drivers_Library/arch/ARM/NXP/lib/lpc55s69_evk_s/ravenscar-sfp/Debug/liblpc55s69.a(nxp-gpio.o)
 .text.nxp__gpio__gpio_port_configurationIP
                0x0000000000000000       0x14 /home/hedley/ada/NXP/LPC/LPC55S69/test3/Ada_Drivers_Library/arch/ARM/NXP/lib/lpc55s69_evk_s/ravenscar-sfp/Debug/liblpc55s69.a(nxp-gpio.o)
 .text.nxp__gpio__any_set
                0x0000000000000000       0x54 /home/hedley/ada/NXP/LPC/LPC55S69/test3/Ada_Drivers_Library/arch/ARM/NXP/lib/lpc55s69_evk_s/ravenscar-sfp/Debug/liblpc55s69.a(nxp-gpio.o)
 .text.nxp__gpio__all_set
                0x0000000000000000       0x5c /home/hedley/ada/NXP/LPC/LPC55S69/test3/Ada_Drivers_Library/arch/ARM/NXP/lib/lpc55s69_evk_s/ravenscar-sfp/Debug/liblpc55s69.a(nxp-gpio.o)
 .text.nxp__gpio__set__4
                0x0000000000000000       0x44 /home/hedley/ada/NXP/LPC/LPC55S69/test3/Ada_Drivers_Library/arch/ARM/NXP/lib/lpc55s69_evk_s/ravenscar-sfp/Debug/liblpc55s69.a(nxp-gpio.o)
 .text.nxp__gpio__clear__2
                0x0000000000000000       0x44 /home/hedley/ada/NXP/LPC/LPC55S69/test3/Ada_Drivers_Library/arch/ARM/NXP/lib/lpc55s69_evk_s/ravenscar-sfp/Debug/liblpc55s69.a(nxp-gpio.o)
 .text.nxp__gpio__toggle__2
                0x0000000000000000       0x44 /home/hedley/ada/NXP/LPC/LPC55S69/test3/Ada_Drivers_Library/arch/ARM/NXP/lib/lpc55s69_evk_s/ravenscar-sfp/Debug/liblpc55s69.a(nxp-gpio.o)
 .text.nxp__gpio__configure_alternate_function__2
                0x0000000000000000       0x4c /home/hedley/ada/NXP/LPC/LPC55S69/test3/Ada_Drivers_Library/arch/ARM/NXP/lib/lpc55s69_evk_s/ravenscar-sfp/Debug/liblpc55s69.a(nxp-gpio.o)
 .rodata.nxp__gpio__gpio_pinS
                0x0000000000000000       0xb6 /home/hedley/ada/NXP/LPC/LPC55S69/test3/Ada_Drivers_Library/arch/ARM/NXP/lib/lpc55s69_evk_s/ravenscar-sfp/Debug/liblpc55s69.a(nxp-gpio.o)
 .rodata.nxp__gpio__gpio_pinN
                0x0000000000000000       0x42 /home/hedley/ada/NXP/LPC/LPC55S69/test3/Ada_Drivers_Library/arch/ARM/NXP/lib/lpc55s69_evk_s/ravenscar-sfp/Debug/liblpc55s69.a(nxp-gpio.o)
 .rodata.nxp__gpio__gpio_pinA
                0x0000000000000000       0x80 /home/hedley/ada/NXP/LPC/LPC55S69/test3/Ada_Drivers_Library/arch/ARM/NXP/lib/lpc55s69_evk_s/ravenscar-sfp/Debug/liblpc55s69.a(nxp-gpio.o)
 .rodata.nxp__gpio__all_pins
                0x0000000000000000       0x80 /home/hedley/ada/NXP/LPC/LPC55S69/test3/Ada_Drivers_Library/arch/ARM/NXP/lib/lpc55s69_evk_s/ravenscar-sfp/Debug/liblpc55s69.a(nxp-gpio.o)
 .rodata.nxp__gpio__pin_io_modesS
                0x0000000000000000       0x21 /home/hedley/ada/NXP/LPC/LPC55S69/test3/Ada_Drivers_Library/arch/ARM/NXP/lib/lpc55s69_evk_s/ravenscar-sfp/Debug/liblpc55s69.a(nxp-gpio.o)
 .rodata.nxp__gpio__pin_io_modesN
                0x0000000000000000        0x8 /home/hedley/ada/NXP/LPC/LPC55S69/test3/Ada_Drivers_Library/arch/ARM/NXP/lib/lpc55s69_evk_s/ravenscar-sfp/Debug/liblpc55s69.a(nxp-gpio.o)
 .rodata.nxp__gpio__pin_output_typesS
                0x0000000000000000       0x13 /home/hedley/ada/NXP/LPC/LPC55S69/test3/Ada_Drivers_Library/arch/ARM/NXP/lib/lpc55s69_evk_s/ravenscar-sfp/Debug/liblpc55s69.a(nxp-gpio.o)
 .rodata.nxp__gpio__pin_output_typesN
                0x0000000000000000        0x4 /home/hedley/ada/NXP/LPC/LPC55S69/test3/Ada_Drivers_Library/arch/ARM/NXP/lib/lpc55s69_evk_s/ravenscar-sfp/Debug/liblpc55s69.a(nxp-gpio.o)
 .rodata.nxp__gpio__pin_output_speedsS
                0x0000000000000000       0x13 /home/hedley/ada/NXP/LPC/LPC55S69/test3/Ada_Drivers_Library/arch/ARM/NXP/lib/lpc55s69_evk_s/ravenscar-sfp/Debug/liblpc55s69.a(nxp-gpio.o)
 .rodata.nxp__gpio__pin_output_speedsN
                0x0000000000000000        0x4 /home/hedley/ada/NXP/LPC/LPC55S69/test3/Ada_Drivers_Library/arch/ARM/NXP/lib/lpc55s69_evk_s/ravenscar-sfp/Debug/liblpc55s69.a(nxp-gpio.o)
 .rodata.nxp__gpio__internal_pin_resistorsS
                0x0000000000000000       0x20 /home/hedley/ada/NXP/LPC/LPC55S69/test3/Ada_Drivers_Library/arch/ARM/NXP/lib/lpc55s69_evk_s/ravenscar-sfp/Debug/liblpc55s69.a(nxp-gpio.o)
 .rodata.nxp__gpio__internal_pin_resistorsN
                0x0000000000000000        0x8 /home/hedley/ada/NXP/LPC/LPC55S69/test3/Ada_Drivers_Library/arch/ARM/NXP/lib/lpc55s69_evk_s/ravenscar-sfp/Debug/liblpc55s69.a(nxp-gpio.o)
 .rodata.nxp__gpio__portsS
                0x0000000000000000        0xc /home/hedley/ada/NXP/LPC/LPC55S69/test3/Ada_Drivers_Library/arch/ARM/NXP/lib/lpc55s69_evk_s/ravenscar-sfp/Debug/liblpc55s69.a(nxp-gpio.o)
 .rodata.nxp__gpio__portsN
                0x0000000000000000        0x4 /home/hedley/ada/NXP/LPC/LPC55S69/test3/Ada_Drivers_Library/arch/ARM/NXP/lib/lpc55s69_evk_s/ravenscar-sfp/Debug/liblpc55s69.a(nxp-gpio.o)
 .rodata.nxp__gpio__gpio_pointP
                0x0000000000000000        0x4 /home/hedley/ada/NXP/LPC/LPC55S69/test3/Ada_Drivers_Library/arch/ARM/NXP/lib/lpc55s69_evk_s/ravenscar-sfp/Debug/liblpc55s69.a(nxp-gpio.o)
 .rodata.nxp__gpio__gpio_pointY
                0x0000000000000000        0x4 /home/hedley/ada/NXP/LPC/LPC55S69/test3/Ada_Drivers_Library/arch/ARM/NXP/lib/lpc55s69_evk_s/ravenscar-sfp/Debug/liblpc55s69.a(nxp-gpio.o)
 .rodata.nxp__gpio__gpio_pointR90s
                0x0000000000000000        0x4 /home/hedley/ada/NXP/LPC/LPC55S69/test3/Ada_Drivers_Library/arch/ARM/NXP/lib/lpc55s69_evk_s/ravenscar-sfp/Debug/liblpc55s69.a(nxp-gpio.o)
 .text          0x0000000000000000        0x0 /home/hedley/ada/NXP/LPC/LPC55S69/test3/Ada_Drivers_Library/arch/ARM/NXP/lib/lpc55s69_evk_s/ravenscar-sfp/Debug/liblpc55s69.a(nxp-inputmux.o)
 .data          0x0000000000000000        0x0 /home/hedley/ada/NXP/LPC/LPC55S69/test3/Ada_Drivers_Library/arch/ARM/NXP/lib/lpc55s69_evk_s/ravenscar-sfp/Debug/liblpc55s69.a(nxp-inputmux.o)
 .bss           0x0000000000000000        0x0 /home/hedley/ada/NXP/LPC/LPC55S69/test3/Ada_Drivers_Library/arch/ARM/NXP/lib/lpc55s69_evk_s/ravenscar-sfp/Debug/liblpc55s69.a(nxp-inputmux.o)
 .text.nxp__inputmux__disable_inputmux
                0x0000000000000000       0x24 /home/hedley/ada/NXP/LPC/LPC55S69/test3/Ada_Drivers_Library/arch/ARM/NXP/lib/lpc55s69_evk_s/ravenscar-sfp/Debug/liblpc55s69.a(nxp-inputmux.o)
 .text          0x0000000000000000        0x0 /home/hedley/ada/NXP/LPC/LPC55S69/test3/Ada_Drivers_Library/arch/ARM/NXP/lib/lpc55s69_evk_s/ravenscar-sfp/Debug/liblpc55s69.a(nxp-pint.o)
 .data          0x0000000000000000        0x0 /home/hedley/ada/NXP/LPC/LPC55S69/test3/Ada_Drivers_Library/arch/ARM/NXP/lib/lpc55s69_evk_s/ravenscar-sfp/Debug/liblpc55s69.a(nxp-pint.o)
 .bss           0x0000000000000000        0x0 /home/hedley/ada/NXP/LPC/LPC55S69/test3/Ada_Drivers_Library/arch/ARM/NXP/lib/lpc55s69_evk_s/ravenscar-sfp/Debug/liblpc55s69.a(nxp-pint.o)
 .text.nxp__pint__pint_configurationIP
                0x0000000000000000       0x30 /home/hedley/ada/NXP/LPC/LPC55S69/test3/Ada_Drivers_Library/arch/ARM/NXP/lib/lpc55s69_evk_s/ravenscar-sfp/Debug/liblpc55s69.a(nxp-pint.o)
 .text.nxp__pint__disable_pint
                0x0000000000000000       0x24 /home/hedley/ada/NXP/LPC/LPC55S69/test3/Ada_Drivers_Library/arch/ARM/NXP/lib/lpc55s69_evk_s/ravenscar-sfp/Debug/liblpc55s69.a(nxp-pint.o)
 .rodata.nxp__pint__pint_pinintS
                0x0000000000000000       0x40 /home/hedley/ada/NXP/LPC/LPC55S69/test3/Ada_Drivers_Library/arch/ARM/NXP/lib/lpc55s69_evk_s/ravenscar-sfp/Debug/liblpc55s69.a(nxp-pint.o)
 .rodata.nxp__pint__pint_pinintN
                0x0000000000000000        0x9 /home/hedley/ada/NXP/LPC/LPC55S69/test3/Ada_Drivers_Library/arch/ARM/NXP/lib/lpc55s69_evk_s/ravenscar-sfp/Debug/liblpc55s69.a(nxp-pint.o)
 .rodata.nxp__pint__mode_selectionS
                0x0000000000000000       0x13 /home/hedley/ada/NXP/LPC/LPC55S69/test3/Ada_Drivers_Library/arch/ARM/NXP/lib/lpc55s69_evk_s/ravenscar-sfp/Debug/liblpc55s69.a(nxp-pint.o)
 .rodata.nxp__pint__mode_selectionN
                0x0000000000000000        0x4 /home/hedley/ada/NXP/LPC/LPC55S69/test3/Ada_Drivers_Library/arch/ARM/NXP/lib/lpc55s69_evk_s/ravenscar-sfp/Debug/liblpc55s69.a(nxp-pint.o)
 .rodata.nxp__pint__edge_selectionS
                0x0000000000000000       0x17 /home/hedley/ada/NXP/LPC/LPC55S69/test3/Ada_Drivers_Library/arch/ARM/NXP/lib/lpc55s69_evk_s/ravenscar-sfp/Debug/liblpc55s69.a(nxp-pint.o)
 .rodata.nxp__pint__edge_selectionN
                0x0000000000000000        0x4 /home/hedley/ada/NXP/LPC/LPC55S69/test3/Ada_Drivers_Library/arch/ARM/NXP/lib/lpc55s69_evk_s/ravenscar-sfp/Debug/liblpc55s69.a(nxp-pint.o)
 .rodata.nxp__pint__level_selectionS
                0x0000000000000000       0x11 /home/hedley/ada/NXP/LPC/LPC55S69/test3/Ada_Drivers_Library/arch/ARM/NXP/lib/lpc55s69_evk_s/ravenscar-sfp/Debug/liblpc55s69.a(nxp-pint.o)
 .rodata.nxp__pint__level_selectionN
                0x0000000000000000        0x4 /home/hedley/ada/NXP/LPC/LPC55S69/test3/Ada_Drivers_Library/arch/ARM/NXP/lib/lpc55s69_evk_s/ravenscar-sfp/Debug/liblpc55s69.a(nxp-pint.o)
 .text          0x0000000000000000        0x0 /home/hedley/ada/Ada_Drivers_Library/hal/lib/lpc55s69_evk_s/ravenscar-sfp/Debug/libHAL.a(hal-gpio.o)
 .data          0x0000000000000000        0x0 /home/hedley/ada/Ada_Drivers_Library/hal/lib/lpc55s69_evk_s/ravenscar-sfp/Debug/libHAL.a(hal-gpio.o)
 .bss           0x0000000000000000        0x0 /home/hedley/ada/Ada_Drivers_Library/hal/lib/lpc55s69_evk_s/ravenscar-sfp/Debug/libHAL.a(hal-gpio.o)
 .data.hal__gpio_E
                0x0000000000000000        0x2 /home/hedley/ada/Ada_Drivers_Library/hal/lib/lpc55s69_evk_s/ravenscar-sfp/Debug/libHAL.a(hal-gpio.o)
 .rodata.hal__gpio__gpio_modeS
                0x0000000000000000       0x12 /home/hedley/ada/Ada_Drivers_Library/hal/lib/lpc55s69_evk_s/ravenscar-sfp/Debug/libHAL.a(hal-gpio.o)
 .rodata.hal__gpio__gpio_modeN
                0x0000000000000000        0x4 /home/hedley/ada/Ada_Drivers_Library/hal/lib/lpc55s69_evk_s/ravenscar-sfp/Debug/libHAL.a(hal-gpio.o)
 .rodata.hal__gpio__gpio_pull_resistorS
                0x0000000000000000       0x18 /home/hedley/ada/Ada_Drivers_Library/hal/lib/lpc55s69_evk_s/ravenscar-sfp/Debug/libHAL.a(hal-gpio.o)
 .rodata.hal__gpio__gpio_pull_resistorN
                0x0000000000000000        0x4 /home/hedley/ada/Ada_Drivers_Library/hal/lib/lpc55s69_evk_s/ravenscar-sfp/Debug/libHAL.a(hal-gpio.o)
 .rodata.hal__gpio__gpio_pointP
                0x0000000000000000        0x4 /home/hedley/ada/Ada_Drivers_Library/hal/lib/lpc55s69_evk_s/ravenscar-sfp/Debug/libHAL.a(hal-gpio.o)
 .text          0x0000000000000000        0x0 /home/hedley/ada/NXP/LPC/LPC55S69/test3/Ada_Drivers_Library/embedded-runtimes/ravenscar-lpc55s69_evk_s/sfp/adalib/libgnarl.a(a-reatim.o)
 .data          0x0000000000000000        0x0 /home/hedley/ada/NXP/LPC/LPC55S69/test3/Ada_Drivers_Library/embedded-runtimes/ravenscar-lpc55s69_evk_s/sfp/adalib/libgnarl.a(a-reatim.o)
 .bss           0x0000000000000000        0x0 /home/hedley/ada/NXP/LPC/LPC55S69/test3/Ada_Drivers_Library/embedded-runtimes/ravenscar-lpc55s69_evk_s/sfp/adalib/libgnarl.a(a-reatim.o)
 .text.ada__real_time__Oadd__2
                0x0000000000000000       0x14 /home/hedley/ada/NXP/LPC/LPC55S69/test3/Ada_Drivers_Library/embedded-runtimes/ravenscar-lpc55s69_evk_s/sfp/adalib/libgnarl.a(a-reatim.o)
 .text.ada__real_time__Omultiply
                0x0000000000000000       0xac /home/hedley/ada/NXP/LPC/LPC55S69/test3/Ada_Drivers_Library/embedded-runtimes/ravenscar-lpc55s69_evk_s/sfp/adalib/libgnarl.a(a-reatim.o)
 .text.ada__real_time__Omultiply__2
                0x0000000000000000       0x10 /home/hedley/ada/NXP/LPC/LPC55S69/test3/Ada_Drivers_Library/embedded-runtimes/ravenscar-lpc55s69_evk_s/sfp/adalib/libgnarl.a(a-reatim.o)
 .text.ada__real_time__Oadd__3
                0x0000000000000000       0x30 /home/hedley/ada/NXP/LPC/LPC55S69/test3/Ada_Drivers_Library/embedded-runtimes/ravenscar-lpc55s69_evk_s/sfp/adalib/libgnarl.a(a-reatim.o)
 .text.ada__real_time__Osubtract
                0x0000000000000000       0x6c /home/hedley/ada/NXP/LPC/LPC55S69/test3/Ada_Drivers_Library/embedded-runtimes/ravenscar-lpc55s69_evk_s/sfp/adalib/libgnarl.a(a-reatim.o)
 .text.ada__real_time__Osubtract__2
                0x0000000000000000       0x48 /home/hedley/ada/NXP/LPC/LPC55S69/test3/Ada_Drivers_Library/embedded-runtimes/ravenscar-lpc55s69_evk_s/sfp/adalib/libgnarl.a(a-reatim.o)
 .text.ada__real_time__Osubtract__3
                0x0000000000000000       0x30 /home/hedley/ada/NXP/LPC/LPC55S69/test3/Ada_Drivers_Library/embedded-runtimes/ravenscar-lpc55s69_evk_s/sfp/adalib/libgnarl.a(a-reatim.o)
 .text.ada__real_time__Osubtract__4
                0x0000000000000000       0x24 /home/hedley/ada/NXP/LPC/LPC55S69/test3/Ada_Drivers_Library/embedded-runtimes/ravenscar-lpc55s69_evk_s/sfp/adalib/libgnarl.a(a-reatim.o)
 .text.ada__real_time__Odivide
                0x0000000000000000       0x44 /home/hedley/ada/NXP/LPC/LPC55S69/test3/Ada_Drivers_Library/embedded-runtimes/ravenscar-lpc55s69_evk_s/sfp/adalib/libgnarl.a(a-reatim.o)
 .text.ada__real_time__Odivide__2
                0x0000000000000000       0x34 /home/hedley/ada/NXP/LPC/LPC55S69/test3/Ada_Drivers_Library/embedded-runtimes/ravenscar-lpc55s69_evk_s/sfp/adalib/libgnarl.a(a-reatim.o)
 .text.ada__real_time__microseconds
                0x0000000000000000       0x44 /home/hedley/ada/NXP/LPC/LPC55S69/test3/Ada_Drivers_Library/embedded-runtimes/ravenscar-lpc55s69_evk_s/sfp/adalib/libgnarl.a(a-reatim.o)
 .text.ada__real_time__minutes
                0x0000000000000000       0x50 /home/hedley/ada/NXP/LPC/LPC55S69/test3/Ada_Drivers_Library/embedded-runtimes/ravenscar-lpc55s69_evk_s/sfp/adalib/libgnarl.a(a-reatim.o)
 .text.ada__real_time__mul_div
                0x0000000000000000      0x11c /home/hedley/ada/NXP/LPC/LPC55S69/test3/Ada_Drivers_Library/embedded-runtimes/ravenscar-lpc55s69_evk_s/sfp/adalib/libgnarl.a(a-reatim.o)
 .text.ada__real_time__nanoseconds
                0x0000000000000000       0x6c /home/hedley/ada/NXP/LPC/LPC55S69/test3/Ada_Drivers_Library/embedded-runtimes/ravenscar-lpc55s69_evk_s/sfp/adalib/libgnarl.a(a-reatim.o)
 .text.ada__real_time__rounded_div
                0x0000000000000000       0x48 /home/hedley/ada/NXP/LPC/LPC55S69/test3/Ada_Drivers_Library/embedded-runtimes/ravenscar-lpc55s69_evk_s/sfp/adalib/libgnarl.a(a-reatim.o)
 .text.ada__real_time__seconds
                0x0000000000000000        0xc /home/hedley/ada/NXP/LPC/LPC55S69/test3/Ada_Drivers_Library/embedded-runtimes/ravenscar-lpc55s69_evk_s/sfp/adalib/libgnarl.a(a-reatim.o)
 .text.ada__real_time__split
                0x0000000000000000       0x80 /home/hedley/ada/NXP/LPC/LPC55S69/test3/Ada_Drivers_Library/embedded-runtimes/ravenscar-lpc55s69_evk_s/sfp/adalib/libgnarl.a(a-reatim.o)
 .text.ada__real_time__time_of
                0x0000000000000000      0x110 /home/hedley/ada/NXP/LPC/LPC55S69/test3/Ada_Drivers_Library/embedded-runtimes/ravenscar-lpc55s69_evk_s/sfp/adalib/libgnarl.a(a-reatim.o)
 .text.ada__real_time__to_duration
                0x0000000000000000       0x10 /home/hedley/ada/NXP/LPC/LPC55S69/test3/Ada_Drivers_Library/embedded-runtimes/ravenscar-lpc55s69_evk_s/sfp/adalib/libgnarl.a(a-reatim.o)
 .text.ada__real_time__to_time_span
                0x0000000000000000       0x10 /home/hedley/ada/NXP/LPC/LPC55S69/test3/Ada_Drivers_Library/embedded-runtimes/ravenscar-lpc55s69_evk_s/sfp/adalib/libgnarl.a(a-reatim.o)
 .rodata.ada__real_time__duration_units
                0x0000000000000000        0x4 /home/hedley/ada/NXP/LPC/LPC55S69/test3/Ada_Drivers_Library/embedded-runtimes/ravenscar-lpc55s69_evk_s/sfp/adalib/libgnarl.a(a-reatim.o)
 .rodata.ada__real_time__tick
                0x0000000000000000        0x8 /home/hedley/ada/NXP/LPC/LPC55S69/test3/Ada_Drivers_Library/embedded-runtimes/ravenscar-lpc55s69_evk_s/sfp/adalib/libgnarl.a(a-reatim.o)
 .rodata.ada__real_time__time_first
                0x0000000000000000        0x8 /home/hedley/ada/NXP/LPC/LPC55S69/test3/Ada_Drivers_Library/embedded-runtimes/ravenscar-lpc55s69_evk_s/sfp/adalib/libgnarl.a(a-reatim.o)
 .rodata.ada__real_time__time_last
                0x0000000000000000        0x8 /home/hedley/ada/NXP/LPC/LPC55S69/test3/Ada_Drivers_Library/embedded-runtimes/ravenscar-lpc55s69_evk_s/sfp/adalib/libgnarl.a(a-reatim.o)
 .rodata.ada__real_time__time_span_first
                0x0000000000000000        0x8 /home/hedley/ada/NXP/LPC/LPC55S69/test3/Ada_Drivers_Library/embedded-runtimes/ravenscar-lpc55s69_evk_s/sfp/adalib/libgnarl.a(a-reatim.o)
 .rodata.ada__real_time__time_span_last
                0x0000000000000000        0x8 /home/hedley/ada/NXP/LPC/LPC55S69/test3/Ada_Drivers_Library/embedded-runtimes/ravenscar-lpc55s69_evk_s/sfp/adalib/libgnarl.a(a-reatim.o)
 .rodata.ada__real_time__time_span_unit
                0x0000000000000000        0x8 /home/hedley/ada/NXP/LPC/LPC55S69/test3/Ada_Drivers_Library/embedded-runtimes/ravenscar-lpc55s69_evk_s/sfp/adalib/libgnarl.a(a-reatim.o)
 .rodata.ada__real_time__time_span_zero
                0x0000000000000000        0x8 /home/hedley/ada/NXP/LPC/LPC55S69/test3/Ada_Drivers_Library/embedded-runtimes/ravenscar-lpc55s69_evk_s/sfp/adalib/libgnarl.a(a-reatim.o)
 .text          0x0000000000000000        0x0 /home/hedley/ada/NXP/LPC/LPC55S69/test3/Ada_Drivers_Library/embedded-runtimes/ravenscar-lpc55s69_evk_s/sfp/adalib/libgnarl.a(a-retide.o)
 .data          0x0000000000000000        0x0 /home/hedley/ada/NXP/LPC/LPC55S69/test3/Ada_Drivers_Library/embedded-runtimes/ravenscar-lpc55s69_evk_s/sfp/adalib/libgnarl.a(a-retide.o)
 .bss           0x0000000000000000        0x0 /home/hedley/ada/NXP/LPC/LPC55S69/test3/Ada_Drivers_Library/embedded-runtimes/ravenscar-lpc55s69_evk_s/sfp/adalib/libgnarl.a(a-retide.o)
 .text.ada__real_time__delays__to_duration
                0x0000000000000000        0x8 /home/hedley/ada/NXP/LPC/LPC55S69/test3/Ada_Drivers_Library/embedded-runtimes/ravenscar-lpc55s69_evk_s/sfp/adalib/libgnarl.a(a-retide.o)
 .data.ada__real_time__delays_E
                0x0000000000000000        0x2 /home/hedley/ada/NXP/LPC/LPC55S69/test3/Ada_Drivers_Library/embedded-runtimes/ravenscar-lpc55s69_evk_s/sfp/adalib/libgnarl.a(a-retide.o)
 .text          0x0000000000000000        0x0 /home/hedley/ada/NXP/LPC/LPC55S69/test3/Ada_Drivers_Library/embedded-runtimes/ravenscar-lpc55s69_evk_s/sfp/adalib/libgnarl.a(a-sytaco.o)
 .data          0x0000000000000000        0x0 /home/hedley/ada/NXP/LPC/LPC55S69/test3/Ada_Drivers_Library/embedded-runtimes/ravenscar-lpc55s69_evk_s/sfp/adalib/libgnarl.a(a-sytaco.o)
 .bss           0x0000000000000000        0x0 /home/hedley/ada/NXP/LPC/LPC55S69/test3/Ada_Drivers_Library/embedded-runtimes/ravenscar-lpc55s69_evk_s/sfp/adalib/libgnarl.a(a-sytaco.o)
 .text.ada__synchronous_task_control__suspension_object__get_openN
                0x0000000000000000        0x4 /home/hedley/ada/NXP/LPC/LPC55S69/test3/Ada_Drivers_Library/embedded-runtimes/ravenscar-lpc55s69_evk_s/sfp/adalib/libgnarl.a(a-sytaco.o)
 .text.ada__synchronous_task_control__suspension_object__set_falseN
                0x0000000000000000        0x8 /home/hedley/ada/NXP/LPC/LPC55S69/test3/Ada_Drivers_Library/embedded-runtimes/ravenscar-lpc55s69_evk_s/sfp/adalib/libgnarl.a(a-sytaco.o)
 .text.ada__synchronous_task_control__suspension_object__set_trueN
                0x0000000000000000        0x8 /home/hedley/ada/NXP/LPC/LPC55S69/test3/Ada_Drivers_Library/embedded-runtimes/ravenscar-lpc55s69_evk_s/sfp/adalib/libgnarl.a(a-sytaco.o)
 .text.ada__synchronous_task_control__current_state
                0x0000000000000000       0x18 /home/hedley/ada/NXP/LPC/LPC55S69/test3/Ada_Drivers_Library/embedded-runtimes/ravenscar-lpc55s69_evk_s/sfp/adalib/libgnarl.a(a-sytaco.o)
 .text.ada__synchronous_task_control__suspension_object__get_openP
                0x0000000000000000        0x4 /home/hedley/ada/NXP/LPC/LPC55S69/test3/Ada_Drivers_Library/embedded-runtimes/ravenscar-lpc55s69_evk_s/sfp/adalib/libgnarl.a(a-sytaco.o)
 .text.ada__synchronous_task_control__set_false
                0x0000000000000000       0x1c /home/hedley/ada/NXP/LPC/LPC55S69/test3/Ada_Drivers_Library/embedded-runtimes/ravenscar-lpc55s69_evk_s/sfp/adalib/libgnarl.a(a-sytaco.o)
 .text.ada__synchronous_task_control__suspension_object__set_falseP
                0x0000000000000000        0x4 /home/hedley/ada/NXP/LPC/LPC55S69/test3/Ada_Drivers_Library/embedded-runtimes/ravenscar-lpc55s69_evk_s/sfp/adalib/libgnarl.a(a-sytaco.o)
 .text.ada__synchronous_task_control__suspension_object__set_trueP
                0x0000000000000000        0x4 /home/hedley/ada/NXP/LPC/LPC55S69/test3/Ada_Drivers_Library/embedded-runtimes/ravenscar-lpc55s69_evk_s/sfp/adalib/libgnarl.a(a-sytaco.o)
 .data.ada__synchronous_task_control_E
                0x0000000000000000        0x2 /home/hedley/ada/NXP/LPC/LPC55S69/test3/Ada_Drivers_Library/embedded-runtimes/ravenscar-lpc55s69_evk_s/sfp/adalib/libgnarl.a(a-sytaco.o)
 .text          0x0000000000000000        0x0 /home/hedley/ada/NXP/LPC/LPC55S69/test3/Ada_Drivers_Library/embedded-runtimes/ravenscar-lpc55s69_evk_s/sfp/adalib/libgnarl.a(s-bbbosu.o)
 .data          0x0000000000000000        0x0 /home/hedley/ada/NXP/LPC/LPC55S69/test3/Ada_Drivers_Library/embedded-runtimes/ravenscar-lpc55s69_evk_s/sfp/adalib/libgnarl.a(s-bbbosu.o)
 .bss           0x0000000000000000        0x0 /home/hedley/ada/NXP/LPC/LPC55S69/test3/Ada_Drivers_Library/embedded-runtimes/ravenscar-lpc55s69_evk_s/sfp/adalib/libgnarl.a(s-bbbosu.o)
 .text.system__bb__board_support__time__max_timer_interval
                0x0000000000000000        0x8 /home/hedley/ada/NXP/LPC/LPC55S69/test3/Ada_Drivers_Library/embedded-runtimes/ravenscar-lpc55s69_evk_s/sfp/adalib/libgnarl.a(s-bbbosu.o)
 .text.system__bb__board_support__time__clear_alarm_interrupt
                0x0000000000000000       0x10 /home/hedley/ada/NXP/LPC/LPC55S69/test3/Ada_Drivers_Library/embedded-runtimes/ravenscar-lpc55s69_evk_s/sfp/adalib/libgnarl.a(s-bbbosu.o)
 .text.system__bb__board_support__multiprocessors__number_of_cpus
                0x0000000000000000        0x4 /home/hedley/ada/NXP/LPC/LPC55S69/test3/Ada_Drivers_Library/embedded-runtimes/ravenscar-lpc55s69_evk_s/sfp/adalib/libgnarl.a(s-bbbosu.o)
 .text.system__bb__board_support__multiprocessors__current_cpu
                0x0000000000000000        0x4 /home/hedley/ada/NXP/LPC/LPC55S69/test3/Ada_Drivers_Library/embedded-runtimes/ravenscar-lpc55s69_evk_s/sfp/adalib/libgnarl.a(s-bbbosu.o)
 .text.system__bb__board_support__multiprocessors__poke_cpu
                0x0000000000000000        0x4 /home/hedley/ada/NXP/LPC/LPC55S69/test3/Ada_Drivers_Library/embedded-runtimes/ravenscar-lpc55s69_evk_s/sfp/adalib/libgnarl.a(s-bbbosu.o)
 .text.system__bb__board_support__multiprocessors__start_all_cpus
                0x0000000000000000        0x4 /home/hedley/ada/NXP/LPC/LPC55S69/test3/Ada_Drivers_Library/embedded-runtimes/ravenscar-lpc55s69_evk_s/sfp/adalib/libgnarl.a(s-bbbosu.o)
 .text.system__bb__board_support__interrupts__priority_of_interrupt
                0x0000000000000000       0x20 /home/hedley/ada/NXP/LPC/LPC55S69/test3/Ada_Drivers_Library/embedded-runtimes/ravenscar-lpc55s69_evk_s/sfp/adalib/libgnarl.a(s-bbbosu.o)
 .text.system__bb__board_support__interrupts__power_down
                0x0000000000000000        0x4 /home/hedley/ada/NXP/LPC/LPC55S69/test3/Ada_Drivers_Library/embedded-runtimes/ravenscar-lpc55s69_evk_s/sfp/adalib/libgnarl.a(s-bbbosu.o)
 .text.system__bb__board_support__interrupts__set_current_priority
                0x0000000000000000       0x18 /home/hedley/ada/NXP/LPC/LPC55S69/test3/Ada_Drivers_Library/embedded-runtimes/ravenscar-lpc55s69_evk_s/sfp/adalib/libgnarl.a(s-bbbosu.o)
 .text.system__bb__board_support__sys_tick_registersIP
                0x0000000000000000        0x4 /home/hedley/ada/NXP/LPC/LPC55S69/test3/Ada_Drivers_Library/embedded-runtimes/ravenscar-lpc55s69_evk_s/sfp/adalib/libgnarl.a(s-bbbosu.o)
 .text.system__bb__board_support__TipBIP
                0x0000000000000000        0x4 /home/hedley/ada/NXP/LPC/LPC55S69/test3/Ada_Drivers_Library/embedded-runtimes/ravenscar-lpc55s69_evk_s/sfp/adalib/libgnarl.a(s-bbbosu.o)
 .text.system__bb__board_support__enable_interrupt_request
                0x0000000000000000       0x40 /home/hedley/ada/NXP/LPC/LPC55S69/test3/Ada_Drivers_Library/embedded-runtimes/ravenscar-lpc55s69_evk_s/sfp/adalib/libgnarl.a(s-bbbosu.o)
 .text.system__bb__board_support__to_pri
                0x0000000000000000       0x14 /home/hedley/ada/NXP/LPC/LPC55S69/test3/Ada_Drivers_Library/embedded-runtimes/ravenscar-lpc55s69_evk_s/sfp/adalib/libgnarl.a(s-bbbosu.o)
 .text.system__bb__board_support__to_priority
                0x0000000000000000       0x10 /home/hedley/ada/NXP/LPC/LPC55S69/test3/Ada_Drivers_Library/embedded-runtimes/ravenscar-lpc55s69_evk_s/sfp/adalib/libgnarl.a(s-bbbosu.o)
 .rodata.system__bb__board_support__alarm_interrupt_id
                0x0000000000000000        0x4 /home/hedley/ada/NXP/LPC/LPC55S69/test3/Ada_Drivers_Library/embedded-runtimes/ravenscar-lpc55s69_evk_s/sfp/adalib/libgnarl.a(s-bbbosu.o)
 .rodata.system__bb__board_support__interrupt_request_vector
                0x0000000000000000        0x1 /home/hedley/ada/NXP/LPC/LPC55S69/test3/Ada_Drivers_Library/embedded-runtimes/ravenscar-lpc55s69_evk_s/sfp/adalib/libgnarl.a(s-bbbosu.o)
 .rodata.system__bb__board_support__nvic_iser0
                0x0000000000000000        0x4 /home/hedley/ada/NXP/LPC/LPC55S69/test3/Ada_Drivers_Library/embedded-runtimes/ravenscar-lpc55s69_evk_s/sfp/adalib/libgnarl.a(s-bbbosu.o)
 .rodata.system__bb__board_support__sys_tick_vector
                0x0000000000000000        0x1 /home/hedley/ada/NXP/LPC/LPC55S69/test3/Ada_Drivers_Library/embedded-runtimes/ravenscar-lpc55s69_evk_s/sfp/adalib/libgnarl.a(s-bbbosu.o)
 .rodata.system__bb__board_support__tick_period
                0x0000000000000000        0x4 /home/hedley/ada/NXP/LPC/LPC55S69/test3/Ada_Drivers_Library/embedded-runtimes/ravenscar-lpc55s69_evk_s/sfp/adalib/libgnarl.a(s-bbbosu.o)
 .text          0x0000000000000000        0x0 /home/hedley/ada/NXP/LPC/LPC55S69/test3/Ada_Drivers_Library/embedded-runtimes/ravenscar-lpc55s69_evk_s/sfp/adalib/libgnarl.a(s-bbcppr.o)
 .data          0x0000000000000000        0x0 /home/hedley/ada/NXP/LPC/LPC55S69/test3/Ada_Drivers_Library/embedded-runtimes/ravenscar-lpc55s69_evk_s/sfp/adalib/libgnarl.a(s-bbcppr.o)
 .bss           0x0000000000000000        0x0 /home/hedley/ada/NXP/LPC/LPC55S69/test3/Ada_Drivers_Library/embedded-runtimes/ravenscar-lpc55s69_evk_s/sfp/adalib/libgnarl.a(s-bbcppr.o)
 .text.system__bb__cpu_primitives__Tcontext_bufferBIP
                0x0000000000000000        0x4 /home/hedley/ada/NXP/LPC/LPC55S69/test3/Ada_Drivers_Library/embedded-runtimes/ravenscar-lpc55s69_evk_s/sfp/adalib/libgnarl.a(s-bbcppr.o)
 .text.system__bb__cpu_primitives__hardware_contextIP
                0x0000000000000000        0x4 /home/hedley/ada/NXP/LPC/LPC55S69/test3/Ada_Drivers_Library/embedded-runtimes/ravenscar-lpc55s69_evk_s/sfp/adalib/libgnarl.a(s-bbcppr.o)
 .text.primask  0x0000000000000000        0x8 /home/hedley/ada/NXP/LPC/LPC55S69/test3/Ada_Drivers_Library/embedded-runtimes/ravenscar-lpc55s69_evk_s/sfp/adalib/libgnarl.a(s-bbcppr.o)
 .text.system__bb__cpu_primitives__initialize_cpu
                0x0000000000000000       0x84 /home/hedley/ada/NXP/LPC/LPC55S69/test3/Ada_Drivers_Library/embedded-runtimes/ravenscar-lpc55s69_evk_s/sfp/adalib/libgnarl.a(s-bbcppr.o)
 .text.system__bb__cpu_primitives__context_switch
                0x0000000000000000       0x14 /home/hedley/ada/NXP/LPC/LPC55S69/test3/Ada_Drivers_Library/embedded-runtimes/ravenscar-lpc55s69_evk_s/sfp/adalib/libgnarl.a(s-bbcppr.o)
 .text.system__bb__cpu_primitives__get_context
                0x0000000000000000        0x8 /home/hedley/ada/NXP/LPC/LPC55S69/test3/Ada_Drivers_Library/embedded-runtimes/ravenscar-lpc55s69_evk_s/sfp/adalib/libgnarl.a(s-bbcppr.o)
 .text.system__bb__cpu_primitives__set_context
                0x0000000000000000        0x8 /home/hedley/ada/NXP/LPC/LPC55S69/test3/Ada_Drivers_Library/embedded-runtimes/ravenscar-lpc55s69_evk_s/sfp/adalib/libgnarl.a(s-bbcppr.o)
 .text.system__bb__cpu_primitives__initialize_context
                0x0000000000000000       0x50 /home/hedley/ada/NXP/LPC/LPC55S69/test3/Ada_Drivers_Library/embedded-runtimes/ravenscar-lpc55s69_evk_s/sfp/adalib/libgnarl.a(s-bbcppr.o)
 .text.system__bb__cpu_primitives__install_error_handlers
                0x0000000000000000       0x1c /home/hedley/ada/NXP/LPC/LPC55S69/test3/Ada_Drivers_Library/embedded-runtimes/ravenscar-lpc55s69_evk_s/sfp/adalib/libgnarl.a(s-bbcppr.o)
 .text.system__bb__cpu_primitives__disable_interrupts
                0x0000000000000000        0x4 /home/hedley/ada/NXP/LPC/LPC55S69/test3/Ada_Drivers_Library/embedded-runtimes/ravenscar-lpc55s69_evk_s/sfp/adalib/libgnarl.a(s-bbcppr.o)
 .text.system__bb__cpu_primitives__enable_interrupts
                0x0000000000000000       0x24 /home/hedley/ada/NXP/LPC/LPC55S69/test3/Ada_Drivers_Library/embedded-runtimes/ravenscar-lpc55s69_evk_s/sfp/adalib/libgnarl.a(s-bbcppr.o)
 .rodata.system__bb__cpu_primitives__bus_fault_vector
                0x0000000000000000        0x1 /home/hedley/ada/NXP/LPC/LPC55S69/test3/Ada_Drivers_Library/embedded-runtimes/ravenscar-lpc55s69_evk_s/sfp/adalib/libgnarl.a(s-bbcppr.o)
 .rodata.system__bb__cpu_primitives__hard_fault_vector
                0x0000000000000000        0x1 /home/hedley/ada/NXP/LPC/LPC55S69/test3/Ada_Drivers_Library/embedded-runtimes/ravenscar-lpc55s69_evk_s/sfp/adalib/libgnarl.a(s-bbcppr.o)
 .rodata.system__bb__cpu_primitives__has_os_extensions
                0x0000000000000000        0x1 /home/hedley/ada/NXP/LPC/LPC55S69/test3/Ada_Drivers_Library/embedded-runtimes/ravenscar-lpc55s69_evk_s/sfp/adalib/libgnarl.a(s-bbcppr.o)
 .rodata.system__bb__cpu_primitives__has_vtor
                0x0000000000000000        0x1 /home/hedley/ada/NXP/LPC/LPC55S69/test3/Ada_Drivers_Library/embedded-runtimes/ravenscar-lpc55s69_evk_s/sfp/adalib/libgnarl.a(s-bbcppr.o)
 .rodata.system__bb__cpu_primitives__interrupt_request_vector
                0x0000000000000000        0x1 /home/hedley/ada/NXP/LPC/LPC55S69/test3/Ada_Drivers_Library/embedded-runtimes/ravenscar-lpc55s69_evk_s/sfp/adalib/libgnarl.a(s-bbcppr.o)
 .rodata.system__bb__cpu_primitives__is_armv6m
                0x0000000000000000        0x1 /home/hedley/ada/NXP/LPC/LPC55S69/test3/Ada_Drivers_Library/embedded-runtimes/ravenscar-lpc55s69_evk_s/sfp/adalib/libgnarl.a(s-bbcppr.o)
 .rodata.system__bb__cpu_primitives__nl
                0x0000000000000000        0x2 /home/hedley/ada/NXP/LPC/LPC55S69/test3/Ada_Drivers_Library/embedded-runtimes/ravenscar-lpc55s69_evk_s/sfp/adalib/libgnarl.a(s-bbcppr.o)
 .rodata.system__bb__cpu_primitives__nmi_vector
                0x0000000000000000        0x1 /home/hedley/ada/NXP/LPC/LPC55S69/test3/Ada_Drivers_Library/embedded-runtimes/ravenscar-lpc55s69_evk_s/sfp/adalib/libgnarl.a(s-bbcppr.o)
 .rodata.system__bb__cpu_primitives__pend_sv_vector
                0x0000000000000000        0x1 /home/hedley/ada/NXP/LPC/LPC55S69/test3/Ada_Drivers_Library/embedded-runtimes/ravenscar-lpc55s69_evk_s/sfp/adalib/libgnarl.a(s-bbcppr.o)
 .rodata.system__bb__cpu_primitives__reset_vector
                0x0000000000000000        0x1 /home/hedley/ada/NXP/LPC/LPC55S69/test3/Ada_Drivers_Library/embedded-runtimes/ravenscar-lpc55s69_evk_s/sfp/adalib/libgnarl.a(s-bbcppr.o)
 .rodata.system__bb__cpu_primitives__sp_process
                0x0000000000000000        0x1 /home/hedley/ada/NXP/LPC/LPC55S69/test3/Ada_Drivers_Library/embedded-runtimes/ravenscar-lpc55s69_evk_s/sfp/adalib/libgnarl.a(s-bbcppr.o)
 .rodata.system__bb__cpu_primitives__sv_call_vector
                0x0000000000000000        0x1 /home/hedley/ada/NXP/LPC/LPC55S69/test3/Ada_Drivers_Library/embedded-runtimes/ravenscar-lpc55s69_evk_s/sfp/adalib/libgnarl.a(s-bbcppr.o)
 .rodata.system__bb__cpu_primitives__sys_tick_vector
                0x0000000000000000        0x1 /home/hedley/ada/NXP/LPC/LPC55S69/test3/Ada_Drivers_Library/embedded-runtimes/ravenscar-lpc55s69_evk_s/sfp/adalib/libgnarl.a(s-bbcppr.o)
 .rodata.system__bb__cpu_primitives__usage_fault_vector
                0x0000000000000000        0x1 /home/hedley/ada/NXP/LPC/LPC55S69/test3/Ada_Drivers_Library/embedded-runtimes/ravenscar-lpc55s69_evk_s/sfp/adalib/libgnarl.a(s-bbcppr.o)
 .text          0x0000000000000000        0x0 /home/hedley/ada/NXP/LPC/LPC55S69/test3/Ada_Drivers_Library/embedded-runtimes/ravenscar-lpc55s69_evk_s/sfp/adalib/libgnarl.a(s-bbinte.o)
 .data          0x0000000000000000        0x0 /home/hedley/ada/NXP/LPC/LPC55S69/test3/Ada_Drivers_Library/embedded-runtimes/ravenscar-lpc55s69_evk_s/sfp/adalib/libgnarl.a(s-bbinte.o)
 .bss           0x0000000000000000        0x0 /home/hedley/ada/NXP/LPC/LPC55S69/test3/Ada_Drivers_Library/embedded-runtimes/ravenscar-lpc55s69_evk_s/sfp/adalib/libgnarl.a(s-bbinte.o)
 .text.system__bb__interrupts__Tinterrupt_stacksBIP
                0x0000000000000000        0x4 /home/hedley/ada/NXP/LPC/LPC55S69/test3/Ada_Drivers_Library/embedded-runtimes/ravenscar-lpc55s69_evk_s/sfp/adalib/libgnarl.a(s-bbinte.o)
 .text.system__bb__interrupts__Tinterrupt_stack_tableBIP
                0x0000000000000000        0x4 /home/hedley/ada/NXP/LPC/LPC55S69/test3/Ada_Drivers_Library/embedded-runtimes/ravenscar-lpc55s69_evk_s/sfp/adalib/libgnarl.a(s-bbinte.o)
 .text.system__bb__interrupts__attach_handler
                0x0000000000000000       0x1c /home/hedley/ada/NXP/LPC/LPC55S69/test3/Ada_Drivers_Library/embedded-runtimes/ravenscar-lpc55s69_evk_s/sfp/adalib/libgnarl.a(s-bbinte.o)
 .text.system__bb__interrupts__current_interrupt
                0x0000000000000000       0x1c /home/hedley/ada/NXP/LPC/LPC55S69/test3/Ada_Drivers_Library/embedded-runtimes/ravenscar-lpc55s69_evk_s/sfp/adalib/libgnarl.a(s-bbinte.o)
 .text.system__bb__interrupts__within_interrupt_stack
                0x0000000000000000       0x40 /home/hedley/ada/NXP/LPC/LPC55S69/test3/Ada_Drivers_Library/embedded-runtimes/ravenscar-lpc55s69_evk_s/sfp/adalib/libgnarl.a(s-bbinte.o)
 .rodata.system__bb__interrupts__no_interrupt
                0x0000000000000000        0x4 /home/hedley/ada/NXP/LPC/LPC55S69/test3/Ada_Drivers_Library/embedded-runtimes/ravenscar-lpc55s69_evk_s/sfp/adalib/libgnarl.a(s-bbinte.o)
 .text          0x0000000000000000        0x0 /home/hedley/ada/NXP/LPC/LPC55S69/test3/Ada_Drivers_Library/embedded-runtimes/ravenscar-lpc55s69_evk_s/sfp/adalib/libgnarl.a(s-bbthqu.o)
 .data          0x0000000000000000        0x0 /home/hedley/ada/NXP/LPC/LPC55S69/test3/Ada_Drivers_Library/embedded-runtimes/ravenscar-lpc55s69_evk_s/sfp/adalib/libgnarl.a(s-bbthqu.o)
 .bss           0x0000000000000000        0x0 /home/hedley/ada/NXP/LPC/LPC55S69/test3/Ada_Drivers_Library/embedded-runtimes/ravenscar-lpc55s69_evk_s/sfp/adalib/libgnarl.a(s-bbthqu.o)
 .text.__gnat_context_switch_needed
                0x0000000000000000       0x18 /home/hedley/ada/NXP/LPC/LPC55S69/test3/Ada_Drivers_Library/embedded-runtimes/ravenscar-lpc55s69_evk_s/sfp/adalib/libgnarl.a(s-bbthqu.o)
 .text.system__bb__threads__queues__current_priority
                0x0000000000000000       0x20 /home/hedley/ada/NXP/LPC/LPC55S69/test3/Ada_Drivers_Library/embedded-runtimes/ravenscar-lpc55s69_evk_s/sfp/adalib/libgnarl.a(s-bbthqu.o)
 .text.system__bb__threads__queues__extract
                0x0000000000000000       0x28 /home/hedley/ada/NXP/LPC/LPC55S69/test3/Ada_Drivers_Library/embedded-runtimes/ravenscar-lpc55s69_evk_s/sfp/adalib/libgnarl.a(s-bbthqu.o)
 .text.system__bb__threads__queues__extract_first_alarm
                0x0000000000000000       0x24 /home/hedley/ada/NXP/LPC/LPC55S69/test3/Ada_Drivers_Library/embedded-runtimes/ravenscar-lpc55s69_evk_s/sfp/adalib/libgnarl.a(s-bbthqu.o)
 .text.system__bb__threads__queues__first_thread
                0x0000000000000000        0xc /home/hedley/ada/NXP/LPC/LPC55S69/test3/Ada_Drivers_Library/embedded-runtimes/ravenscar-lpc55s69_evk_s/sfp/adalib/libgnarl.a(s-bbthqu.o)
 .text.system__bb__threads__queues__get_next_alarm_time
                0x0000000000000000       0x24 /home/hedley/ada/NXP/LPC/LPC55S69/test3/Ada_Drivers_Library/embedded-runtimes/ravenscar-lpc55s69_evk_s/sfp/adalib/libgnarl.a(s-bbthqu.o)
 .text.system__bb__threads__queues__insert
                0x0000000000000000       0x88 /home/hedley/ada/NXP/LPC/LPC55S69/test3/Ada_Drivers_Library/embedded-runtimes/ravenscar-lpc55s69_evk_s/sfp/adalib/libgnarl.a(s-bbthqu.o)
 .text.system__bb__threads__queues__running_thread
                0x0000000000000000        0xc /home/hedley/ada/NXP/LPC/LPC55S69/test3/Ada_Drivers_Library/embedded-runtimes/ravenscar-lpc55s69_evk_s/sfp/adalib/libgnarl.a(s-bbthqu.o)
 .text          0x0000000000000000        0x0 /home/hedley/ada/NXP/LPC/LPC55S69/test3/Ada_Drivers_Library/embedded-runtimes/ravenscar-lpc55s69_evk_s/sfp/adalib/libgnarl.a(s-bbtime.o)
 .data          0x0000000000000000        0x0 /home/hedley/ada/NXP/LPC/LPC55S69/test3/Ada_Drivers_Library/embedded-runtimes/ravenscar-lpc55s69_evk_s/sfp/adalib/libgnarl.a(s-bbtime.o)
 .bss           0x0000000000000000        0x0 /home/hedley/ada/NXP/LPC/LPC55S69/test3/Ada_Drivers_Library/embedded-runtimes/ravenscar-lpc55s69_evk_s/sfp/adalib/libgnarl.a(s-bbtime.o)
 .text.system__bb__time__composite_execution_timeIP
                0x0000000000000000        0x4 /home/hedley/ada/NXP/LPC/LPC55S69/test3/Ada_Drivers_Library/embedded-runtimes/ravenscar-lpc55s69_evk_s/sfp/adalib/libgnarl.a(s-bbtime.o)
 .text.system__bb__time__composite_timeIP
                0x0000000000000000        0xc /home/hedley/ada/NXP/LPC/LPC55S69/test3/Ada_Drivers_Library/embedded-runtimes/ravenscar-lpc55s69_evk_s/sfp/adalib/libgnarl.a(s-bbtime.o)
 .text.system__bb__time__clock
                0x0000000000000000       0x5c /home/hedley/ada/NXP/LPC/LPC55S69/test3/Ada_Drivers_Library/embedded-runtimes/ravenscar-lpc55s69_evk_s/sfp/adalib/libgnarl.a(s-bbtime.o)
 .text.system__bb__time__epoch
                0x0000000000000000        0x8 /home/hedley/ada/NXP/LPC/LPC55S69/test3/Ada_Drivers_Library/embedded-runtimes/ravenscar-lpc55s69_evk_s/sfp/adalib/libgnarl.a(s-bbtime.o)
 .text.system__bb__time__get_next_timeout
                0x0000000000000000       0x40 /home/hedley/ada/NXP/LPC/LPC55S69/test3/Ada_Drivers_Library/embedded-runtimes/ravenscar-lpc55s69_evk_s/sfp/adalib/libgnarl.a(s-bbtime.o)
 .text.system__bb__time__Oconcat
                0x0000000000000000       0x18 /home/hedley/ada/NXP/LPC/LPC55S69/test3/Ada_Drivers_Library/embedded-runtimes/ravenscar-lpc55s69_evk_s/sfp/adalib/libgnarl.a(s-bbtime.o)
 .data.system__bb__time__alarm_lock
                0x0000000000000000        0x2 /home/hedley/ada/NXP/LPC/LPC55S69/test3/Ada_Drivers_Library/embedded-runtimes/ravenscar-lpc55s69_evk_s/sfp/adalib/libgnarl.a(s-bbtime.o)
 .rodata.system__bb__time__initial_composite_execution_time
                0x0000000000000000        0x8 /home/hedley/ada/NXP/LPC/LPC55S69/test3/Ada_Drivers_Library/embedded-runtimes/ravenscar-lpc55s69_evk_s/sfp/adalib/libgnarl.a(s-bbtime.o)
 .rodata.system__bb__time__periods_in_epoch
                0x0000000000000000        0x4 /home/hedley/ada/NXP/LPC/LPC55S69/test3/Ada_Drivers_Library/embedded-runtimes/ravenscar-lpc55s69_evk_s/sfp/adalib/libgnarl.a(s-bbtime.o)
 .rodata.system__bb__time__update_in_progress
                0x0000000000000000        0x4 /home/hedley/ada/NXP/LPC/LPC55S69/test3/Ada_Drivers_Library/embedded-runtimes/ravenscar-lpc55s69_evk_s/sfp/adalib/libgnarl.a(s-bbtime.o)
 .text          0x0000000000000000        0x0 /home/hedley/ada/NXP/LPC/LPC55S69/test3/Ada_Drivers_Library/embedded-runtimes/ravenscar-lpc55s69_evk_s/sfp/adalib/libgnarl.a(s-bcpcst.o)
 .data          0x0000000000000000        0x0 /home/hedley/ada/NXP/LPC/LPC55S69/test3/Ada_Drivers_Library/embedded-runtimes/ravenscar-lpc55s69_evk_s/sfp/adalib/libgnarl.a(s-bcpcst.o)
 .bss           0x0000000000000000        0x0 /home/hedley/ada/NXP/LPC/LPC55S69/test3/Ada_Drivers_Library/embedded-runtimes/ravenscar-lpc55s69_evk_s/sfp/adalib/libgnarl.a(s-bcpcst.o)
 .text          0x0000000000000000        0x0 /home/hedley/ada/NXP/LPC/LPC55S69/test3/Ada_Drivers_Library/embedded-runtimes/ravenscar-lpc55s69_evk_s/sfp/adalib/libgnarl.a(s-interr.o)
 .data          0x0000000000000000        0x0 /home/hedley/ada/NXP/LPC/LPC55S69/test3/Ada_Drivers_Library/embedded-runtimes/ravenscar-lpc55s69_evk_s/sfp/adalib/libgnarl.a(s-interr.o)
 .bss           0x0000000000000000        0x0 /home/hedley/ada/NXP/LPC/LPC55S69/test3/Ada_Drivers_Library/embedded-runtimes/ravenscar-lpc55s69_evk_s/sfp/adalib/libgnarl.a(s-interr.o)
 .text.system__interrupts__E3sIP
                0x0000000000000000        0x8 /home/hedley/ada/NXP/LPC/LPC55S69/test3/Ada_Drivers_Library/embedded-runtimes/ravenscar-lpc55s69_evk_s/sfp/adalib/libgnarl.a(s-interr.o)
 .text.system__interrupts__handler_itemIP
                0x0000000000000000        0x8 /home/hedley/ada/NXP/LPC/LPC55S69/test3/Ada_Drivers_Library/embedded-runtimes/ravenscar-lpc55s69_evk_s/sfp/adalib/libgnarl.a(s-interr.o)
 .text.system__interrupts__handler_arrayIP
                0x0000000000000000       0x28 /home/hedley/ada/NXP/LPC/LPC55S69/test3/Ada_Drivers_Library/embedded-runtimes/ravenscar-lpc55s69_evk_s/sfp/adalib/libgnarl.a(s-interr.o)
 .rodata.system__interrupts__default_interrupt_priority
                0x0000000000000000        0x4 /home/hedley/ada/NXP/LPC/LPC55S69/test3/Ada_Drivers_Library/embedded-runtimes/ravenscar-lpc55s69_evk_s/sfp/adalib/libgnarl.a(s-interr.o)
 .text          0x0000000000000000        0x0 /home/hedley/ada/NXP/LPC/LPC55S69/test3/Ada_Drivers_Library/embedded-runtimes/ravenscar-lpc55s69_evk_s/sfp/adalib/libgnarl.a(s-taprob.o)
 .data          0x0000000000000000        0x0 /home/hedley/ada/NXP/LPC/LPC55S69/test3/Ada_Drivers_Library/embedded-runtimes/ravenscar-lpc55s69_evk_s/sfp/adalib/libgnarl.a(s-taprob.o)
 .bss           0x0000000000000000        0x0 /home/hedley/ada/NXP/LPC/LPC55S69/test3/Ada_Drivers_Library/embedded-runtimes/ravenscar-lpc55s69_evk_s/sfp/adalib/libgnarl.a(s-taprob.o)
 .text.system__tasking__protected_objects__entry_bodyIP
                0x0000000000000000        0x8 /home/hedley/ada/NXP/LPC/LPC55S69/test3/Ada_Drivers_Library/embedded-runtimes/ravenscar-lpc55s69_evk_s/sfp/adalib/libgnarl.a(s-taprob.o)
 .rodata.system__tasking__protected_objects__null_po
                0x0000000000000000        0x4 /home/hedley/ada/NXP/LPC/LPC55S69/test3/Ada_Drivers_Library/embedded-runtimes/ravenscar-lpc55s69_evk_s/sfp/adalib/libgnarl.a(s-taprob.o)
 .text          0x0000000000000000        0x0 /home/hedley/ada/NXP/LPC/LPC55S69/test3/Ada_Drivers_Library/embedded-runtimes/ravenscar-lpc55s69_evk_s/sfp/adalib/libgnarl.a(s-tarest.o)
 .data          0x0000000000000000        0x0 /home/hedley/ada/NXP/LPC/LPC55S69/test3/Ada_Drivers_Library/embedded-runtimes/ravenscar-lpc55s69_evk_s/sfp/adalib/libgnarl.a(s-tarest.o)
 .bss           0x0000000000000000        0x0 /home/hedley/ada/NXP/LPC/LPC55S69/test3/Ada_Drivers_Library/embedded-runtimes/ravenscar-lpc55s69_evk_s/sfp/adalib/libgnarl.a(s-tarest.o)
 .text.system__tasking__restricted__stages__create_restricted_task__2
                0x0000000000000000       0xb0 /home/hedley/ada/NXP/LPC/LPC55S69/test3/Ada_Drivers_Library/embedded-runtimes/ravenscar-lpc55s69_evk_s/sfp/adalib/libgnarl.a(s-tarest.o)
 .text.system__tasking__restricted__stages__activate_restricted_tasks
                0x0000000000000000       0x20 /home/hedley/ada/NXP/LPC/LPC55S69/test3/Ada_Drivers_Library/embedded-runtimes/ravenscar-lpc55s69_evk_s/sfp/adalib/libgnarl.a(s-tarest.o)
 .text.system__tasking__restricted__stages__complete_restricted_activation
                0x0000000000000000        0x4 /home/hedley/ada/NXP/LPC/LPC55S69/test3/Ada_Drivers_Library/embedded-runtimes/ravenscar-lpc55s69_evk_s/sfp/adalib/libgnarl.a(s-tarest.o)
 .text.system__tasking__restricted__stages__complete_restricted_task
                0x0000000000000000       0x10 /home/hedley/ada/NXP/LPC/LPC55S69/test3/Ada_Drivers_Library/embedded-runtimes/ravenscar-lpc55s69_evk_s/sfp/adalib/libgnarl.a(s-tarest.o)
 .text.system__tasking__restricted__stages__create_restricted_task
                0x0000000000000000       0x64 /home/hedley/ada/NXP/LPC/LPC55S69/test3/Ada_Drivers_Library/embedded-runtimes/ravenscar-lpc55s69_evk_s/sfp/adalib/libgnarl.a(s-tarest.o)
 .text.system__tasking__restricted__stages__create_restricted_task_sequential
                0x0000000000000000       0x34 /home/hedley/ada/NXP/LPC/LPC55S69/test3/Ada_Drivers_Library/embedded-runtimes/ravenscar-lpc55s69_evk_s/sfp/adalib/libgnarl.a(s-tarest.o)
 .text.system__tasking__restricted__stages__finalize_global_tasks
                0x0000000000000000       0x10 /home/hedley/ada/NXP/LPC/LPC55S69/test3/Ada_Drivers_Library/embedded-runtimes/ravenscar-lpc55s69_evk_s/sfp/adalib/libgnarl.a(s-tarest.o)
 .text.system__tasking__restricted__stages__restricted_terminated
                0x0000000000000000       0x10 /home/hedley/ada/NXP/LPC/LPC55S69/test3/Ada_Drivers_Library/embedded-runtimes/ravenscar-lpc55s69_evk_s/sfp/adalib/libgnarl.a(s-tarest.o)
 .rodata.system__tasking__restricted__stages__create_restricted_task__2.str1.4
                0x0000000000000000       0x4a /home/hedley/ada/NXP/LPC/LPC55S69/test3/Ada_Drivers_Library/embedded-runtimes/ravenscar-lpc55s69_evk_s/sfp/adalib/libgnarl.a(s-tarest.o)
 .text          0x0000000000000000        0x0 /home/hedley/ada/NXP/LPC/LPC55S69/test3/Ada_Drivers_Library/embedded-runtimes/ravenscar-lpc55s69_evk_s/sfp/adalib/libgnarl.a(s-tasdeb.o)
 .data          0x0000000000000000        0x0 /home/hedley/ada/NXP/LPC/LPC55S69/test3/Ada_Drivers_Library/embedded-runtimes/ravenscar-lpc55s69_evk_s/sfp/adalib/libgnarl.a(s-tasdeb.o)
 .bss           0x0000000000000000        0x0 /home/hedley/ada/NXP/LPC/LPC55S69/test3/Ada_Drivers_Library/embedded-runtimes/ravenscar-lpc55s69_evk_s/sfp/adalib/libgnarl.a(s-tasdeb.o)
 .text.system__tasking__debug__add_task_id
                0x0000000000000000       0x3c /home/hedley/ada/NXP/LPC/LPC55S69/test3/Ada_Drivers_Library/embedded-runtimes/ravenscar-lpc55s69_evk_s/sfp/adalib/libgnarl.a(s-tasdeb.o)
 .data.system__tasking__debug_E
                0x0000000000000000        0x2 /home/hedley/ada/NXP/LPC/LPC55S69/test3/Ada_Drivers_Library/embedded-runtimes/ravenscar-lpc55s69_evk_s/sfp/adalib/libgnarl.a(s-tasdeb.o)
 .text          0x0000000000000000        0x0 /home/hedley/ada/NXP/LPC/LPC55S69/test3/Ada_Drivers_Library/embedded-runtimes/ravenscar-lpc55s69_evk_s/sfp/adalib/libgnarl.a(s-taskin.o)
 .data          0x0000000000000000        0x0 /home/hedley/ada/NXP/LPC/LPC55S69/test3/Ada_Drivers_Library/embedded-runtimes/ravenscar-lpc55s69_evk_s/sfp/adalib/libgnarl.a(s-taskin.o)
 .bss           0x0000000000000000        0x0 /home/hedley/ada/NXP/LPC/LPC55S69/test3/Ada_Drivers_Library/embedded-runtimes/ravenscar-lpc55s69_evk_s/sfp/adalib/libgnarl.a(s-taskin.o)
 .text.system__tasking__E5sIP
                0x0000000000000000        0x8 /home/hedley/ada/NXP/LPC/LPC55S69/test3/Ada_Drivers_Library/embedded-runtimes/ravenscar-lpc55s69_evk_s/sfp/adalib/libgnarl.a(s-taskin.o)
 .text.system__tasking__activation_chainIP
                0x0000000000000000        0x8 /home/hedley/ada/NXP/LPC/LPC55S69/test3/Ada_Drivers_Library/embedded-runtimes/ravenscar-lpc55s69_evk_s/sfp/adalib/libgnarl.a(s-taskin.o)
 .text.__gnat_get_secondary_stack
                0x0000000000000000       0x10 /home/hedley/ada/NXP/LPC/LPC55S69/test3/Ada_Drivers_Library/embedded-runtimes/ravenscar-lpc55s69_evk_s/sfp/adalib/libgnarl.a(s-taskin.o)
 .text.system__tasking__storage_size
                0x0000000000000000        0x8 /home/hedley/ada/NXP/LPC/LPC55S69/test3/Ada_Drivers_Library/embedded-runtimes/ravenscar-lpc55s69_evk_s/sfp/adalib/libgnarl.a(s-taskin.o)
 .rodata.system__tasking__idle_priority
                0x0000000000000000        0x4 /home/hedley/ada/NXP/LPC/LPC55S69/test3/Ada_Drivers_Library/embedded-runtimes/ravenscar-lpc55s69_evk_s/sfp/adalib/libgnarl.a(s-taskin.o)
 .rodata.system__tasking__library_task_level
                0x0000000000000000        0x4 /home/hedley/ada/NXP/LPC/LPC55S69/test3/Ada_Drivers_Library/embedded-runtimes/ravenscar-lpc55s69_evk_s/sfp/adalib/libgnarl.a(s-taskin.o)
 .rodata.system__tasking__null_task
                0x0000000000000000        0x4 /home/hedley/ada/NXP/LPC/LPC55S69/test3/Ada_Drivers_Library/embedded-runtimes/ravenscar-lpc55s69_evk_s/sfp/adalib/libgnarl.a(s-taskin.o)
 .rodata.system__tasking__task_statesN
                0x0000000000000000       0x22 /home/hedley/ada/NXP/LPC/LPC55S69/test3/Ada_Drivers_Library/embedded-runtimes/ravenscar-lpc55s69_evk_s/sfp/adalib/libgnarl.a(s-taskin.o)
 .rodata.system__tasking__task_statesS
                0x0000000000000000      0x130 /home/hedley/ada/NXP/LPC/LPC55S69/test3/Ada_Drivers_Library/embedded-runtimes/ravenscar-lpc55s69_evk_s/sfp/adalib/libgnarl.a(s-taskin.o)
 .text          0x0000000000000000        0x0 /home/hedley/ada/NXP/LPC/LPC55S69/test3/Ada_Drivers_Library/embedded-runtimes/ravenscar-lpc55s69_evk_s/sfp/adalib/libgnarl.a(s-tpobmu.o)
 .data          0x0000000000000000        0x0 /home/hedley/ada/NXP/LPC/LPC55S69/test3/Ada_Drivers_Library/embedded-runtimes/ravenscar-lpc55s69_evk_s/sfp/adalib/libgnarl.a(s-tpobmu.o)
 .bss           0x0000000000000000        0x0 /home/hedley/ada/NXP/LPC/LPC55S69/test3/Ada_Drivers_Library/embedded-runtimes/ravenscar-lpc55s69_evk_s/sfp/adalib/libgnarl.a(s-tpobmu.o)
 .text.system__tasking__protected_objects__multiprocessors__entry_call_listIP
                0x0000000000000000        0xc /home/hedley/ada/NXP/LPC/LPC55S69/test3/Ada_Drivers_Library/embedded-runtimes/ravenscar-lpc55s69_evk_s/sfp/adalib/libgnarl.a(s-tpobmu.o)
 .text.system__tasking__protected_objects__multiprocessors__served
                0x0000000000000000       0xd4 /home/hedley/ada/NXP/LPC/LPC55S69/test3/Ada_Drivers_Library/embedded-runtimes/ravenscar-lpc55s69_evk_s/sfp/adalib/libgnarl.a(s-tpobmu.o)
 .text          0x0000000000000000        0x0 /home/hedley/ada/NXP/LPC/LPC55S69/test3/Ada_Drivers_Library/embedded-runtimes/ravenscar-lpc55s69_evk_s/sfp/adalib/libgnarl.a(s-tposen.o)
 .data          0x0000000000000000        0x0 /home/hedley/ada/NXP/LPC/LPC55S69/test3/Ada_Drivers_Library/embedded-runtimes/ravenscar-lpc55s69_evk_s/sfp/adalib/libgnarl.a(s-tposen.o)
 .bss           0x0000000000000000        0x0 /home/hedley/ada/NXP/LPC/LPC55S69/test3/Ada_Drivers_Library/embedded-runtimes/ravenscar-lpc55s69_evk_s/sfp/adalib/libgnarl.a(s-tposen.o)
 .text.system__tasking__protected_objects__single_entry__protected_count_entry
                0x0000000000000000        0xc /home/hedley/ada/NXP/LPC/LPC55S69/test3/Ada_Drivers_Library/embedded-runtimes/ravenscar-lpc55s69_evk_s/sfp/adalib/libgnarl.a(s-tposen.o)
 .text.system__tasking__protected_objects__single_entry__protected_single_entry_caller
                0x0000000000000000        0x8 /home/hedley/ada/NXP/LPC/LPC55S69/test3/Ada_Drivers_Library/embedded-runtimes/ravenscar-lpc55s69_evk_s/sfp/adalib/libgnarl.a(s-tposen.o)
 .text.system__tasking__protected_objects__single_entry__unlock_entry
                0x0000000000000000        0x4 /home/hedley/ada/NXP/LPC/LPC55S69/test3/Ada_Drivers_Library/embedded-runtimes/ravenscar-lpc55s69_evk_s/sfp/adalib/libgnarl.a(s-tposen.o)
 .data.system__tasking__protected_objects__single_entry_E
                0x0000000000000000        0x2 /home/hedley/ada/NXP/LPC/LPC55S69/test3/Ada_Drivers_Library/embedded-runtimes/ravenscar-lpc55s69_evk_s/sfp/adalib/libgnarl.a(s-tposen.o)
 .text          0x0000000000000000        0x0 /home/hedley/ada/NXP/LPC/LPC55S69/test3/Ada_Drivers_Library/embedded-runtimes/ravenscar-lpc55s69_evk_s/sfp/adalib/libgnarl.a(s-bbprot.o)
 .data          0x0000000000000000        0x0 /home/hedley/ada/NXP/LPC/LPC55S69/test3/Ada_Drivers_Library/embedded-runtimes/ravenscar-lpc55s69_evk_s/sfp/adalib/libgnarl.a(s-bbprot.o)
 .bss           0x0000000000000000        0x0 /home/hedley/ada/NXP/LPC/LPC55S69/test3/Ada_Drivers_Library/embedded-runtimes/ravenscar-lpc55s69_evk_s/sfp/adalib/libgnarl.a(s-bbprot.o)
 .text.system__bb__protection__enter_kernel
                0x0000000000000000        0x4 /home/hedley/ada/NXP/LPC/LPC55S69/test3/Ada_Drivers_Library/embedded-runtimes/ravenscar-lpc55s69_evk_s/sfp/adalib/libgnarl.a(s-bbprot.o)
 .text          0x0000000000000000        0x0 /home/hedley/ada/NXP/LPC/LPC55S69/test3/Ada_Drivers_Library/embedded-runtimes/ravenscar-lpc55s69_evk_s/sfp/adalib/libgnarl.a(s-bbthre.o)
 .data          0x0000000000000000        0x0 /home/hedley/ada/NXP/LPC/LPC55S69/test3/Ada_Drivers_Library/embedded-runtimes/ravenscar-lpc55s69_evk_s/sfp/adalib/libgnarl.a(s-bbthre.o)
 .bss           0x0000000000000000        0x0 /home/hedley/ada/NXP/LPC/LPC55S69/test3/Ada_Drivers_Library/embedded-runtimes/ravenscar-lpc55s69_evk_s/sfp/adalib/libgnarl.a(s-bbthre.o)
 .text.system__bb__threads__thread_descriptorIP
                0x0000000000000000        0xc /home/hedley/ada/NXP/LPC/LPC55S69/test3/Ada_Drivers_Library/embedded-runtimes/ravenscar-lpc55s69_evk_s/sfp/adalib/libgnarl.a(s-bbthre.o)
 .text.system__bb__threads__get_affinity
                0x0000000000000000        0x8 /home/hedley/ada/NXP/LPC/LPC55S69/test3/Ada_Drivers_Library/embedded-runtimes/ravenscar-lpc55s69_evk_s/sfp/adalib/libgnarl.a(s-bbthre.o)
 .text.system__bb__threads__get_cpu
                0x0000000000000000        0xc /home/hedley/ada/NXP/LPC/LPC55S69/test3/Ada_Drivers_Library/embedded-runtimes/ravenscar-lpc55s69_evk_s/sfp/adalib/libgnarl.a(s-bbthre.o)
 .text.system__bb__threads__get_atcb
                0x0000000000000000        0xc /home/hedley/ada/NXP/LPC/LPC55S69/test3/Ada_Drivers_Library/embedded-runtimes/ravenscar-lpc55s69_evk_s/sfp/adalib/libgnarl.a(s-bbthre.o)
 .text.system__bb__threads__get_priority
                0x0000000000000000        0x4 /home/hedley/ada/NXP/LPC/LPC55S69/test3/Ada_Drivers_Library/embedded-runtimes/ravenscar-lpc55s69_evk_s/sfp/adalib/libgnarl.a(s-bbthre.o)
 .text.system__bb__threads__initialize_slave
                0x0000000000000000       0xa0 /home/hedley/ada/NXP/LPC/LPC55S69/test3/Ada_Drivers_Library/embedded-runtimes/ravenscar-lpc55s69_evk_s/sfp/adalib/libgnarl.a(s-bbthre.o)
 .text.system__bb__threads__set_atcb
                0x0000000000000000        0x4 /home/hedley/ada/NXP/LPC/LPC55S69/test3/Ada_Drivers_Library/embedded-runtimes/ravenscar-lpc55s69_evk_s/sfp/adalib/libgnarl.a(s-bbthre.o)
 .text.system__bb__threads__set_priority
                0x0000000000000000       0x1c /home/hedley/ada/NXP/LPC/LPC55S69/test3/Ada_Drivers_Library/embedded-runtimes/ravenscar-lpc55s69_evk_s/sfp/adalib/libgnarl.a(s-bbthre.o)
 .text.system__bb__threads__thread_self
                0x0000000000000000        0xc /home/hedley/ada/NXP/LPC/LPC55S69/test3/Ada_Drivers_Library/embedded-runtimes/ravenscar-lpc55s69_evk_s/sfp/adalib/libgnarl.a(s-bbthre.o)
 .rodata.system__bb__threads__null_thread_id
                0x0000000000000000        0x4 /home/hedley/ada/NXP/LPC/LPC55S69/test3/Ada_Drivers_Library/embedded-runtimes/ravenscar-lpc55s69_evk_s/sfp/adalib/libgnarl.a(s-bbthre.o)
 .rodata.system__bb__threads__thread_statesN
                0x0000000000000000        0x4 /home/hedley/ada/NXP/LPC/LPC55S69/test3/Ada_Drivers_Library/embedded-runtimes/ravenscar-lpc55s69_evk_s/sfp/adalib/libgnarl.a(s-bbthre.o)
 .rodata.system__bb__threads__thread_statesS
                0x0000000000000000       0x18 /home/hedley/ada/NXP/LPC/LPC55S69/test3/Ada_Drivers_Library/embedded-runtimes/ravenscar-lpc55s69_evk_s/sfp/adalib/libgnarl.a(s-bbthre.o)
 .text          0x0000000000000000        0x0 /home/hedley/ada/NXP/LPC/LPC55S69/test3/Ada_Drivers_Library/embedded-runtimes/ravenscar-lpc55s69_evk_s/sfp/adalib/libgnarl.a(s-bbtiev.o)
 .data          0x0000000000000000        0x0 /home/hedley/ada/NXP/LPC/LPC55S69/test3/Ada_Drivers_Library/embedded-runtimes/ravenscar-lpc55s69_evk_s/sfp/adalib/libgnarl.a(s-bbtiev.o)
 .bss           0x0000000000000000        0x0 /home/hedley/ada/NXP/LPC/LPC55S69/test3/Ada_Drivers_Library/embedded-runtimes/ravenscar-lpc55s69_evk_s/sfp/adalib/libgnarl.a(s-bbtiev.o)
 .text.system__bb__timing_events___size
                0x0000000000000000        0x8 /home/hedley/ada/NXP/LPC/LPC55S69/test3/Ada_Drivers_Library/embedded-runtimes/ravenscar-lpc55s69_evk_s/sfp/adalib/libgnarl.a(s-bbtiev.o)
 .text.system__bb__timing_events__time_of_event
                0x0000000000000000       0x10 /home/hedley/ada/NXP/LPC/LPC55S69/test3/Ada_Drivers_Library/embedded-runtimes/ravenscar-lpc55s69_evk_s/sfp/adalib/libgnarl.a(s-bbtiev.o)
 .text.system__bb__timing_events__set_handler
                0x0000000000000000       0xa4 /home/hedley/ada/NXP/LPC/LPC55S69/test3/Ada_Drivers_Library/embedded-runtimes/ravenscar-lpc55s69_evk_s/sfp/adalib/libgnarl.a(s-bbtiev.o)
 .text.system__bb__timing_events__cancel_handler
                0x0000000000000000       0x5c /home/hedley/ada/NXP/LPC/LPC55S69/test3/Ada_Drivers_Library/embedded-runtimes/ravenscar-lpc55s69_evk_s/sfp/adalib/libgnarl.a(s-bbtiev.o)
 .text.system__bb__timing_events__timing_eventIP
                0x0000000000000000       0x1c /home/hedley/ada/NXP/LPC/LPC55S69/test3/Ada_Drivers_Library/embedded-runtimes/ravenscar-lpc55s69_evk_s/sfp/adalib/libgnarl.a(s-bbtiev.o)
 .text.system__bb__timing_events__get_next_timeout
                0x0000000000000000       0x24 /home/hedley/ada/NXP/LPC/LPC55S69/test3/Ada_Drivers_Library/embedded-runtimes/ravenscar-lpc55s69_evk_s/sfp/adalib/libgnarl.a(s-bbtiev.o)
 .data.system__bb__timing_events_E
                0x0000000000000000        0x2 /home/hedley/ada/NXP/LPC/LPC55S69/test3/Ada_Drivers_Library/embedded-runtimes/ravenscar-lpc55s69_evk_s/sfp/adalib/libgnarl.a(s-bbtiev.o)
 .rodata.system__bb__timing_events__timing_eventB10s
                0x0000000000000000       0x1c /home/hedley/ada/NXP/LPC/LPC55S69/test3/Ada_Drivers_Library/embedded-runtimes/ravenscar-lpc55s69_evk_s/sfp/adalib/libgnarl.a(s-bbtiev.o)
 .rodata.system__bb__timing_events__timing_eventE6s
                0x0000000000000000       0x25 /home/hedley/ada/NXP/LPC/LPC55S69/test3/Ada_Drivers_Library/embedded-runtimes/ravenscar-lpc55s69_evk_s/sfp/adalib/libgnarl.a(s-bbtiev.o)
 .rodata.system__bb__timing_events__timing_eventP
                0x0000000000000000        0x4 /home/hedley/ada/NXP/LPC/LPC55S69/test3/Ada_Drivers_Library/embedded-runtimes/ravenscar-lpc55s69_evk_s/sfp/adalib/libgnarl.a(s-bbtiev.o)
 .rodata.system__bb__timing_events__timing_eventR8s
                0x0000000000000000        0x4 /home/hedley/ada/NXP/LPC/LPC55S69/test3/Ada_Drivers_Library/embedded-runtimes/ravenscar-lpc55s69_evk_s/sfp/adalib/libgnarl.a(s-bbtiev.o)
 .rodata.system__bb__timing_events__timing_eventR8s___UNC
                0x0000000000000000        0xc /home/hedley/ada/NXP/LPC/LPC55S69/test3/Ada_Drivers_Library/embedded-runtimes/ravenscar-lpc55s69_evk_s/sfp/adalib/libgnarl.a(s-bbtiev.o)
 .rodata.system__bb__timing_events__timing_eventT
                0x0000000000000000       0x1c /home/hedley/ada/NXP/LPC/LPC55S69/test3/Ada_Drivers_Library/embedded-runtimes/ravenscar-lpc55s69_evk_s/sfp/adalib/libgnarl.a(s-bbtiev.o)
 .rodata.system__bb__timing_events__timing_eventY
                0x0000000000000000        0x4 /home/hedley/ada/NXP/LPC/LPC55S69/test3/Ada_Drivers_Library/embedded-runtimes/ravenscar-lpc55s69_evk_s/sfp/adalib/libgnarl.a(s-bbtiev.o)
 .text          0x0000000000000000        0x0 /home/hedley/ada/NXP/LPC/LPC55S69/test3/Ada_Drivers_Library/embedded-runtimes/ravenscar-lpc55s69_evk_s/sfp/adalib/libgnarl.a(s-taprop.o)
 .data          0x0000000000000000        0x0 /home/hedley/ada/NXP/LPC/LPC55S69/test3/Ada_Drivers_Library/embedded-runtimes/ravenscar-lpc55s69_evk_s/sfp/adalib/libgnarl.a(s-taprop.o)
 .bss           0x0000000000000000        0x0 /home/hedley/ada/NXP/LPC/LPC55S69/test3/Ada_Drivers_Library/embedded-runtimes/ravenscar-lpc55s69_evk_s/sfp/adalib/libgnarl.a(s-taprop.o)
 .text.system__task_primitives__operations__Tidle_stacksBIP
                0x0000000000000000        0x4 /home/hedley/ada/NXP/LPC/LPC55S69/test3/Ada_Drivers_Library/embedded-runtimes/ravenscar-lpc55s69_evk_s/sfp/adalib/libgnarl.a(s-taprop.o)
 .text.system__task_primitives__operations__Tidle_stacks_tableBIP
                0x0000000000000000        0x4 /home/hedley/ada/NXP/LPC/LPC55S69/test3/Ada_Drivers_Library/embedded-runtimes/ravenscar-lpc55s69_evk_s/sfp/adalib/libgnarl.a(s-taprop.o)
 .text.system__task_primitives__operations__Tidle_tasksBIP
                0x0000000000000000        0x4 /home/hedley/ada/NXP/LPC/LPC55S69/test3/Ada_Drivers_Library/embedded-runtimes/ravenscar-lpc55s69_evk_s/sfp/adalib/libgnarl.a(s-taprop.o)
 .text.system__task_primitives__operations__self
                0x0000000000000000        0xc /home/hedley/ada/NXP/LPC/LPC55S69/test3/Ada_Drivers_Library/embedded-runtimes/ravenscar-lpc55s69_evk_s/sfp/adalib/libgnarl.a(s-taprop.o)
 .text.system__task_primitives__operations__sleep
                0x0000000000000000        0x4 /home/hedley/ada/NXP/LPC/LPC55S69/test3/Ada_Drivers_Library/embedded-runtimes/ravenscar-lpc55s69_evk_s/sfp/adalib/libgnarl.a(s-taprop.o)
 .text.system__task_primitives__operations__delay_until
                0x0000000000000000       0x1c /home/hedley/ada/NXP/LPC/LPC55S69/test3/Ada_Drivers_Library/embedded-runtimes/ravenscar-lpc55s69_evk_s/sfp/adalib/libgnarl.a(s-taprop.o)
 .text.system__task_primitives__operations__monotonic_clock
                0x0000000000000000       0x60 /home/hedley/ada/NXP/LPC/LPC55S69/test3/Ada_Drivers_Library/embedded-runtimes/ravenscar-lpc55s69_evk_s/sfp/adalib/libgnarl.a(s-taprop.o)
 .text.system__task_primitives__operations__wakeup
                0x0000000000000000        0x8 /home/hedley/ada/NXP/LPC/LPC55S69/test3/Ada_Drivers_Library/embedded-runtimes/ravenscar-lpc55s69_evk_s/sfp/adalib/libgnarl.a(s-taprop.o)
 .text.system__task_primitives__operations__set_priority
                0x0000000000000000       0x18 /home/hedley/ada/NXP/LPC/LPC55S69/test3/Ada_Drivers_Library/embedded-runtimes/ravenscar-lpc55s69_evk_s/sfp/adalib/libgnarl.a(s-taprop.o)
 .text.system__task_primitives__operations__get_priority
                0x0000000000000000        0x8 /home/hedley/ada/NXP/LPC/LPC55S69/test3/Ada_Drivers_Library/embedded-runtimes/ravenscar-lpc55s69_evk_s/sfp/adalib/libgnarl.a(s-taprop.o)
 .text.system__task_primitives__operations__get_affinity
                0x0000000000000000        0xc /home/hedley/ada/NXP/LPC/LPC55S69/test3/Ada_Drivers_Library/embedded-runtimes/ravenscar-lpc55s69_evk_s/sfp/adalib/libgnarl.a(s-taprop.o)
 .text.system__task_primitives__operations__get_cpu
                0x0000000000000000       0x10 /home/hedley/ada/NXP/LPC/LPC55S69/test3/Ada_Drivers_Library/embedded-runtimes/ravenscar-lpc55s69_evk_s/sfp/adalib/libgnarl.a(s-taprop.o)
 .text.system__task_primitives__operations__get_thread_id
                0x0000000000000000        0x8 /home/hedley/ada/NXP/LPC/LPC55S69/test3/Ada_Drivers_Library/embedded-runtimes/ravenscar-lpc55s69_evk_s/sfp/adalib/libgnarl.a(s-taprop.o)
 .text.system__task_primitives__operations__initialize_tcb
                0x0000000000000000        0x4 /home/hedley/ada/NXP/LPC/LPC55S69/test3/Ada_Drivers_Library/embedded-runtimes/ravenscar-lpc55s69_evk_s/sfp/adalib/libgnarl.a(s-taprop.o)
 .text.system__task_primitives__operations__create_task
                0x0000000000000000       0x34 /home/hedley/ada/NXP/LPC/LPC55S69/test3/Ada_Drivers_Library/embedded-runtimes/ravenscar-lpc55s69_evk_s/sfp/adalib/libgnarl.a(s-taprop.o)
 .text.__gnat_initialize_slave
                0x0000000000000000       0x34 /home/hedley/ada/NXP/LPC/LPC55S69/test3/Ada_Drivers_Library/embedded-runtimes/ravenscar-lpc55s69_evk_s/sfp/adalib/libgnarl.a(s-taprop.o)
 .text.system__task_primitives__operations__initialize
                0x0000000000000000       0xac /home/hedley/ada/NXP/LPC/LPC55S69/test3/Ada_Drivers_Library/embedded-runtimes/ravenscar-lpc55s69_evk_s/sfp/adalib/libgnarl.a(s-taprop.o)
 .text.system__task_primitives__operations__is_task_context
                0x0000000000000000       0x14 /home/hedley/ada/NXP/LPC/LPC55S69/test3/Ada_Drivers_Library/embedded-runtimes/ravenscar-lpc55s69_evk_s/sfp/adalib/libgnarl.a(s-taprop.o)
 .rodata.system__task_primitives__operations__idle_stack_size
                0x0000000000000000        0x4 /home/hedley/ada/NXP/LPC/LPC55S69/test3/Ada_Drivers_Library/embedded-runtimes/ravenscar-lpc55s69_evk_s/sfp/adalib/libgnarl.a(s-taprop.o)
 .text          0x0000000000000000        0x0 /home/hedley/ada/NXP/LPC/LPC55S69/test3/Ada_Drivers_Library/embedded-runtimes/ravenscar-lpc55s69_evk_s/sfp/adalib/libgnat.a(a-elchha.o)
 .data          0x0000000000000000        0x0 /home/hedley/ada/NXP/LPC/LPC55S69/test3/Ada_Drivers_Library/embedded-runtimes/ravenscar-lpc55s69_evk_s/sfp/adalib/libgnat.a(a-elchha.o)
 .bss           0x0000000000000000        0x0 /home/hedley/ada/NXP/LPC/LPC55S69/test3/Ada_Drivers_Library/embedded-runtimes/ravenscar-lpc55s69_evk_s/sfp/adalib/libgnat.a(a-elchha.o)
 .data.ada__exceptions__last_chance_handler_E
                0x0000000000000000        0x2 /home/hedley/ada/NXP/LPC/LPC55S69/test3/Ada_Drivers_Library/embedded-runtimes/ravenscar-lpc55s69_evk_s/sfp/adalib/libgnat.a(a-elchha.o)
 .text          0x0000000000000000        0x0 /home/hedley/ada/NXP/LPC/LPC55S69/test3/Ada_Drivers_Library/embedded-runtimes/ravenscar-lpc55s69_evk_s/sfp/adalib/libgnat.a(g-io.o)
 .data          0x0000000000000000        0x0 /home/hedley/ada/NXP/LPC/LPC55S69/test3/Ada_Drivers_Library/embedded-runtimes/ravenscar-lpc55s69_evk_s/sfp/adalib/libgnat.a(g-io.o)
 .bss           0x0000000000000000        0x0 /home/hedley/ada/NXP/LPC/LPC55S69/test3/Ada_Drivers_Library/embedded-runtimes/ravenscar-lpc55s69_evk_s/sfp/adalib/libgnat.a(g-io.o)
 .data.gnat__io_E
                0x0000000000000000        0x2 /home/hedley/ada/NXP/LPC/LPC55S69/test3/Ada_Drivers_Library/embedded-runtimes/ravenscar-lpc55s69_evk_s/sfp/adalib/libgnat.a(g-io.o)
 .data          0x0000000000000000        0x0 /home/hedley/ada/NXP/LPC/LPC55S69/test3/Ada_Drivers_Library/embedded-runtimes/ravenscar-lpc55s69_evk_s/sfp/adalib/libgnat.a(handler.o)
 .bss           0x0000000000000000        0x0 /home/hedley/ada/NXP/LPC/LPC55S69/test3/Ada_Drivers_Library/embedded-runtimes/ravenscar-lpc55s69_evk_s/sfp/adalib/libgnat.a(handler.o)
 .text          0x0000000000000000        0x0 /home/hedley/ada/NXP/LPC/LPC55S69/test3/Ada_Drivers_Library/embedded-runtimes/ravenscar-lpc55s69_evk_s/sfp/adalib/libgnat.a(s-assert.o)
 .data          0x0000000000000000        0x0 /home/hedley/ada/NXP/LPC/LPC55S69/test3/Ada_Drivers_Library/embedded-runtimes/ravenscar-lpc55s69_evk_s/sfp/adalib/libgnat.a(s-assert.o)
 .bss           0x0000000000000000        0x0 /home/hedley/ada/NXP/LPC/LPC55S69/test3/Ada_Drivers_Library/embedded-runtimes/ravenscar-lpc55s69_evk_s/sfp/adalib/libgnat.a(s-assert.o)
 .data.system__assertions_E
                0x0000000000000000        0x2 /home/hedley/ada/NXP/LPC/LPC55S69/test3/Ada_Drivers_Library/embedded-runtimes/ravenscar-lpc55s69_evk_s/sfp/adalib/libgnat.a(s-assert.o)
 .data.system__assertions__assert_failure
                0x0000000000000000       0x18 /home/hedley/ada/NXP/LPC/LPC55S69/test3/Ada_Drivers_Library/embedded-runtimes/ravenscar-lpc55s69_evk_s/sfp/adalib/libgnat.a(s-assert.o)
 .rodata.system__assertions__R2s
                0x0000000000000000        0x4 /home/hedley/ada/NXP/LPC/LPC55S69/test3/Ada_Drivers_Library/embedded-runtimes/ravenscar-lpc55s69_evk_s/sfp/adalib/libgnat.a(s-assert.o)
 .rodata.system__assertions__assert_failureE
                0x0000000000000000       0x21 /home/hedley/ada/NXP/LPC/LPC55S69/test3/Ada_Drivers_Library/embedded-runtimes/ravenscar-lpc55s69_evk_s/sfp/adalib/libgnat.a(s-assert.o)
 .text          0x0000000000000000        0x0 /home/hedley/ada/NXP/LPC/LPC55S69/test3/Ada_Drivers_Library/embedded-runtimes/ravenscar-lpc55s69_evk_s/sfp/adalib/libgnat.a(s-macres.o)
 .data          0x0000000000000000        0x0 /home/hedley/ada/NXP/LPC/LPC55S69/test3/Ada_Drivers_Library/embedded-runtimes/ravenscar-lpc55s69_evk_s/sfp/adalib/libgnat.a(s-macres.o)
 .bss           0x0000000000000000        0x0 /home/hedley/ada/NXP/LPC/LPC55S69/test3/Ada_Drivers_Library/embedded-runtimes/ravenscar-lpc55s69_evk_s/sfp/adalib/libgnat.a(s-macres.o)
 .text.abort    0x0000000000000000       0x10 /home/hedley/ada/NXP/LPC/LPC55S69/test3/Ada_Drivers_Library/embedded-runtimes/ravenscar-lpc55s69_evk_s/sfp/adalib/libgnat.a(s-macres.o)
 .data.system__machine_reset_E
                0x0000000000000000        0x2 /home/hedley/ada/NXP/LPC/LPC55S69/test3/Ada_Drivers_Library/embedded-runtimes/ravenscar-lpc55s69_evk_s/sfp/adalib/libgnat.a(s-macres.o)
 .text          0x0000000000000000        0x0 /home/hedley/ada/NXP/LPC/LPC55S69/test3/Ada_Drivers_Library/embedded-runtimes/ravenscar-lpc55s69_evk_s/sfp/adalib/libgnat.a(s-memcop.o)
 .data          0x0000000000000000        0x0 /home/hedley/ada/NXP/LPC/LPC55S69/test3/Ada_Drivers_Library/embedded-runtimes/ravenscar-lpc55s69_evk_s/sfp/adalib/libgnat.a(s-memcop.o)
 .bss           0x0000000000000000        0x0 /home/hedley/ada/NXP/LPC/LPC55S69/test3/Ada_Drivers_Library/embedded-runtimes/ravenscar-lpc55s69_evk_s/sfp/adalib/libgnat.a(s-memcop.o)
 .data.system__memory_copy_E
                0x0000000000000000        0x2 /home/hedley/ada/NXP/LPC/LPC55S69/test3/Ada_Drivers_Library/embedded-runtimes/ravenscar-lpc55s69_evk_s/sfp/adalib/libgnat.a(s-memcop.o)
 .text          0x0000000000000000        0x0 /home/hedley/ada/NXP/LPC/LPC55S69/test3/Ada_Drivers_Library/embedded-runtimes/ravenscar-lpc55s69_evk_s/sfp/adalib/libgnat.a(s-memset.o)
 .data          0x0000000000000000        0x0 /home/hedley/ada/NXP/LPC/LPC55S69/test3/Ada_Drivers_Library/embedded-runtimes/ravenscar-lpc55s69_evk_s/sfp/adalib/libgnat.a(s-memset.o)
 .bss           0x0000000000000000        0x0 /home/hedley/ada/NXP/LPC/LPC55S69/test3/Ada_Drivers_Library/embedded-runtimes/ravenscar-lpc55s69_evk_s/sfp/adalib/libgnat.a(s-memset.o)
 .data.system__memory_set_E
                0x0000000000000000        0x2 /home/hedley/ada/NXP/LPC/LPC55S69/test3/Ada_Drivers_Library/embedded-runtimes/ravenscar-lpc55s69_evk_s/sfp/adalib/libgnat.a(s-memset.o)
 .text          0x0000000000000000        0x0 /home/hedley/ada/NXP/LPC/LPC55S69/test3/Ada_Drivers_Library/embedded-runtimes/ravenscar-lpc55s69_evk_s/sfp/adalib/libgnat.a(s-parame.o)
 .data          0x0000000000000000        0x0 /home/hedley/ada/NXP/LPC/LPC55S69/test3/Ada_Drivers_Library/embedded-runtimes/ravenscar-lpc55s69_evk_s/sfp/adalib/libgnat.a(s-parame.o)
 .bss           0x0000000000000000        0x0 /home/hedley/ada/NXP/LPC/LPC55S69/test3/Ada_Drivers_Library/embedded-runtimes/ravenscar-lpc55s69_evk_s/sfp/adalib/libgnat.a(s-parame.o)
 .data.system__parameters_E
                0x0000000000000000        0x2 /home/hedley/ada/NXP/LPC/LPC55S69/test3/Ada_Drivers_Library/embedded-runtimes/ravenscar-lpc55s69_evk_s/sfp/adalib/libgnat.a(s-parame.o)
 .rodata.system__parameters__c_malloc_linkname
                0x0000000000000000        0xd /home/hedley/ada/NXP/LPC/LPC55S69/test3/Ada_Drivers_Library/embedded-runtimes/ravenscar-lpc55s69_evk_s/sfp/adalib/libgnat.a(s-parame.o)
 .rodata.system__parameters__default_stack_size
                0x0000000000000000        0x4 /home/hedley/ada/NXP/LPC/LPC55S69/test3/Ada_Drivers_Library/embedded-runtimes/ravenscar-lpc55s69_evk_s/sfp/adalib/libgnat.a(s-parame.o)
 .rodata.system__parameters__garbage_collected
                0x0000000000000000        0x1 /home/hedley/ada/NXP/LPC/LPC55S69/test3/Ada_Drivers_Library/embedded-runtimes/ravenscar-lpc55s69_evk_s/sfp/adalib/libgnat.a(s-parame.o)
 .rodata.system__parameters__minimum_stack_size
                0x0000000000000000        0x4 /home/hedley/ada/NXP/LPC/LPC55S69/test3/Ada_Drivers_Library/embedded-runtimes/ravenscar-lpc55s69_evk_s/sfp/adalib/libgnat.a(s-parame.o)
 .rodata.system__parameters__no_abort
                0x0000000000000000        0x1 /home/hedley/ada/NXP/LPC/LPC55S69/test3/Ada_Drivers_Library/embedded-runtimes/ravenscar-lpc55s69_evk_s/sfp/adalib/libgnat.a(s-parame.o)
 .rodata.system__parameters__runtime_default_sec_stack_size
                0x0000000000000000        0x4 /home/hedley/ada/NXP/LPC/LPC55S69/test3/Ada_Drivers_Library/embedded-runtimes/ravenscar-lpc55s69_evk_s/sfp/adalib/libgnat.a(s-parame.o)
 .rodata.system__parameters__single_lock
                0x0000000000000000        0x1 /home/hedley/ada/NXP/LPC/LPC55S69/test3/Ada_Drivers_Library/embedded-runtimes/ravenscar-lpc55s69_evk_s/sfp/adalib/libgnat.a(s-parame.o)
 .rodata.system__parameters__stack_grows_down
                0x0000000000000000        0x1 /home/hedley/ada/NXP/LPC/LPC55S69/test3/Ada_Drivers_Library/embedded-runtimes/ravenscar-lpc55s69_evk_s/sfp/adalib/libgnat.a(s-parame.o)
 .rodata.system__parameters__unspecified_size
                0x0000000000000000        0x4 /home/hedley/ada/NXP/LPC/LPC55S69/test3/Ada_Drivers_Library/embedded-runtimes/ravenscar-lpc55s69_evk_s/sfp/adalib/libgnat.a(s-parame.o)
 .text          0x0000000000000000        0x0 /home/hedley/ada/NXP/LPC/LPC55S69/test3/Ada_Drivers_Library/embedded-runtimes/ravenscar-lpc55s69_evk_s/sfp/adalib/libgnat.a(s-secsta.o)
 .data          0x0000000000000000        0x0 /home/hedley/ada/NXP/LPC/LPC55S69/test3/Ada_Drivers_Library/embedded-runtimes/ravenscar-lpc55s69_evk_s/sfp/adalib/libgnat.a(s-secsta.o)
 .bss           0x0000000000000000        0x0 /home/hedley/ada/NXP/LPC/LPC55S69/test3/Ada_Drivers_Library/embedded-runtimes/ravenscar-lpc55s69_evk_s/sfp/adalib/libgnat.a(s-secsta.o)
 .text.system__secondary_stack__memoryIP
                0x0000000000000000        0x4 /home/hedley/ada/NXP/LPC/LPC55S69/test3/Ada_Drivers_Library/embedded-runtimes/ravenscar-lpc55s69_evk_s/sfp/adalib/libgnat.a(s-secsta.o)
 .text.system__secondary_stack__ss_allocate
                0x0000000000000000       0x60 /home/hedley/ada/NXP/LPC/LPC55S69/test3/Ada_Drivers_Library/embedded-runtimes/ravenscar-lpc55s69_evk_s/sfp/adalib/libgnat.a(s-secsta.o)
 .text.system__secondary_stack__ss_get_max
                0x0000000000000000       0x10 /home/hedley/ada/NXP/LPC/LPC55S69/test3/Ada_Drivers_Library/embedded-runtimes/ravenscar-lpc55s69_evk_s/sfp/adalib/libgnat.a(s-secsta.o)
 .text.system__secondary_stack__ss_mark
                0x0000000000000000        0xc /home/hedley/ada/NXP/LPC/LPC55S69/test3/Ada_Drivers_Library/embedded-runtimes/ravenscar-lpc55s69_evk_s/sfp/adalib/libgnat.a(s-secsta.o)
 .text.system__secondary_stack__ss_release
                0x0000000000000000        0xc /home/hedley/ada/NXP/LPC/LPC55S69/test3/Ada_Drivers_Library/embedded-runtimes/ravenscar-lpc55s69_evk_s/sfp/adalib/libgnat.a(s-secsta.o)
 .bss.system__secondary_stack__ss_pool
                0x0000000000000000        0x4 /home/hedley/ada/NXP/LPC/LPC55S69/test3/Ada_Drivers_Library/embedded-runtimes/ravenscar-lpc55s69_evk_s/sfp/adalib/libgnat.a(s-secsta.o)
 .data.system__secondary_stack_E
                0x0000000000000000        0x2 /home/hedley/ada/NXP/LPC/LPC55S69/test3/Ada_Drivers_Library/embedded-runtimes/ravenscar-lpc55s69_evk_s/sfp/adalib/libgnat.a(s-secsta.o)
 .text          0x0000000000000000        0x0 /home/hedley/ada/NXP/LPC/LPC55S69/test3/Ada_Drivers_Library/embedded-runtimes/ravenscar-lpc55s69_evk_s/sfp/adalib/libgnat.a(s-textio.o)
 .data          0x0000000000000000        0x0 /home/hedley/ada/NXP/LPC/LPC55S69/test3/Ada_Drivers_Library/embedded-runtimes/ravenscar-lpc55s69_evk_s/sfp/adalib/libgnat.a(s-textio.o)
 .bss           0x0000000000000000        0x0 /home/hedley/ada/NXP/LPC/LPC55S69/test3/Ada_Drivers_Library/embedded-runtimes/ravenscar-lpc55s69_evk_s/sfp/adalib/libgnat.a(s-textio.o)
 .text.system__text_io__is_rx_ready
                0x0000000000000000        0x4 /home/hedley/ada/NXP/LPC/LPC55S69/test3/Ada_Drivers_Library/embedded-runtimes/ravenscar-lpc55s69_evk_s/sfp/adalib/libgnat.a(s-textio.o)
 .text.system__text_io__get
                0x0000000000000000        0x4 /home/hedley/ada/NXP/LPC/LPC55S69/test3/Ada_Drivers_Library/embedded-runtimes/ravenscar-lpc55s69_evk_s/sfp/adalib/libgnat.a(s-textio.o)
 .data.system__text_io_E
                0x0000000000000000        0x2 /home/hedley/ada/NXP/LPC/LPC55S69/test3/Ada_Drivers_Library/embedded-runtimes/ravenscar-lpc55s69_evk_s/sfp/adalib/libgnat.a(s-textio.o)
 .data          0x0000000000000000        0x0 /home/hedley/ada/NXP/LPC/LPC55S69/test3/Ada_Drivers_Library/embedded-runtimes/ravenscar-lpc55s69_evk_s/sfp/adalib/libgnat.a(start-common.o)
 .bss           0x0000000000000000        0x0 /home/hedley/ada/NXP/LPC/LPC55S69/test3/Ada_Drivers_Library/embedded-runtimes/ravenscar-lpc55s69_evk_s/sfp/adalib/libgnat.a(start-common.o)
 .data          0x0000000000000000        0x0 /home/hedley/ada/NXP/LPC/LPC55S69/test3/Ada_Drivers_Library/embedded-runtimes/ravenscar-lpc55s69_evk_s/sfp/adalib/libgnat.a(start-ram.o)
 .bss           0x0000000000000000        0x0 /home/hedley/ada/NXP/LPC/LPC55S69/test3/Ada_Drivers_Library/embedded-runtimes/ravenscar-lpc55s69_evk_s/sfp/adalib/libgnat.a(start-ram.o)
 .text          0x0000000000000000        0x0 /home/hedley/ada/NXP/LPC/LPC55S69/test3/Ada_Drivers_Library/embedded-runtimes/ravenscar-lpc55s69_evk_s/sfp/adalib/libgnat.a(a-except.o)
 .data          0x0000000000000000        0x0 /home/hedley/ada/NXP/LPC/LPC55S69/test3/Ada_Drivers_Library/embedded-runtimes/ravenscar-lpc55s69_evk_s/sfp/adalib/libgnat.a(a-except.o)
 .bss           0x0000000000000000        0x0 /home/hedley/ada/NXP/LPC/LPC55S69/test3/Ada_Drivers_Library/embedded-runtimes/ravenscar-lpc55s69_evk_s/sfp/adalib/libgnat.a(a-except.o)
 .data.ada__exceptions_E
                0x0000000000000000        0x2 /home/hedley/ada/NXP/LPC/LPC55S69/test3/Ada_Drivers_Library/embedded-runtimes/ravenscar-lpc55s69_evk_s/sfp/adalib/libgnat.a(a-except.o)
 .rodata.ada__exceptions__null_id
                0x0000000000000000        0x4 /home/hedley/ada/NXP/LPC/LPC55S69/test3/Ada_Drivers_Library/embedded-runtimes/ravenscar-lpc55s69_evk_s/sfp/adalib/libgnat.a(a-except.o)
 .rodata.ada__exceptions__empty_c_string
                0x0000000000000000        0x4 /home/hedley/ada/NXP/LPC/LPC55S69/test3/Ada_Drivers_Library/embedded-runtimes/ravenscar-lpc55s69_evk_s/sfp/adalib/libgnat.a(a-except.o)
 .text          0x0000000000000000        0x0 /home/hedley/ada/NXP/LPC/LPC55S69/test3/Ada_Drivers_Library/embedded-runtimes/ravenscar-lpc55s69_evk_s/sfp/adalib/libgnat.a(setup_pll.o)
 .data          0x0000000000000000        0x0 /home/hedley/ada/NXP/LPC/LPC55S69/test3/Ada_Drivers_Library/embedded-runtimes/ravenscar-lpc55s69_evk_s/sfp/adalib/libgnat.a(setup_pll.o)
 .bss           0x0000000000000000        0x0 /home/hedley/ada/NXP/LPC/LPC55S69/test3/Ada_Drivers_Library/embedded-runtimes/ravenscar-lpc55s69_evk_s/sfp/adalib/libgnat.a(setup_pll.o)
 .text          0x0000000000000000      0x158 ../../../glue/veneer_s.o
 .data          0x0000000000000000        0x0 ../../../glue/veneer_s.o
 .bss           0x0000000000000000        0x0 ../../../glue/veneer_s.o
 .debug_info    0x0000000000000000       0xd6 ../../../glue/veneer_s.o
 .debug_abbrev  0x0000000000000000       0xcd ../../../glue/veneer_s.o
 .debug_aranges
                0x0000000000000000       0x20 ../../../glue/veneer_s.o
 .debug_line    0x0000000000000000       0x81 ../../../glue/veneer_s.o
 .debug_str     0x0000000000000000      0x135 ../../../glue/veneer_s.o
 .comment       0x0000000000000000       0x3e ../../../glue/veneer_s.o
 .debug_frame   0x0000000000000000       0x84 ../../../glue/veneer_s.o
 .ARM.attributes
                0x0000000000000000       0x3c ../../../glue/veneer_s.o
 .data          0x0000000000000000        0x0 ../../../glue/veneer_ns.o
 .bss           0x0000000000000000        0x0 ../../../glue/veneer_ns.o
 .debug_info    0x0000000000000000       0x64 ../../../glue/veneer_ns.o
 .debug_abbrev  0x0000000000000000       0x53 ../../../glue/veneer_ns.o
 .debug_aranges
                0x0000000000000000       0x20 ../../../glue/veneer_ns.o
 .debug_line    0x0000000000000000       0x3b ../../../glue/veneer_ns.o
 .debug_str     0x0000000000000000       0xf1 ../../../glue/veneer_ns.o
 .comment       0x0000000000000000       0x3e ../../../glue/veneer_ns.o
 .debug_frame   0x0000000000000000       0x38 ../../../glue/veneer_ns.o
 .ARM.attributes
                0x0000000000000000       0x3c ../../../glue/veneer_ns.o
 .text          0x0000000000000000       0x5c ../../../glue/s_ns.o
 .data          0x0000000000000000        0x0 ../../../glue/s_ns.o
 .bss           0x0000000000000000        0x0 ../../../glue/s_ns.o
 .debug_line    0x0000000000000000       0x4f ../../../glue/s_ns.o
 .debug_info    0x0000000000000000       0x26 ../../../glue/s_ns.o
 .debug_abbrev  0x0000000000000000       0x14 ../../../glue/s_ns.o
 .debug_aranges
                0x0000000000000000       0x20 ../../../glue/s_ns.o
 .debug_str     0x0000000000000000       0x43 ../../../glue/s_ns.o
 .ARM.attributes
                0x0000000000000000       0x28 ../../../glue/s_ns.o
 .text          0x0000000000000000       0x98 ../../../glue/led.o
 .data          0x0000000000000000        0x0 ../../../glue/led.o
 .bss           0x0000000000000000        0x0 ../../../glue/led.o
 .debug_info    0x0000000000000000       0x99 ../../../glue/led.o
 .debug_abbrev  0x0000000000000000       0x94 ../../../glue/led.o
 .debug_aranges
                0x0000000000000000       0x20 ../../../glue/led.o
 .debug_line    0x0000000000000000       0x60 ../../../glue/led.o
 .debug_str     0x0000000000000000       0xd5 ../../../glue/led.o
 .comment       0x0000000000000000       0x3e ../../../glue/led.o
 .debug_frame   0x0000000000000000       0x60 ../../../glue/led.o
 .ARM.attributes
                0x0000000000000000       0x3c ../../../glue/led.o
 .data          0x0000000000000000        0x0 /opt/GNAT/2019-arm-elf/bin/../lib/gcc/arm-eabi/7.4.1/thumb/v7e-m/fpv4-sp/hard/libgcc.a(_aeabi_ldivmod.o)
 .bss           0x0000000000000000        0x0 /opt/GNAT/2019-arm-elf/bin/../lib/gcc/arm-eabi/7.4.1/thumb/v7e-m/fpv4-sp/hard/libgcc.a(_aeabi_ldivmod.o)
 .text          0x0000000000000000       0x30 /opt/GNAT/2019-arm-elf/bin/../lib/gcc/arm-eabi/7.4.1/thumb/v7e-m/fpv4-sp/hard/libgcc.a(_aeabi_uldivmod.o)
 .data          0x0000000000000000        0x0 /opt/GNAT/2019-arm-elf/bin/../lib/gcc/arm-eabi/7.4.1/thumb/v7e-m/fpv4-sp/hard/libgcc.a(_aeabi_uldivmod.o)
 .bss           0x0000000000000000        0x0 /opt/GNAT/2019-arm-elf/bin/../lib/gcc/arm-eabi/7.4.1/thumb/v7e-m/fpv4-sp/hard/libgcc.a(_aeabi_uldivmod.o)
 .debug_line    0x0000000000000000       0x67 /opt/GNAT/2019-arm-elf/bin/../lib/gcc/arm-eabi/7.4.1/thumb/v7e-m/fpv4-sp/hard/libgcc.a(_aeabi_uldivmod.o)
 .debug_info    0x0000000000000000       0x26 /opt/GNAT/2019-arm-elf/bin/../lib/gcc/arm-eabi/7.4.1/thumb/v7e-m/fpv4-sp/hard/libgcc.a(_aeabi_uldivmod.o)
 .debug_abbrev  0x0000000000000000       0x14 /opt/GNAT/2019-arm-elf/bin/../lib/gcc/arm-eabi/7.4.1/thumb/v7e-m/fpv4-sp/hard/libgcc.a(_aeabi_uldivmod.o)
 .debug_aranges
                0x0000000000000000       0x20 /opt/GNAT/2019-arm-elf/bin/../lib/gcc/arm-eabi/7.4.1/thumb/v7e-m/fpv4-sp/hard/libgcc.a(_aeabi_uldivmod.o)
 .debug_str     0x0000000000000000       0x94 /opt/GNAT/2019-arm-elf/bin/../lib/gcc/arm-eabi/7.4.1/thumb/v7e-m/fpv4-sp/hard/libgcc.a(_aeabi_uldivmod.o)
 .debug_frame   0x0000000000000000       0x2c /opt/GNAT/2019-arm-elf/bin/../lib/gcc/arm-eabi/7.4.1/thumb/v7e-m/fpv4-sp/hard/libgcc.a(_aeabi_uldivmod.o)
 .ARM.attributes
                0x0000000000000000       0x22 /opt/GNAT/2019-arm-elf/bin/../lib/gcc/arm-eabi/7.4.1/thumb/v7e-m/fpv4-sp/hard/libgcc.a(_aeabi_uldivmod.o)
 .data          0x0000000000000000        0x0 /opt/GNAT/2019-arm-elf/bin/../lib/gcc/arm-eabi/7.4.1/thumb/v7e-m/fpv4-sp/hard/libgcc.a(_udivmoddi4.o)
 .bss           0x0000000000000000        0x0 /opt/GNAT/2019-arm-elf/bin/../lib/gcc/arm-eabi/7.4.1/thumb/v7e-m/fpv4-sp/hard/libgcc.a(_udivmoddi4.o)
 .ARM.extab     0x0000000000000000        0x0 /opt/GNAT/2019-arm-elf/bin/../lib/gcc/arm-eabi/7.4.1/thumb/v7e-m/fpv4-sp/hard/libgcc.a(_udivmoddi4.o)
 .data          0x0000000000000000        0x0 /opt/GNAT/2019-arm-elf/bin/../lib/gcc/arm-eabi/7.4.1/thumb/v7e-m/fpv4-sp/hard/libgcc.a(_dvmd_tls.o)
 .bss           0x0000000000000000        0x0 /opt/GNAT/2019-arm-elf/bin/../lib/gcc/arm-eabi/7.4.1/thumb/v7e-m/fpv4-sp/hard/libgcc.a(_dvmd_tls.o)

Memory Configuration

Name             Origin             Length             Attributes
sflash           0x0000000010000000 0x00000000000a0000 xr
sramx            0x0000000014000000 0x0000000000008000 rw
sram12           0x0000000030000000 0x0000000000044000 xrw
sglue            0x0000000030010000 0x000000000000f000 xrw
nsglue           0x000000003001f000 0x0000000000001000 xrw
ns               0x0000000030020000 0x0000000000020000 xrw
*default*        0x0000000000000000 0xffffffffffffffff

Linker script and memory map

LOAD test_s.o
LOAD b__test_s.o
LOAD /home/hedley/ada/NXP/LPC/LPC55S69/test3/test_s/obj/Debug/button.o
LOAD /home/hedley/ada/NXP/LPC/LPC55S69/test3/Ada_Drivers_Library/boards/lib/lpc55s69_evk_s/ravenscar-sfp/Debug/liblpc55s69_evk_s.a
LOAD /home/hedley/ada/NXP/LPC/LPC55S69/test3/Ada_Drivers_Library/components/lib/lpc55s69_evk_s/ravenscar-sfp/Debug/libcomponents.a
LOAD /home/hedley/ada/NXP/LPC/LPC55S69/test3/Ada_Drivers_Library/middleware/lib/lpc55s69_evk_s/ravenscar-sfp/Debug/libservices.a
LOAD /home/hedley/ada/NXP/LPC/LPC55S69/test3/Ada_Drivers_Library/arch/ARM/NXP/lib/lpc55s69_evk_s/ravenscar-sfp/Debug/liblpc55s69.a
LOAD /home/hedley/ada/NXP/LPC/LPC55S69/test3/Ada_Drivers_Library/arch/ARM/cortex_m/lib/cortex-m4f/lpc55s69_evk_s/ravenscar-sfp/Debug/libcortex-m4f.a
LOAD /home/hedley/ada/Ada_Drivers_Library/hal/lib/lpc55s69_evk_s/ravenscar-sfp/Debug/libHAL.a
LOAD /home/hedley/ada/NXP/LPC/LPC55S69/test3/Ada_Drivers_Library/embedded-runtimes/ravenscar-lpc55s69_evk_s/sfp/adalib/libgnarl.a
LOAD /home/hedley/ada/NXP/LPC/LPC55S69/test3/Ada_Drivers_Library/embedded-runtimes/ravenscar-lpc55s69_evk_s/sfp/adalib/libgnat.a
                0x0000000000008000                __stack_size = 0x8000
LOAD ../../../glue/veneer_s.o
LOAD ../../../glue/veneer_ns.o
LOAD ../../../glue/s_ns.o
LOAD ../../../glue/led.o
LOAD /home/hedley/ada/Ada_Drivers_Library/embedded-runtimes/ravenscar-lpc55s69_evk_s/sfp/adalib/libgnarl.a
LOAD /home/hedley/ada/Ada_Drivers_Library/embedded-runtimes/ravenscar-lpc55s69_evk_s/sfp/adalib/libgnat.a
START GROUP
LOAD /opt/GNAT/2019-arm-elf/bin/../lib/gcc/arm-eabi/7.4.1/thumb/v7e-m/fpv4-sp/hard/libgcc.a
END GROUP
                0x0000000000000000                __DYNAMIC = 0x0
                0x0000000000001000                _DEFAULT_STACK_SIZE = 0x1000

.text           0x0000000030000000     0x3da4
 *(.vectors)
 .vectors       0x0000000030000000       0x18 /home/hedley/ada/NXP/LPC/LPC55S69/test3/Ada_Drivers_Library/embedded-runtimes/ravenscar-lpc55s69_evk_s/sfp/adalib/libgnat.a(start-ram.o)
                0x0000000030000014                local_id
 *(.text .text.* .gnu.linkonce.t*)
 .text._ada_test_s
                0x0000000030000018      0x184 test_s.o
                0x0000000030000018                _ada_test_s
 .text.ada_main__Tsec_default_sized_stacksBIP
                0x000000003000019c       0x44 b__test_s.o
                0x000000003000019c                ada_main__Tsec_default_sized_stacksBIP
 .text.adainit  0x00000000300001e0      0x118 b__test_s.o
                0x00000000300001e0                adainit
 .text.main     0x00000000300002f8       0x1c b__test_s.o
                0x00000000300002f8                main
 .text.ada_main___elabb
                0x0000000030000314       0x1c b__test_s.o
                0x0000000030000314                ada_main___elabb
 .text.button__handlerTVIP
                0x0000000030000330       0x4c /home/hedley/ada/NXP/LPC/LPC55S69/test3/test_s/obj/Debug/button.o
                0x0000000030000330                button__handlerTVIP
 .text.button__handler__button_handlerN
                0x000000003000037c       0x50 /home/hedley/ada/NXP/LPC/LPC55S69/test3/test_s/obj/Debug/button.o
                0x000000003000037c                button__handler__button_handlerN
 .text.button__handler__button_handlerP
                0x00000000300003cc       0x24 /home/hedley/ada/NXP/LPC/LPC55S69/test3/test_s/obj/Debug/button.o
                0x00000000300003cc                button__handler__button_handlerP
 .text.button___elabs
                0x00000000300003f0       0x30 /home/hedley/ada/NXP/LPC/LPC55S69/test3/test_s/obj/Debug/button.o
                0x00000000300003f0                button___elabs
 .text.nxp__board__initialize_board
                0x0000000030000420       0x6c /home/hedley/ada/NXP/LPC/LPC55S69/test3/Ada_Drivers_Library/boards/lib/lpc55s69_evk_s/ravenscar-sfp/Debug/liblpc55s69_evk_s.a(nxp-board.o)
                0x0000000030000420                nxp__board__initialize_board
 .text.nxp__board___elabs
                0x000000003000048c       0x48 /home/hedley/ada/NXP/LPC/LPC55S69/test3/Ada_Drivers_Library/boards/lib/lpc55s69_evk_s/ravenscar-sfp/Debug/liblpc55s69_evk_s.a(nxp-board.o)
                0x000000003000048c                nxp__board___elabs
 .text.nxp__device__enable_clock
                0x00000000300004d4       0x80 /home/hedley/ada/NXP/LPC/LPC55S69/test3/Ada_Drivers_Library/arch/ARM/NXP/lib/lpc55s69_evk_s/ravenscar-sfp/Debug/liblpc55s69.a(nxp-device.o)
                0x00000000300004d4                nxp__device__enable_clock
 .text.nxp__device__enable_clock__3
                0x0000000030000554       0x70 /home/hedley/ada/NXP/LPC/LPC55S69/test3/Ada_Drivers_Library/arch/ARM/NXP/lib/lpc55s69_evk_s/ravenscar-sfp/Debug/liblpc55s69.a(nxp-device.o)
                0x0000000030000554                nxp__device__enable_clock__3
 .text.nxp__device__s_ns_periph
                0x00000000300005c4       0x3c /home/hedley/ada/NXP/LPC/LPC55S69/test3/Ada_Drivers_Library/arch/ARM/NXP/lib/lpc55s69_evk_s/ravenscar-sfp/Debug/liblpc55s69.a(nxp-device.o)
                0x00000000300005c4                nxp__device__s_ns_periph
 .text.nxp__device___elabs
                0x0000000030000600      0x8d4 /home/hedley/ada/NXP/LPC/LPC55S69/test3/Ada_Drivers_Library/arch/ARM/NXP/lib/lpc55s69_evk_s/ravenscar-sfp/Debug/liblpc55s69.a(nxp-device.o)
                0x0000000030000600                nxp__device___elabs
 .text.nxp__gpio__gpio_pinRP
                0x0000000030000ed4      0x190 /home/hedley/ada/NXP/LPC/LPC55S69/test3/Ada_Drivers_Library/arch/ARM/NXP/lib/lpc55s69_evk_s/ravenscar-sfp/Debug/liblpc55s69.a(nxp-gpio.o)
                0x0000000030000ed4                nxp__gpio__gpio_pinRP
 .text.nxp__gpio__gpio_pointIP
                0x0000000030001064       0x2c /home/hedley/ada/NXP/LPC/LPC55S69/test3/Ada_Drivers_Library/arch/ARM/NXP/lib/lpc55s69_evk_s/ravenscar-sfp/Debug/liblpc55s69.a(nxp-gpio.o)
                0x0000000030001064                nxp__gpio__gpio_pointIP
 .text.nxp__gpio___size__2
                0x0000000030001090       0x1c /home/hedley/ada/NXP/LPC/LPC55S69/test3/Ada_Drivers_Library/arch/ARM/NXP/lib/lpc55s69_evk_s/ravenscar-sfp/Debug/liblpc55s69.a(nxp-gpio.o)
                0x0000000030001090                nxp__gpio___size__2
 .text.nxp__gpio__Oeq
                0x00000000300010ac       0x40 /home/hedley/ada/NXP/LPC/LPC55S69/test3/Ada_Drivers_Library/arch/ARM/NXP/lib/lpc55s69_evk_s/ravenscar-sfp/Debug/liblpc55s69.a(nxp-gpio.o)
                0x00000000300010ac                nxp__gpio__Oeq
 .text.nxp__gpio___assign
                0x00000000300010ec       0x28 /home/hedley/ada/NXP/LPC/LPC55S69/test3/Ada_Drivers_Library/arch/ARM/NXP/lib/lpc55s69_evk_s/ravenscar-sfp/Debug/liblpc55s69.a(nxp-gpio.o)
                0x00000000300010ec                nxp__gpio___assign
 .text.nxp__gpio__gpio_pointsIP
                0x0000000030001114       0x3c /home/hedley/ada/NXP/LPC/LPC55S69/test3/Ada_Drivers_Library/arch/ARM/NXP/lib/lpc55s69_evk_s/ravenscar-sfp/Debug/liblpc55s69.a(nxp-gpio.o)
                0x0000000030001114                nxp__gpio__gpio_pointsIP
 .text.nxp__gpio__mode
                0x0000000030001150       0x38 /home/hedley/ada/NXP/LPC/LPC55S69/test3/Ada_Drivers_Library/arch/ARM/NXP/lib/lpc55s69_evk_s/ravenscar-sfp/Debug/liblpc55s69.a(nxp-gpio.o)
                0x0000000030001150                nxp__gpio__mode
 .text.nxp__gpio__set_mode
                0x0000000030001188       0x3c /home/hedley/ada/NXP/LPC/LPC55S69/test3/Ada_Drivers_Library/arch/ARM/NXP/lib/lpc55s69_evk_s/ravenscar-sfp/Debug/liblpc55s69.a(nxp-gpio.o)
                0x0000000030001188                nxp__gpio__set_mode
 .text.nxp__gpio__pull_resistor
                0x00000000300011c4       0x38 /home/hedley/ada/NXP/LPC/LPC55S69/test3/Ada_Drivers_Library/arch/ARM/NXP/lib/lpc55s69_evk_s/ravenscar-sfp/Debug/liblpc55s69.a(nxp-gpio.o)
                0x00000000300011c4                nxp__gpio__pull_resistor
 .text.nxp__gpio__set_pull_resistor
                0x00000000300011fc       0x3c /home/hedley/ada/NXP/LPC/LPC55S69/test3/Ada_Drivers_Library/arch/ARM/NXP/lib/lpc55s69_evk_s/ravenscar-sfp/Debug/liblpc55s69.a(nxp-gpio.o)
                0x00000000300011fc                nxp__gpio__set_pull_resistor
 .text.nxp__gpio__set
                0x0000000030001238       0x78 /home/hedley/ada/NXP/LPC/LPC55S69/test3/Ada_Drivers_Library/arch/ARM/NXP/lib/lpc55s69_evk_s/ravenscar-sfp/Debug/liblpc55s69.a(nxp-gpio.o)
                0x0000000030001238                nxp__gpio__set
 .text.nxp__gpio__set__2
                0x00000000300012b0       0xa8 /home/hedley/ada/NXP/LPC/LPC55S69/test3/Ada_Drivers_Library/arch/ARM/NXP/lib/lpc55s69_evk_s/ravenscar-sfp/Debug/liblpc55s69.a(nxp-gpio.o)
                0x00000000300012b0                nxp__gpio__set__2
 .text.nxp__gpio__clear
                0x0000000030001358       0xa0 /home/hedley/ada/NXP/LPC/LPC55S69/test3/Ada_Drivers_Library/arch/ARM/NXP/lib/lpc55s69_evk_s/ravenscar-sfp/Debug/liblpc55s69.a(nxp-gpio.o)
                0x0000000030001358                nxp__gpio__clear
 .text.nxp__gpio__toggle
                0x00000000300013f8       0xa0 /home/hedley/ada/NXP/LPC/LPC55S69/test3/Ada_Drivers_Library/arch/ARM/NXP/lib/lpc55s69_evk_s/ravenscar-sfp/Debug/liblpc55s69.a(nxp-gpio.o)
                0x00000000300013f8                nxp__gpio__toggle
 .text.nxp__gpio__configure_io
                0x0000000030001498      0x394 /home/hedley/ada/NXP/LPC/LPC55S69/test3/Ada_Drivers_Library/arch/ARM/NXP/lib/lpc55s69_evk_s/ravenscar-sfp/Debug/liblpc55s69.a(nxp-gpio.o)
                0x0000000030001498                nxp__gpio__configure_io
 .text.nxp__gpio__configure_io__2
                0x000000003000182c       0x48 /home/hedley/ada/NXP/LPC/LPC55S69/test3/Ada_Drivers_Library/arch/ARM/NXP/lib/lpc55s69_evk_s/ravenscar-sfp/Debug/liblpc55s69.a(nxp-gpio.o)
                0x000000003000182c                nxp__gpio__configure_io__2
 .text.nxp__gpio__configure_alternate_function
                0x0000000030001874       0x84 /home/hedley/ada/NXP/LPC/LPC55S69/test3/Ada_Drivers_Library/arch/ARM/NXP/lib/lpc55s69_evk_s/ravenscar-sfp/Debug/liblpc55s69.a(nxp-gpio.o)
                0x0000000030001874                nxp__gpio__configure_alternate_function
 .text.nxp__gpio__enable_gpio_interrupt
                0x00000000300018f8      0x1cc /home/hedley/ada/NXP/LPC/LPC55S69/test3/Ada_Drivers_Library/arch/ARM/NXP/lib/lpc55s69_evk_s/ravenscar-sfp/Debug/liblpc55s69.a(nxp-gpio.o)
                0x00000000300018f8                nxp__gpio__enable_gpio_interrupt
 .text.nxp__gpio___elabb
                0x0000000030001ac4       0x50 /home/hedley/ada/NXP/LPC/LPC55S69/test3/Ada_Drivers_Library/arch/ARM/NXP/lib/lpc55s69_evk_s/ravenscar-sfp/Debug/liblpc55s69.a(nxp-gpio.o)
                0x0000000030001ac4                nxp__gpio___elabb
 .text.nxp__inputmux__enable_inputmux
                0x0000000030001b14       0x28 /home/hedley/ada/NXP/LPC/LPC55S69/test3/Ada_Drivers_Library/arch/ARM/NXP/lib/lpc55s69_evk_s/ravenscar-sfp/Debug/liblpc55s69.a(nxp-inputmux.o)
                0x0000000030001b14                nxp__inputmux__enable_inputmux
 .text.nxp__pint__enable_pint
                0x0000000030001b3c       0x28 /home/hedley/ada/NXP/LPC/LPC55S69/test3/Ada_Drivers_Library/arch/ARM/NXP/lib/lpc55s69_evk_s/ravenscar-sfp/Debug/liblpc55s69.a(nxp-pint.o)
                0x0000000030001b3c                nxp__pint__enable_pint
 .text.nxp__pint__pint_interrupt_pending
                0x0000000030001b64       0x50 /home/hedley/ada/NXP/LPC/LPC55S69/test3/Ada_Drivers_Library/arch/ARM/NXP/lib/lpc55s69_evk_s/ravenscar-sfp/Debug/liblpc55s69.a(nxp-pint.o)
                0x0000000030001b64                nxp__pint__pint_interrupt_pending
 .text.nxp__pint__pint_clear_interrupt
                0x0000000030001bb4       0x44 /home/hedley/ada/NXP/LPC/LPC55S69/test3/Ada_Drivers_Library/arch/ARM/NXP/lib/lpc55s69_evk_s/ravenscar-sfp/Debug/liblpc55s69.a(nxp-pint.o)
                0x0000000030001bb4                nxp__pint__pint_clear_interrupt
 .text.nxp__pint___elabb
                0x0000000030001bf8       0x4c /home/hedley/ada/NXP/LPC/LPC55S69/test3/Ada_Drivers_Library/arch/ARM/NXP/lib/lpc55s69_evk_s/ravenscar-sfp/Debug/liblpc55s69.a(nxp-pint.o)
                0x0000000030001bf8                nxp__pint___elabb
 .text.ada__real_time__Oadd
                0x0000000030001c44       0x68 /home/hedley/ada/NXP/LPC/LPC55S69/test3/Ada_Drivers_Library/embedded-runtimes/ravenscar-lpc55s69_evk_s/sfp/adalib/libgnarl.a(a-reatim.o)
                0x0000000030001c44                ada__real_time__Oadd
 .text.ada__real_time__clock
                0x0000000030001cac       0x60 /home/hedley/ada/NXP/LPC/LPC55S69/test3/Ada_Drivers_Library/embedded-runtimes/ravenscar-lpc55s69_evk_s/sfp/adalib/libgnarl.a(a-reatim.o)
                0x0000000030001cac                ada__real_time__clock
 .text.ada__real_time__milliseconds
                0x0000000030001d0c       0x44 /home/hedley/ada/NXP/LPC/LPC55S69/test3/Ada_Drivers_Library/embedded-runtimes/ravenscar-lpc55s69_evk_s/sfp/adalib/libgnarl.a(a-reatim.o)
                0x0000000030001d0c                ada__real_time__milliseconds
 .text.ada__real_time___elabb
                0x0000000030001d50        0x4 /home/hedley/ada/NXP/LPC/LPC55S69/test3/Ada_Drivers_Library/embedded-runtimes/ravenscar-lpc55s69_evk_s/sfp/adalib/libgnarl.a(a-reatim.o)
                0x0000000030001d50                ada__real_time___elabb
 .text.ada__real_time__delays__delay_until
                0x0000000030001d54       0x30 /home/hedley/ada/NXP/LPC/LPC55S69/test3/Ada_Drivers_Library/embedded-runtimes/ravenscar-lpc55s69_evk_s/sfp/adalib/libgnarl.a(a-retide.o)
                0x0000000030001d54                ada__real_time__delays__delay_until
 .text.ada__synchronous_task_control__suspension_object__wait_B2s
                0x0000000030001d84        0x4 /home/hedley/ada/NXP/LPC/LPC55S69/test3/Ada_Drivers_Library/embedded-runtimes/ravenscar-lpc55s69_evk_s/sfp/adalib/libgnarl.a(a-sytaco.o)
                0x0000000030001d84                ada__synchronous_task_control__suspension_object__wait_B2s
 .text.ada__synchronous_task_control__suspension_object__wait_E1s
                0x0000000030001d88        0x8 /home/hedley/ada/NXP/LPC/LPC55S69/test3/Ada_Drivers_Library/embedded-runtimes/ravenscar-lpc55s69_evk_s/sfp/adalib/libgnarl.a(a-sytaco.o)
                0x0000000030001d88                ada__synchronous_task_control__suspension_object__wait_E1s
 .text.ada__synchronous_task_control__suspension_objectVIP
                0x0000000030001d90       0x14 /home/hedley/ada/NXP/LPC/LPC55S69/test3/Ada_Drivers_Library/embedded-runtimes/ravenscar-lpc55s69_evk_s/sfp/adalib/libgnarl.a(a-sytaco.o)
                0x0000000030001d90                ada__synchronous_task_control__suspension_objectVIP
 .text.ada__synchronous_task_control__set_true
                0x0000000030001da4       0x1c /home/hedley/ada/NXP/LPC/LPC55S69/test3/Ada_Drivers_Library/embedded-runtimes/ravenscar-lpc55s69_evk_s/sfp/adalib/libgnarl.a(a-sytaco.o)
                0x0000000030001da4                ada__synchronous_task_control__set_true
 .text.ada__synchronous_task_control__suspend_until_true
                0x0000000030001dc0        0x8 /home/hedley/ada/NXP/LPC/LPC55S69/test3/Ada_Drivers_Library/embedded-runtimes/ravenscar-lpc55s69_evk_s/sfp/adalib/libgnarl.a(a-sytaco.o)
                0x0000000030001dc0                ada__synchronous_task_control__suspend_until_true
 .text.system__bb__board_support__timer_interrupt_handler
                0x0000000030001dc8        0x8 /home/hedley/ada/NXP/LPC/LPC55S69/test3/Ada_Drivers_Library/embedded-runtimes/ravenscar-lpc55s69_evk_s/sfp/adalib/libgnarl.a(s-bbbosu.o)
                0x0000000030001dc8                system__bb__board_support__timer_interrupt_handler
 .text.system__bb__board_support__interrupt_handler
                0x0000000030001dd0        0xc /home/hedley/ada/NXP/LPC/LPC55S69/test3/Ada_Drivers_Library/embedded-runtimes/ravenscar-lpc55s69_evk_s/sfp/adalib/libgnarl.a(s-bbbosu.o)
                0x0000000030001dd0                system__bb__board_support__interrupt_handler
 .text.system__bb__board_support__enable_interrupt_request.part.0
                0x0000000030001ddc       0x1c /home/hedley/ada/NXP/LPC/LPC55S69/test3/Ada_Drivers_Library/embedded-runtimes/ravenscar-lpc55s69_evk_s/sfp/adalib/libgnarl.a(s-bbbosu.o)
 .text.system__bb__board_support__time__read_clock
                0x0000000030001df8       0x40 /home/hedley/ada/NXP/LPC/LPC55S69/test3/Ada_Drivers_Library/embedded-runtimes/ravenscar-lpc55s69_evk_s/sfp/adalib/libgnarl.a(s-bbbosu.o)
                0x0000000030001df8                system__bb__board_support__time__read_clock
 .text.system__bb__board_support__time__set_alarm
                0x0000000030001e38       0x60 /home/hedley/ada/NXP/LPC/LPC55S69/test3/Ada_Drivers_Library/embedded-runtimes/ravenscar-lpc55s69_evk_s/sfp/adalib/libgnarl.a(s-bbbosu.o)
                0x0000000030001e38                system__bb__board_support__time__set_alarm
 .text.system__bb__board_support__time__install_alarm_handler
                0x0000000030001e98        0xc /home/hedley/ada/NXP/LPC/LPC55S69/test3/Ada_Drivers_Library/embedded-runtimes/ravenscar-lpc55s69_evk_s/sfp/adalib/libgnarl.a(s-bbbosu.o)
                0x0000000030001e98                system__bb__board_support__time__install_alarm_handler
 .text.system__bb__board_support__interrupts__install_interrupt_handler
                0x0000000030001ea4       0x5c /home/hedley/ada/NXP/LPC/LPC55S69/test3/Ada_Drivers_Library/embedded-runtimes/ravenscar-lpc55s69_evk_s/sfp/adalib/libgnarl.a(s-bbbosu.o)
                0x0000000030001ea4                system__bb__board_support__interrupts__install_interrupt_handler
 .text.system__bb__board_support__initialize_board
                0x0000000030001f00       0x9c /home/hedley/ada/NXP/LPC/LPC55S69/test3/Ada_Drivers_Library/embedded-runtimes/ravenscar-lpc55s69_evk_s/sfp/adalib/libgnarl.a(s-bbbosu.o)
                0x0000000030001f00                system__bb__board_support__initialize_board
 .text.system__bb__cpu_primitives__gnat_error_handler
                0x0000000030001f9c      0x1b8 /home/hedley/ada/NXP/LPC/LPC55S69/test3/Ada_Drivers_Library/embedded-runtimes/ravenscar-lpc55s69_evk_s/sfp/adalib/libgnarl.a(s-bbcppr.o)
                0x0000000030001f9c                system__bb__cpu_primitives__gnat_error_handler
 .text.__gnat_irq_trap
                0x0000000030002154       0x64 /home/hedley/ada/NXP/LPC/LPC55S69/test3/Ada_Drivers_Library/embedded-runtimes/ravenscar-lpc55s69_evk_s/sfp/adalib/libgnarl.a(s-bbcppr.o)
                0x0000000030002154                __gnat_irq_trap
 .text.__gnat_sv_call_trap
                0x00000000300021b8        0x8 /home/hedley/ada/NXP/LPC/LPC55S69/test3/Ada_Drivers_Library/embedded-runtimes/ravenscar-lpc55s69_evk_s/sfp/adalib/libgnarl.a(s-bbcppr.o)
                0x00000000300021b8                __gnat_sv_call_trap
 .text.__gnat_sys_tick_trap
                0x00000000300021c0       0x80 /home/hedley/ada/NXP/LPC/LPC55S69/test3/Ada_Drivers_Library/embedded-runtimes/ravenscar-lpc55s69_evk_s/sfp/adalib/libgnarl.a(s-bbcppr.o)
                0x00000000300021c0                __gnat_sys_tick_trap
 .text.system__bb__cpu_primitives__install_trap_handler
                0x0000000030002240        0xc /home/hedley/ada/NXP/LPC/LPC55S69/test3/Ada_Drivers_Library/embedded-runtimes/ravenscar-lpc55s69_evk_s/sfp/adalib/libgnarl.a(s-bbcppr.o)
                0x0000000030002240                system__bb__cpu_primitives__install_trap_handler
 .text.system__bb__interrupts__interrupt_wrapper
                0x000000003000224c       0xf4 /home/hedley/ada/NXP/LPC/LPC55S69/test3/Ada_Drivers_Library/embedded-runtimes/ravenscar-lpc55s69_evk_s/sfp/adalib/libgnarl.a(s-bbinte.o)
                0x000000003000224c                system__bb__interrupts__interrupt_wrapper
 .text.system__bb__interrupts__initialize_interrupts
                0x0000000030002340       0x10 /home/hedley/ada/NXP/LPC/LPC55S69/test3/Ada_Drivers_Library/embedded-runtimes/ravenscar-lpc55s69_evk_s/sfp/adalib/libgnarl.a(s-bbinte.o)
                0x0000000030002340                system__bb__interrupts__initialize_interrupts
 .text.system__bb__threads__queues__change_priority
                0x0000000030002350       0x70 /home/hedley/ada/NXP/LPC/LPC55S69/test3/Ada_Drivers_Library/embedded-runtimes/ravenscar-lpc55s69_evk_s/sfp/adalib/libgnarl.a(s-bbthqu.o)
                0x0000000030002350                system__bb__threads__queues__change_priority
 .text.system__bb__threads__queues__insert_alarm
                0x00000000300023c0       0x58 /home/hedley/ada/NXP/LPC/LPC55S69/test3/Ada_Drivers_Library/embedded-runtimes/ravenscar-lpc55s69_evk_s/sfp/adalib/libgnarl.a(s-bbthqu.o)
                0x00000000300023c0                system__bb__threads__queues__insert_alarm
 .text.system__bb__threads__queues__wakeup_expired_alarms
                0x0000000030002418       0xf4 /home/hedley/ada/NXP/LPC/LPC55S69/test3/Ada_Drivers_Library/embedded-runtimes/ravenscar-lpc55s69_evk_s/sfp/adalib/libgnarl.a(s-bbthqu.o)
                0x0000000030002418                system__bb__threads__queues__wakeup_expired_alarms
 .text.system__bb__threads__queues__yield
                0x000000003000250c       0x50 /home/hedley/ada/NXP/LPC/LPC55S69/test3/Ada_Drivers_Library/embedded-runtimes/ravenscar-lpc55s69_evk_s/sfp/adalib/libgnarl.a(s-bbthqu.o)
                0x000000003000250c                system__bb__threads__queues__yield
 .text.system__bb__time__initialize_timers
                0x000000003000255c       0x94 /home/hedley/ada/NXP/LPC/LPC55S69/test3/Ada_Drivers_Library/embedded-runtimes/ravenscar-lpc55s69_evk_s/sfp/adalib/libgnarl.a(s-bbtime.o)
                0x000000003000255c                system__bb__time__initialize_timers
 .text.system__bb__time__update_alarm
                0x00000000300025f0       0x98 /home/hedley/ada/NXP/LPC/LPC55S69/test3/Ada_Drivers_Library/embedded-runtimes/ravenscar-lpc55s69_evk_s/sfp/adalib/libgnarl.a(s-bbtime.o)
                0x00000000300025f0                system__bb__time__update_alarm
 .text.system__bb__time__delay_until
                0x0000000030002688       0xe0 /home/hedley/ada/NXP/LPC/LPC55S69/test3/Ada_Drivers_Library/embedded-runtimes/ravenscar-lpc55s69_evk_s/sfp/adalib/libgnarl.a(s-bbtime.o)
                0x0000000030002688                system__bb__time__delay_until
 .text.system__bb__time__alarm_handler
                0x0000000030002768       0xb8 /home/hedley/ada/NXP/LPC/LPC55S69/test3/Ada_Drivers_Library/embedded-runtimes/ravenscar-lpc55s69_evk_s/sfp/adalib/libgnarl.a(s-bbtime.o)
 .text.system__bb__cpu_primitives__context_switch_trigger__initialize_context_switch
                0x0000000030002820        0x4 /home/hedley/ada/NXP/LPC/LPC55S69/test3/Ada_Drivers_Library/embedded-runtimes/ravenscar-lpc55s69_evk_s/sfp/adalib/libgnarl.a(s-bcpcst.o)
                0x0000000030002820                system__bb__cpu_primitives__context_switch_trigger__initialize_context_switch
 .text.system__bb__cpu_primitives__context_switch_trigger__trigger_context_switch
                0x0000000030002824       0x10 /home/hedley/ada/NXP/LPC/LPC55S69/test3/Ada_Drivers_Library/embedded-runtimes/ravenscar-lpc55s69_evk_s/sfp/adalib/libgnarl.a(s-bcpcst.o)
                0x0000000030002824                system__bb__cpu_primitives__context_switch_trigger__trigger_context_switch
 .text.__gnat_pend_sv_trap
                0x0000000030002834       0x48 /home/hedley/ada/NXP/LPC/LPC55S69/test3/Ada_Drivers_Library/embedded-runtimes/ravenscar-lpc55s69_evk_s/sfp/adalib/libgnarl.a(s-bcpcst.o)
                0x0000000030002834                __gnat_pend_sv_trap
 .text.system__interrupts__default_handler
                0x000000003000287c       0x48 /home/hedley/ada/NXP/LPC/LPC55S69/test3/Ada_Drivers_Library/embedded-runtimes/ravenscar-lpc55s69_evk_s/sfp/adalib/libgnarl.a(s-interr.o)
 .text.system__interrupts__install_restricted_handlers
                0x00000000300028c4       0x80 /home/hedley/ada/NXP/LPC/LPC55S69/test3/Ada_Drivers_Library/embedded-runtimes/ravenscar-lpc55s69_evk_s/sfp/adalib/libgnarl.a(s-interr.o)
                0x00000000300028c4                system__interrupts__install_restricted_handlers
 .text.__gnat_attach_all_handlers
                0x0000000030002944       0x70 /home/hedley/ada/NXP/LPC/LPC55S69/test3/Ada_Drivers_Library/embedded-runtimes/ravenscar-lpc55s69_evk_s/sfp/adalib/libgnarl.a(s-interr.o)
                0x0000000030002944                __gnat_attach_all_handlers
 .text.system__tasking__protected_objects__initialize_protection
                0x00000000300029b4       0x14 /home/hedley/ada/NXP/LPC/LPC55S69/test3/Ada_Drivers_Library/embedded-runtimes/ravenscar-lpc55s69_evk_s/sfp/adalib/libgnarl.a(s-taprob.o)
                0x00000000300029b4                system__tasking__protected_objects__initialize_protection
 .text.system__tasking__protected_objects__lock
                0x00000000300029c8       0x50 /home/hedley/ada/NXP/LPC/LPC55S69/test3/Ada_Drivers_Library/embedded-runtimes/ravenscar-lpc55s69_evk_s/sfp/adalib/libgnarl.a(s-taprob.o)
                0x00000000300029c8                system__tasking__protected_objects__lock
 .text.system__tasking__protected_objects__unlock
                0x0000000030002a18       0x2c /home/hedley/ada/NXP/LPC/LPC55S69/test3/Ada_Drivers_Library/embedded-runtimes/ravenscar-lpc55s69_evk_s/sfp/adalib/libgnarl.a(s-taprob.o)
                0x0000000030002a18                system__tasking__protected_objects__unlock
 .text.system__tasking__protected_objects___elabb
                0x0000000030002a44        0x4 /home/hedley/ada/NXP/LPC/LPC55S69/test3/Ada_Drivers_Library/embedded-runtimes/ravenscar-lpc55s69_evk_s/sfp/adalib/libgnarl.a(s-taprob.o)
                0x0000000030002a44                system__tasking__protected_objects___elabb
 .text.system__tasking__restricted__stages__task_wrapper
                0x0000000030002a48       0xa0 /home/hedley/ada/NXP/LPC/LPC55S69/test3/Ada_Drivers_Library/embedded-runtimes/ravenscar-lpc55s69_evk_s/sfp/adalib/libgnarl.a(s-tarest.o)
 .text.system__tasking__restricted__stages__activate_tasks
                0x0000000030002ae8       0x94 /home/hedley/ada/NXP/LPC/LPC55S69/test3/Ada_Drivers_Library/embedded-runtimes/ravenscar-lpc55s69_evk_s/sfp/adalib/libgnarl.a(s-tarest.o)
 .text.__gnat_activate_all_tasks
                0x0000000030002b7c       0x14 /home/hedley/ada/NXP/LPC/LPC55S69/test3/Ada_Drivers_Library/embedded-runtimes/ravenscar-lpc55s69_evk_s/sfp/adalib/libgnarl.a(s-tarest.o)
                0x0000000030002b7c                __gnat_activate_all_tasks
 .text.system__tasking__restricted__stages___elabb
                0x0000000030002b90        0x4 /home/hedley/ada/NXP/LPC/LPC55S69/test3/Ada_Drivers_Library/embedded-runtimes/ravenscar-lpc55s69_evk_s/sfp/adalib/libgnarl.a(s-tarest.o)
                0x0000000030002b90                system__tasking__restricted__stages___elabb
 .text.system__tasking__initialize_atcb
                0x0000000030002b94       0x30 /home/hedley/ada/NXP/LPC/LPC55S69/test3/Ada_Drivers_Library/embedded-runtimes/ravenscar-lpc55s69_evk_s/sfp/adalib/libgnarl.a(s-taskin.o)
                0x0000000030002b94                system__tasking__initialize_atcb
 .text.system__tasking__initialize
                0x0000000030002bc4      0x174 /home/hedley/ada/NXP/LPC/LPC55S69/test3/Ada_Drivers_Library/embedded-runtimes/ravenscar-lpc55s69_evk_s/sfp/adalib/libgnarl.a(s-taskin.o)
                0x0000000030002bc4                system__tasking__initialize
 .text.system__tasking__self
                0x0000000030002d38        0xc /home/hedley/ada/NXP/LPC/LPC55S69/test3/Ada_Drivers_Library/embedded-runtimes/ravenscar-lpc55s69_evk_s/sfp/adalib/libgnarl.a(s-taskin.o)
                0x0000000030002d38                system__tasking(short,...)(long, float)
 .text.system__tasking__protected_objects__multiprocessors__wakeup_served_entry
                0x0000000030002d44       0x58 /home/hedley/ada/NXP/LPC/LPC55S69/test3/Ada_Drivers_Library/embedded-runtimes/ravenscar-lpc55s69_evk_s/sfp/adalib/libgnarl.a(s-tpobmu.o)
                0x0000000030002d44                system__tasking__protected_objects__multiprocessors__wakeup_served_entry
 .text.system__tasking__protected_objects__multiprocessors___elabb
                0x0000000030002d9c       0x20 /home/hedley/ada/NXP/LPC/LPC55S69/test3/Ada_Drivers_Library/embedded-runtimes/ravenscar-lpc55s69_evk_s/sfp/adalib/libgnarl.a(s-tpobmu.o)
                0x0000000030002d9c                system__tasking__protected_objects__multiprocessors___elabb
 .text.system__tasking__protected_objects__single_entry__initialize_protection_entry
                0x0000000030002dbc       0x18 /home/hedley/ada/NXP/LPC/LPC55S69/test3/Ada_Drivers_Library/embedded-runtimes/ravenscar-lpc55s69_evk_s/sfp/adalib/libgnarl.a(s-tposen.o)
                0x0000000030002dbc                system__tasking__protected_objects__single_entry__initialize_protection_entry
 .text.system__tasking__protected_objects__single_entry__lock_entry
                0x0000000030002dd4        0x4 /home/hedley/ada/NXP/LPC/LPC55S69/test3/Ada_Drivers_Library/embedded-runtimes/ravenscar-lpc55s69_evk_s/sfp/adalib/libgnarl.a(s-tposen.o)
                0x0000000030002dd4                system__tasking__protected_objects__single_entry__lock_entry
 .text.system__tasking__protected_objects__single_entry__protected_single_entry_call
                0x0000000030002dd8       0x84 /home/hedley/ada/NXP/LPC/LPC55S69/test3/Ada_Drivers_Library/embedded-runtimes/ravenscar-lpc55s69_evk_s/sfp/adalib/libgnarl.a(s-tposen.o)
                0x0000000030002dd8                system__tasking__protected_objects__single_entry__protected_single_entry_call
 .text.system__tasking__protected_objects__single_entry__service_entry
                0x0000000030002e5c       0x48 /home/hedley/ada/NXP/LPC/LPC55S69/test3/Ada_Drivers_Library/embedded-runtimes/ravenscar-lpc55s69_evk_s/sfp/adalib/libgnarl.a(s-tposen.o)
                0x0000000030002e5c                system__tasking__protected_objects__single_entry__service_entry
 .text.system__bb__protection__leave_kernel
                0x0000000030002ea4       0x58 /home/hedley/ada/NXP/LPC/LPC55S69/test3/Ada_Drivers_Library/embedded-runtimes/ravenscar-lpc55s69_evk_s/sfp/adalib/libgnarl.a(s-bbprot.o)
                0x0000000030002ea4                system__bb__protection__leave_kernel
 .text.system__bb__threads__initialize
                0x0000000030002efc      0x14c /home/hedley/ada/NXP/LPC/LPC55S69/test3/Ada_Drivers_Library/embedded-runtimes/ravenscar-lpc55s69_evk_s/sfp/adalib/libgnarl.a(s-bbthre.o)
                0x0000000030002efc                system__bb__threads__initialize
 .text.system__bb__threads__sleep
                0x0000000030003048       0x48 /home/hedley/ada/NXP/LPC/LPC55S69/test3/Ada_Drivers_Library/embedded-runtimes/ravenscar-lpc55s69_evk_s/sfp/adalib/libgnarl.a(s-bbthre.o)
                0x0000000030003048                system__bb__threads(short, long,...)(...)( *)
 .text.system__bb__threads__thread_create
                0x0000000030003090      0x100 /home/hedley/ada/NXP/LPC/LPC55S69/test3/Ada_Drivers_Library/embedded-runtimes/ravenscar-lpc55s69_evk_s/sfp/adalib/libgnarl.a(s-bbthre.o)
                0x0000000030003090                system__bb__threads__thread_create
 .text.system__bb__threads__wakeup
                0x0000000030003190       0x94 /home/hedley/ada/NXP/LPC/LPC55S69/test3/Ada_Drivers_Library/embedded-runtimes/ravenscar-lpc55s69_evk_s/sfp/adalib/libgnarl.a(s-bbthre.o)
                0x0000000030003190                system__bb__threads__wakeup
 .text.system__bb__timing_events__execute_expired_timing_events
                0x0000000030003224       0x78 /home/hedley/ada/NXP/LPC/LPC55S69/test3/Ada_Drivers_Library/embedded-runtimes/ravenscar-lpc55s69_evk_s/sfp/adalib/libgnarl.a(s-bbtiev.o)
                0x0000000030003224                system__bb__timing_events__execute_expired_timing_events
 .text.system__task_primitives__operations__enter_task
                0x000000003000329c       0x3c /home/hedley/ada/NXP/LPC/LPC55S69/test3/Ada_Drivers_Library/embedded-runtimes/ravenscar-lpc55s69_evk_s/sfp/adalib/libgnarl.a(s-taprop.o)
                0x000000003000329c                system__task_primitives__operations__enter_task
 .text.system__task_primitives__operations__idle
                0x00000000300032d8       0x14 /home/hedley/ada/NXP/LPC/LPC55S69/test3/Ada_Drivers_Library/embedded-runtimes/ravenscar-lpc55s69_evk_s/sfp/adalib/libgnarl.a(s-taprop.o)
                0x00000000300032d8                system__task_primitives__operations(int, double, long,...)
 .text.system__task_primitives__operations__initialize_idle
                0x00000000300032ec       0x60 /home/hedley/ada/NXP/LPC/LPC55S69/test3/Ada_Drivers_Library/embedded-runtimes/ravenscar-lpc55s69_evk_s/sfp/adalib/libgnarl.a(s-taprop.o)
                0x00000000300032ec                system__task_primitives__operations__initialize_idle
 .text.__gnat_last_chance_handler
                0x000000003000334c       0x84 /home/hedley/ada/NXP/LPC/LPC55S69/test3/Ada_Drivers_Library/embedded-runtimes/ravenscar-lpc55s69_evk_s/sfp/adalib/libgnat.a(a-elchha.o)
                0x000000003000334c                __gnat_last_chance_handler
 .text.gnat__io__put__2
                0x00000000300033d0       0x44 /home/hedley/ada/NXP/LPC/LPC55S69/test3/Ada_Drivers_Library/embedded-runtimes/ravenscar-lpc55s69_evk_s/sfp/adalib/libgnat.a(g-io.o)
                0x00000000300033d0                gnat__io__put__2
 .text.gnat__io__new_line
                0x0000000030003414       0x14 /home/hedley/ada/NXP/LPC/LPC55S69/test3/Ada_Drivers_Library/embedded-runtimes/ravenscar-lpc55s69_evk_s/sfp/adalib/libgnat.a(g-io.o)
                0x0000000030003414                gnat__io__new_line
 .text.gnat__io__put__3
                0x0000000030003428       0x20 /home/hedley/ada/NXP/LPC/LPC55S69/test3/Ada_Drivers_Library/embedded-runtimes/ravenscar-lpc55s69_evk_s/sfp/adalib/libgnat.a(g-io.o)
                0x0000000030003428                gnat__io__put__3
 .text.gnat__io__put
                0x0000000030003448       0x70 /home/hedley/ada/NXP/LPC/LPC55S69/test3/Ada_Drivers_Library/embedded-runtimes/ravenscar-lpc55s69_evk_s/sfp/adalib/libgnat.a(g-io.o)
                0x0000000030003448                gnat__io__put
 .text.gnat__io__put_line
                0x00000000300034b8       0x10 /home/hedley/ada/NXP/LPC/LPC55S69/test3/Ada_Drivers_Library/embedded-runtimes/ravenscar-lpc55s69_evk_s/sfp/adalib/libgnat.a(g-io.o)
                0x00000000300034b8                gnat__io__put_line
 *fill*         0x00000000300034c8      0x138 
 .text          0x0000000030003600      0x1a0 /home/hedley/ada/NXP/LPC/LPC55S69/test3/Ada_Drivers_Library/embedded-runtimes/ravenscar-lpc55s69_evk_s/sfp/adalib/libgnat.a(handler.o)
                0x0000000030003600                __vectors
 .text.system__assertions__raise_assert_failure
                0x00000000300037a0       0x68 /home/hedley/ada/NXP/LPC/LPC55S69/test3/Ada_Drivers_Library/embedded-runtimes/ravenscar-lpc55s69_evk_s/sfp/adalib/libgnat.a(s-assert.o)
                0x00000000300037a0                system__assertions__raise_assert_failure
 .text._exit    0x0000000030003808       0x10 /home/hedley/ada/NXP/LPC/LPC55S69/test3/Ada_Drivers_Library/embedded-runtimes/ravenscar-lpc55s69_evk_s/sfp/adalib/libgnat.a(s-macres.o)
                0x0000000030003808                _exit
 .text.system__machine_reset__stop
                0x0000000030003818       0x10 /home/hedley/ada/NXP/LPC/LPC55S69/test3/Ada_Drivers_Library/embedded-runtimes/ravenscar-lpc55s69_evk_s/sfp/adalib/libgnat.a(s-macres.o)
                0x0000000030003818                system__machine_reset__stop
 .text.memcpy   0x0000000030003828       0x48 /home/hedley/ada/NXP/LPC/LPC55S69/test3/Ada_Drivers_Library/embedded-runtimes/ravenscar-lpc55s69_evk_s/sfp/adalib/libgnat.a(s-memcop.o)
                0x0000000030003828                memcpy
 .text.memset   0x0000000030003870       0x50 /home/hedley/ada/NXP/LPC/LPC55S69/test3/Ada_Drivers_Library/embedded-runtimes/ravenscar-lpc55s69_evk_s/sfp/adalib/libgnat.a(s-memset.o)
                0x0000000030003870                memset
 .text.system__parameters__adjust_storage_size
                0x00000000300038c0        0xc /home/hedley/ada/NXP/LPC/LPC55S69/test3/Ada_Drivers_Library/embedded-runtimes/ravenscar-lpc55s69_evk_s/sfp/adalib/libgnat.a(s-parame.o)
                0x00000000300038c0                system__parameters__adjust_storage_size
 .text.system__secondary_stack__ss_stackIP
                0x00000000300038cc        0x4 /home/hedley/ada/NXP/LPC/LPC55S69/test3/Ada_Drivers_Library/embedded-runtimes/ravenscar-lpc55s69_evk_s/sfp/adalib/libgnat.a(s-secsta.o)
                0x00000000300038cc                system__secondary_stack__ss_stackIP
 .text.system__secondary_stack__ss_init
                0x00000000300038d0       0x6c /home/hedley/ada/NXP/LPC/LPC55S69/test3/Ada_Drivers_Library/embedded-runtimes/ravenscar-lpc55s69_evk_s/sfp/adalib/libgnat.a(s-secsta.o)
                0x00000000300038d0                system__secondary_stack__ss_init
 .text.system__text_io__initialize
                0x000000003000393c        0x4 /home/hedley/ada/NXP/LPC/LPC55S69/test3/Ada_Drivers_Library/embedded-runtimes/ravenscar-lpc55s69_evk_s/sfp/adalib/libgnat.a(s-textio.o)
                0x000000003000393c                system__text_io__initialize
 .text.system__text_io__is_tx_ready
                0x0000000030003940        0x4 /home/hedley/ada/NXP/LPC/LPC55S69/test3/Ada_Drivers_Library/embedded-runtimes/ravenscar-lpc55s69_evk_s/sfp/adalib/libgnat.a(s-textio.o)
                0x0000000030003940                system__text_io__is_tx_ready
 .text.system__text_io__put
                0x0000000030003944        0x4 /home/hedley/ada/NXP/LPC/LPC55S69/test3/Ada_Drivers_Library/embedded-runtimes/ravenscar-lpc55s69_evk_s/sfp/adalib/libgnat.a(s-textio.o)
                0x0000000030003944                system__text_io__put
 .text.system__text_io__use_cr_lf_for_new_line
                0x0000000030003948        0x4 /home/hedley/ada/NXP/LPC/LPC55S69/test3/Ada_Drivers_Library/embedded-runtimes/ravenscar-lpc55s69_evk_s/sfp/adalib/libgnat.a(s-textio.o)
                0x0000000030003948                system__text_io__use_cr_lf_for_new_line
 .text          0x000000003000394c       0x34 /home/hedley/ada/NXP/LPC/LPC55S69/test3/Ada_Drivers_Library/embedded-runtimes/ravenscar-lpc55s69_evk_s/sfp/adalib/libgnat.a(start-common.o)
                0x000000003000394c                _nxp_start_common
                0x0000000030003966                is_secure
                0x000000003000397c                secure_code
 .text          0x0000000030003980       0x34 /home/hedley/ada/NXP/LPC/LPC55S69/test3/Ada_Drivers_Library/embedded-runtimes/ravenscar-lpc55s69_evk_s/sfp/adalib/libgnat.a(start-ram.o)
                0x0000000030003980                _start_ram
 .text._ada_setup_pll
                0x00000000300039b4        0x4 /home/hedley/ada/NXP/LPC/LPC55S69/test3/Ada_Drivers_Library/embedded-runtimes/ravenscar-lpc55s69_evk_s/sfp/adalib/libgnat.a(setup_pll.o)
                0x00000000300039b4                _ada_setup_pll
 .text          0x00000000300039b8       0x7c ../../../glue/veneer_ns.o
                0x00000000300039b8                __acle_se_s_from_ns_veneer
 .text          0x0000000030003a34       0xa0 /opt/GNAT/2019-arm-elf/bin/../lib/gcc/arm-eabi/7.4.1/thumb/v7e-m/fpv4-sp/hard/libgcc.a(_aeabi_ldivmod.o)
                0x0000000030003a34                __aeabi_ldivmod
 .text          0x0000000030003ad4      0x2cc /opt/GNAT/2019-arm-elf/bin/../lib/gcc/arm-eabi/7.4.1/thumb/v7e-m/fpv4-sp/hard/libgcc.a(_udivmoddi4.o)
                0x0000000030003ad4                __udivmoddi4
 .text          0x0000000030003da0        0x4 /opt/GNAT/2019-arm-elf/bin/../lib/gcc/arm-eabi/7.4.1/thumb/v7e-m/fpv4-sp/hard/libgcc.a(_dvmd_tls.o)
                0x0000000030003da0                __aeabi_ldiv0
                0x0000000030003da0                __aeabi_idiv0
 *(.gnu.warning)

.glue_7         0x0000000030003da4        0x0
 .glue_7        0x0000000030003da4        0x0 linker stubs

.glue_7t        0x0000000030003da4        0x0
 .glue_7t       0x0000000030003da4        0x0 linker stubs

.vfp11_veneer   0x0000000030003da4        0x0
 .vfp11_veneer  0x0000000030003da4        0x0 linker stubs

.v4_bx          0x0000000030003da4        0x0
 .v4_bx         0x0000000030003da4        0x0 linker stubs

.iplt           0x0000000030003da4        0x0
 .iplt          0x0000000030003da4        0x0 test_s.o

.ARM.extab
 *(.ARM.extab* .gnu.linkonce.armextab.*)
                [!provide]                        PROVIDE (__exidx_start = .)

.ARM.exidx      0x0000000030003da4        0x8
 *(.ARM.exidx* .gnu.linkonce.armexidx.*)
 .ARM.exidx     0x0000000030003da4        0x8 /opt/GNAT/2019-arm-elf/bin/../lib/gcc/arm-eabi/7.4.1/thumb/v7e-m/fpv4-sp/hard/libgcc.a(_udivmoddi4.o)
                [!provide]                        PROVIDE (__exidx_end = .)

.gnu.sgstubs    0x000000003001f000       0x20
                0x000000003001f000                . = ALIGN (0x20)
                0x000000003001f000                _start_sg = .
 *(.gnu.sgstubs*)
                0x000000003001f000                . = ALIGN (0x20)
                0x000000003001f000                _end_sg = .
 .gnu.sgstubs.__stub
                0x000000003001f000        0x8 linker stubs
                0x000000003001f000                s_from_ns_veneer

.rodata         0x0000000030003dac      0x498
 *(.lit)
 *(.rodata .rodata.* .gnu.linkonce.r*)
 .rodata        0x0000000030003dac       0x14 test_s.o
 .rodata        0x0000000030003dc0        0x8 b__test_s.o
 .rodata.__gnat_ada_main_program_name
                0x0000000030003dc8        0xc b__test_s.o
                0x0000000030003dc8                __gnat_ada_main_program_name
 .rodata        0x0000000030003dd4        0x8 /home/hedley/ada/NXP/LPC/LPC55S69/test3/test_s/obj/Debug/button.o
 .rodata        0x0000000030003ddc        0x8 /home/hedley/ada/NXP/LPC/LPC55S69/test3/Ada_Drivers_Library/boards/lib/lpc55s69_evk_s/ravenscar-sfp/Debug/liblpc55s69_evk_s.a(nxp-board.o)
 .rodata        0x0000000030003de4       0x1f /home/hedley/ada/NXP/LPC/LPC55S69/test3/Ada_Drivers_Library/arch/ARM/NXP/lib/lpc55s69_evk_s/ravenscar-sfp/Debug/liblpc55s69.a(nxp-device.o)
 *fill*         0x0000000030003e03        0x1 
 .rodata        0x0000000030003e04       0xb3 /home/hedley/ada/NXP/LPC/LPC55S69/test3/Ada_Drivers_Library/arch/ARM/NXP/lib/lpc55s69_evk_s/ravenscar-sfp/Debug/liblpc55s69.a(nxp-gpio.o)
 *fill*         0x0000000030003eb7        0x1 
 .rodata.nxp__gpio__gpio_pointE88s
                0x0000000030003eb8       0x14 /home/hedley/ada/NXP/LPC/LPC55S69/test3/Ada_Drivers_Library/arch/ARM/NXP/lib/lpc55s69_evk_s/ravenscar-sfp/Debug/liblpc55s69.a(nxp-gpio.o)
                0x0000000030003eb8                nxp__gpio__gpio_pointE88s
 .rodata.nxp__gpio__gpio_pointB92s
                0x0000000030003ecc       0x20 /home/hedley/ada/NXP/LPC/LPC55S69/test3/Ada_Drivers_Library/arch/ARM/NXP/lib/lpc55s69_evk_s/ravenscar-sfp/Debug/liblpc55s69.a(nxp-gpio.o)
                0x0000000030003ecc                nxp__gpio__gpio_pointB92s
 .rodata.nxp__gpio__gpio_pointR90s___UNC
                0x0000000030003eec       0x24 /home/hedley/ada/NXP/LPC/LPC55S69/test3/Ada_Drivers_Library/arch/ARM/NXP/lib/lpc55s69_evk_s/ravenscar-sfp/Debug/liblpc55s69.a(nxp-gpio.o)
                0x0000000030003eec                nxp__gpio__gpio_pointR90s___UNC
 .rodata.nxp__gpio__gpio_pointT
                0x0000000030003f10       0x3c /home/hedley/ada/NXP/LPC/LPC55S69/test3/Ada_Drivers_Library/arch/ARM/NXP/lib/lpc55s69_evk_s/ravenscar-sfp/Debug/liblpc55s69.a(nxp-gpio.o)
                0x0000000030003f10                nxp__gpio__gpio_pointT
 .rodata        0x0000000030003f4c        0xd /home/hedley/ada/NXP/LPC/LPC55S69/test3/Ada_Drivers_Library/arch/ARM/NXP/lib/lpc55s69_evk_s/ravenscar-sfp/Debug/liblpc55s69.a(nxp-pint.o)
 *fill*         0x0000000030003f59        0x3 
 .rodata.hal__gpio__gpio_pointE15s
                0x0000000030003f5c       0x14 /home/hedley/ada/Ada_Drivers_Library/hal/lib/lpc55s69_evk_s/ravenscar-sfp/Debug/libHAL.a(hal-gpio.o)
                0x0000000030003f5c                hal__gpio__gpio_pointE15s
 .rodata.hal__gpio__gpio_pointB19s
                0x0000000030003f70       0x1c /home/hedley/ada/Ada_Drivers_Library/hal/lib/lpc55s69_evk_s/ravenscar-sfp/Debug/libHAL.a(hal-gpio.o)
                0x0000000030003f70                hal__gpio__gpio_pointB19s
 .rodata.hal__gpio__gpio_pointT
                0x0000000030003f8c        0x8 /home/hedley/ada/Ada_Drivers_Library/hal/lib/lpc55s69_evk_s/ravenscar-sfp/Debug/libHAL.a(hal-gpio.o)
                0x0000000030003f8c                hal__gpio__gpio_pointT
 .rodata        0x0000000030003f94        0xd /home/hedley/ada/NXP/LPC/LPC55S69/test3/Ada_Drivers_Library/embedded-runtimes/ravenscar-lpc55s69_evk_s/sfp/adalib/libgnarl.a(a-reatim.o)
 *fill*         0x0000000030003fa1        0x3 
 .rodata        0x0000000030003fa4        0xd /home/hedley/ada/NXP/LPC/LPC55S69/test3/Ada_Drivers_Library/embedded-runtimes/ravenscar-lpc55s69_evk_s/sfp/adalib/libgnarl.a(a-retide.o)
 *fill*         0x0000000030003fb1        0x3 
 .rodata.ada__synchronous_task_control__suspension_objectA
                0x0000000030003fb4        0x8 /home/hedley/ada/NXP/LPC/LPC55S69/test3/Ada_Drivers_Library/embedded-runtimes/ravenscar-lpc55s69_evk_s/sfp/adalib/libgnarl.a(a-sytaco.o)
                0x0000000030003fb4                ada__synchronous_task_control__suspension_objectA
 .rodata.system__bb__cpu_primitives__gnat_error_handler.str1.4
                0x0000000030003fbc      0x16c /home/hedley/ada/NXP/LPC/LPC55S69/test3/Ada_Drivers_Library/embedded-runtimes/ravenscar-lpc55s69_evk_s/sfp/adalib/libgnarl.a(s-bbcppr.o)
 .rodata        0x0000000030004128       0x15 /home/hedley/ada/NXP/LPC/LPC55S69/test3/Ada_Drivers_Library/embedded-runtimes/ravenscar-lpc55s69_evk_s/sfp/adalib/libgnarl.a(s-interr.o)
 *fill*         0x000000003000413d        0x3 
 .rodata        0x0000000030004140        0xd /home/hedley/ada/NXP/LPC/LPC55S69/test3/Ada_Drivers_Library/embedded-runtimes/ravenscar-lpc55s69_evk_s/sfp/adalib/libgnarl.a(s-taprob.o)
 *fill*         0x000000003000414d        0x3 
 .rodata        0x0000000030004150       0x15 /home/hedley/ada/NXP/LPC/LPC55S69/test3/Ada_Drivers_Library/embedded-runtimes/ravenscar-lpc55s69_evk_s/sfp/adalib/libgnarl.a(s-tarest.o)
 *fill*         0x0000000030004165        0x3 
 .rodata.system__tasking__initialize.str1.4
                0x0000000030004168       0x3a /home/hedley/ada/NXP/LPC/LPC55S69/test3/Ada_Drivers_Library/embedded-runtimes/ravenscar-lpc55s69_evk_s/sfp/adalib/libgnarl.a(s-taskin.o)
 *fill*         0x00000000300041a2        0x2 
 .rodata        0x00000000300041a4        0xd /home/hedley/ada/NXP/LPC/LPC55S69/test3/Ada_Drivers_Library/embedded-runtimes/ravenscar-lpc55s69_evk_s/sfp/adalib/libgnarl.a(s-tposen.o)
 *fill*         0x00000000300041b1        0x3 
 .rodata        0x00000000300041b4       0x18 /home/hedley/ada/NXP/LPC/LPC55S69/test3/Ada_Drivers_Library/embedded-runtimes/ravenscar-lpc55s69_evk_s/sfp/adalib/libgnat.a(a-elchha.o)
 .rodata.__gnat_last_chance_handler.str1.4
                0x00000000300041cc       0x5c /home/hedley/ada/NXP/LPC/LPC55S69/test3/Ada_Drivers_Library/embedded-runtimes/ravenscar-lpc55s69_evk_s/sfp/adalib/libgnat.a(a-elchha.o)
                                         0x5a (size before relaxing)
 .rodata        0x0000000030004228        0xd /home/hedley/ada/NXP/LPC/LPC55S69/test3/Ada_Drivers_Library/embedded-runtimes/ravenscar-lpc55s69_evk_s/sfp/adalib/libgnat.a(s-secsta.o)
 *fill*         0x0000000030004235        0x3 
 .rodata.ada__exceptions__empty_c_string___UNC
                0x0000000030004238        0xc /home/hedley/ada/NXP/LPC/LPC55S69/test3/Ada_Drivers_Library/embedded-runtimes/ravenscar-lpc55s69_evk_s/sfp/adalib/libgnat.a(a-except.o)
                0x0000000030004238                ada__exceptions__empty_c_string___UNC
                0x0000000030004244                . = ALIGN (0x4)

.rel.dyn        0x0000000030004244        0x0
 .rel.iplt      0x0000000030004244        0x0 test_s.o

.data           0x0000000030004248      0x5a8
                0x0000000030004248                __data_start = .
 *(.data .data.* .gnu.linkonce.d*)
 .data.button_E
                0x0000000030004248        0x2 /home/hedley/ada/NXP/LPC/LPC55S69/test3/test_s/obj/Debug/button.o
                0x0000000030004248                button_E
 *fill*         0x000000003000424a        0x2 
 .data.button__C7s
                0x000000003000424c        0x4 /home/hedley/ada/NXP/LPC/LPC55S69/test3/test_s/obj/Debug/button.o
                0x000000003000424c                button__C7s
 .data.nxp__board_E
                0x0000000030004250        0x2 /home/hedley/ada/NXP/LPC/LPC55S69/test3/Ada_Drivers_Library/boards/lib/lpc55s69_evk_s/ravenscar-sfp/Debug/liblpc55s69_evk_s.a(nxp-board.o)
                0x0000000030004250                nxp__board_E
 .data.nxp__device_E
                0x0000000030004252        0x2 /home/hedley/ada/NXP/LPC/LPC55S69/test3/Ada_Drivers_Library/arch/ARM/NXP/lib/lpc55s69_evk_s/ravenscar-sfp/Debug/liblpc55s69.a(nxp-device.o)
                0x0000000030004252                nxp__device_E
 .data.nxp__gpio_E
                0x0000000030004254        0x2 /home/hedley/ada/NXP/LPC/LPC55S69/test3/Ada_Drivers_Library/arch/ARM/NXP/lib/lpc55s69_evk_s/ravenscar-sfp/Debug/liblpc55s69.a(nxp-gpio.o)
                0x0000000030004254                nxp__gpio_E
 .data.nxp__inputmux_E
                0x0000000030004256        0x2 /home/hedley/ada/NXP/LPC/LPC55S69/test3/Ada_Drivers_Library/arch/ARM/NXP/lib/lpc55s69_evk_s/ravenscar-sfp/Debug/liblpc55s69.a(nxp-inputmux.o)
                0x0000000030004256                nxp__inputmux_E
 .data.nxp__pint_E
                0x0000000030004258        0x2 /home/hedley/ada/NXP/LPC/LPC55S69/test3/Ada_Drivers_Library/arch/ARM/NXP/lib/lpc55s69_evk_s/ravenscar-sfp/Debug/liblpc55s69.a(nxp-pint.o)
                0x0000000030004258                nxp__pint_E
 .data.ada__real_time_E
                0x000000003000425a        0x2 /home/hedley/ada/NXP/LPC/LPC55S69/test3/Ada_Drivers_Library/embedded-runtimes/ravenscar-lpc55s69_evk_s/sfp/adalib/libgnarl.a(a-reatim.o)
                0x000000003000425a                ada__real_time_E
 .data.system__bb__cpu_primitives__defer_context_switch
                0x000000003000425c        0x1 /home/hedley/ada/NXP/LPC/LPC55S69/test3/Ada_Drivers_Library/embedded-runtimes/ravenscar-lpc55s69_evk_s/sfp/adalib/libgnarl.a(s-bbcppr.o)
                0x000000003000425c                system__bb__cpu_primitives__defer_context_switch
 *fill*         0x000000003000425d        0x3 
 .data.system__bb__interrupts__interrupt_being_handled
                0x0000000030004260        0x4 /home/hedley/ada/NXP/LPC/LPC55S69/test3/Ada_Drivers_Library/embedded-runtimes/ravenscar-lpc55s69_evk_s/sfp/adalib/libgnarl.a(s-bbinte.o)
                0x0000000030004260                system__bb__interrupts__interrupt_being_handled
 .data.__gnat_running_thread_table
                0x0000000030004264        0x4 /home/hedley/ada/NXP/LPC/LPC55S69/test3/Ada_Drivers_Library/embedded-runtimes/ravenscar-lpc55s69_evk_s/sfp/adalib/libgnarl.a(s-bbthqu.o)
                0x0000000030004264                __gnat_running_thread_table
 .data.first_thread_table
                0x0000000030004268        0x4 /home/hedley/ada/NXP/LPC/LPC55S69/test3/Ada_Drivers_Library/embedded-runtimes/ravenscar-lpc55s69_evk_s/sfp/adalib/libgnarl.a(s-bbthqu.o)
                0x0000000030004268                first_thread_table
 .data.system__bb__threads__queues__alarms_table
                0x000000003000426c        0x4 /home/hedley/ada/NXP/LPC/LPC55S69/test3/Ada_Drivers_Library/embedded-runtimes/ravenscar-lpc55s69_evk_s/sfp/adalib/libgnarl.a(s-bbthqu.o)
                0x000000003000426c                system__bb__threads__queues__alarms_table
 .data.system__bb__threads__queues__global_list
                0x0000000030004270        0x4 /home/hedley/ada/NXP/LPC/LPC55S69/test3/Ada_Drivers_Library/embedded-runtimes/ravenscar-lpc55s69_evk_s/sfp/adalib/libgnarl.a(s-bbthqu.o)
                0x0000000030004270                system__bb__threads__queues__global_list
 *fill*         0x0000000030004274        0x4 
 .data.system__bb__time__max_sleep
                0x0000000030004278        0x8 /home/hedley/ada/NXP/LPC/LPC55S69/test3/Ada_Drivers_Library/embedded-runtimes/ravenscar-lpc55s69_evk_s/sfp/adalib/libgnarl.a(s-bbtime.o)
                0x0000000030004278                system__bb__time__max_sleep
 .data.system__bb__time__pending_alarm
                0x0000000030004280        0x8 /home/hedley/ada/NXP/LPC/LPC55S69/test3/Ada_Drivers_Library/embedded-runtimes/ravenscar-lpc55s69_evk_s/sfp/adalib/libgnarl.a(s-bbtime.o)
                0x0000000030004280                system__bb__time__pending_alarm
 .data.system__bb__time__scheduling_event_hook
                0x0000000030004288        0x4 /home/hedley/ada/NXP/LPC/LPC55S69/test3/Ada_Drivers_Library/embedded-runtimes/ravenscar-lpc55s69_evk_s/sfp/adalib/libgnarl.a(s-bbtime.o)
                0x0000000030004288                system__bb__time__scheduling_event_hook
 .data.system__bb__time__software_clock
                0x000000003000428c        0x8 /home/hedley/ada/NXP/LPC/LPC55S69/test3/Ada_Drivers_Library/embedded-runtimes/ravenscar-lpc55s69_evk_s/sfp/adalib/libgnarl.a(s-bbtime.o)
                0x000000003000428c                system__bb__time__software_clock
 .data.system__interrupts__user_handlers
                0x0000000030004294      0x51c /home/hedley/ada/NXP/LPC/LPC55S69/test3/Ada_Drivers_Library/embedded-runtimes/ravenscar-lpc55s69_evk_s/sfp/adalib/libgnarl.a(s-interr.o)
 .data.system__tasking__protected_objects_E
                0x00000000300047b0        0x2 /home/hedley/ada/NXP/LPC/LPC55S69/test3/Ada_Drivers_Library/embedded-runtimes/ravenscar-lpc55s69_evk_s/sfp/adalib/libgnarl.a(s-taprob.o)
                0x00000000300047b0                system__tasking__protected_objects_E
 .data.__gnat_partition_elaboration_policy
                0x00000000300047b2        0x1 /home/hedley/ada/NXP/LPC/LPC55S69/test3/Ada_Drivers_Library/embedded-runtimes/ravenscar-lpc55s69_evk_s/sfp/adalib/libgnarl.a(s-tarest.o)
                0x00000000300047b2                __gnat_partition_elaboration_policy
 *fill*         0x00000000300047b3        0x1 
 .data.system__tasking__restricted__stages_E
                0x00000000300047b4        0x2 /home/hedley/ada/NXP/LPC/LPC55S69/test3/Ada_Drivers_Library/embedded-runtimes/ravenscar-lpc55s69_evk_s/sfp/adalib/libgnarl.a(s-tarest.o)
                0x00000000300047b4                system__tasking__restricted__stages_E
 *fill*         0x00000000300047b6        0x2 
 .data.system__tasking__restricted__stages__tasks_activation_chain
                0x00000000300047b8        0x4 /home/hedley/ada/NXP/LPC/LPC55S69/test3/Ada_Drivers_Library/embedded-runtimes/ravenscar-lpc55s69_evk_s/sfp/adalib/libgnarl.a(s-tarest.o)
 .data.system__tasking__debug__first_task
                0x00000000300047bc        0x4 /home/hedley/ada/NXP/LPC/LPC55S69/test3/Ada_Drivers_Library/embedded-runtimes/ravenscar-lpc55s69_evk_s/sfp/adalib/libgnarl.a(s-tasdeb.o)
                0x00000000300047bc                system__tasking__debug__first_task
 .data.system__tasking__debug__last_task
                0x00000000300047c0        0x4 /home/hedley/ada/NXP/LPC/LPC55S69/test3/Ada_Drivers_Library/embedded-runtimes/ravenscar-lpc55s69_evk_s/sfp/adalib/libgnarl.a(s-tasdeb.o)
                0x00000000300047c0                system__tasking__debug__last_task
 .data.__gl_main_cpu
                0x00000000300047c4        0x4 /home/hedley/ada/NXP/LPC/LPC55S69/test3/Ada_Drivers_Library/embedded-runtimes/ravenscar-lpc55s69_evk_s/sfp/adalib/libgnarl.a(s-taskin.o)
                0x00000000300047c4                __gl_main_cpu
 .data.__gl_main_priority
                0x00000000300047c8        0x4 /home/hedley/ada/NXP/LPC/LPC55S69/test3/Ada_Drivers_Library/embedded-runtimes/ravenscar-lpc55s69_evk_s/sfp/adalib/libgnarl.a(s-taskin.o)
                0x00000000300047c8                __gl_main_priority
 .data.system__tasking__fall_back_handler
                0x00000000300047cc        0x8 /home/hedley/ada/NXP/LPC/LPC55S69/test3/Ada_Drivers_Library/embedded-runtimes/ravenscar-lpc55s69_evk_s/sfp/adalib/libgnarl.a(s-taskin.o)
                0x00000000300047cc                system__tasking__fall_back_handler
 .data.system__tasking__initialized
                0x00000000300047d4        0x1 /home/hedley/ada/NXP/LPC/LPC55S69/test3/Ada_Drivers_Library/embedded-runtimes/ravenscar-lpc55s69_evk_s/sfp/adalib/libgnarl.a(s-taskin.o)
 *fill*         0x00000000300047d5        0x1 
 .data.system__tasking__protected_objects__multiprocessors_E
                0x00000000300047d6        0x2 /home/hedley/ada/NXP/LPC/LPC55S69/test3/Ada_Drivers_Library/embedded-runtimes/ravenscar-lpc55s69_evk_s/sfp/adalib/libgnarl.a(s-tpobmu.o)
                0x00000000300047d6                system__tasking__protected_objects__multiprocessors_E
 .data.system__bb__protection__wakeup_served_entry_callback
                0x00000000300047d8        0x4 /home/hedley/ada/NXP/LPC/LPC55S69/test3/Ada_Drivers_Library/embedded-runtimes/ravenscar-lpc55s69_evk_s/sfp/adalib/libgnarl.a(s-bbprot.o)
                0x00000000300047d8                system__bb__protection__wakeup_served_entry_callback
 .data.system__bb__threads__initialized
                0x00000000300047dc        0x1 /home/hedley/ada/NXP/LPC/LPC55S69/test3/Ada_Drivers_Library/embedded-runtimes/ravenscar-lpc55s69_evk_s/sfp/adalib/libgnarl.a(s-bbthre.o)
                0x00000000300047dc                system__bb__threads__initialized
 *fill*         0x00000000300047dd        0x3 
 .data.system__bb__timing_events__events_table
                0x00000000300047e0        0x4 /home/hedley/ada/NXP/LPC/LPC55S69/test3/Ada_Drivers_Library/embedded-runtimes/ravenscar-lpc55s69_evk_s/sfp/adalib/libgnarl.a(s-bbtiev.o)
                0x00000000300047e0                system__bb__timing_events__events_table
 .data.system__task_primitives__operations__environment_task
                0x00000000300047e4        0x4 /home/hedley/ada/NXP/LPC/LPC55S69/test3/Ada_Drivers_Library/embedded-runtimes/ravenscar-lpc55s69_evk_s/sfp/adalib/libgnarl.a(s-taprop.o)
                0x00000000300047e4                system__task_primitives__operations__environment_task
 .data.system__secondary_stack__num_of_assigned_stacks
                0x00000000300047e8        0x4 /home/hedley/ada/NXP/LPC/LPC55S69/test3/Ada_Drivers_Library/embedded-runtimes/ravenscar-lpc55s69_evk_s/sfp/adalib/libgnat.a(s-secsta.o)
                0x00000000300047e8                system__secondary_stack__num_of_assigned_stacks
 .data.system__text_io__initialized
                0x00000000300047ec        0x1 /home/hedley/ada/NXP/LPC/LPC55S69/test3/Ada_Drivers_Library/embedded-runtimes/ravenscar-lpc55s69_evk_s/sfp/adalib/libgnat.a(s-textio.o)
                0x00000000300047ec                system__text_io__initialized
                0x00000000300047f0                . = ALIGN (0x4)
 *fill*         0x00000000300047ed        0x3 
                0x00000000300047f0                __data_end = .

.igot.plt       0x00000000300047f0        0x0
 .igot.plt      0x00000000300047f0        0x0 test_s.o

.bss            0x00000000300047f0     0x9a58
                0x00000000300047f0                . = ALIGN (0x8)
                0x00000000300047f0                __bss_start = .
 *(.bss .bss.*)
 .bss.ada_main__sec_default_sized_stacks
                0x00000000300047f0      0x210 b__test_s.o
 .bss.button__user_go
                0x0000000030004a00       0x24 /home/hedley/ada/NXP/LPC/LPC55S69/test3/test_s/obj/Debug/button.o
                0x0000000030004a00                button__user_go
 .bss.button__wake_go
                0x0000000030004a24       0x24 /home/hedley/ada/NXP/LPC/LPC55S69/test3/test_s/obj/Debug/button.o
                0x0000000030004a24                button__wake_go
 .bss.button__handler
                0x0000000030004a48       0x10 /home/hedley/ada/NXP/LPC/LPC55S69/test3/test_s/obj/Debug/button.o
                0x0000000030004a48                button__handler
 .bss.nxp__board__S1s
                0x0000000030004a58       0x30 /home/hedley/ada/NXP/LPC/LPC55S69/test3/Ada_Drivers_Library/boards/lib/lpc55s69_evk_s/ravenscar-sfp/Debug/liblpc55s69_evk_s.a(nxp-board.o)
                0x0000000030004a58                s::nxp__board(void) static
 .bss.nxp__device__R4s
                0x0000000030004a88        0x4 /home/hedley/ada/NXP/LPC/LPC55S69/test3/Ada_Drivers_Library/arch/ARM/NXP/lib/lpc55s69_evk_s/ravenscar-sfp/Debug/liblpc55s69.a(nxp-device.o)
                0x0000000030004a88                nxp__device__R4s
 .bss.nxp__device__gpio
                0x0000000030004a8c        0x4 /home/hedley/ada/NXP/LPC/LPC55S69/test3/Ada_Drivers_Library/arch/ARM/NXP/lib/lpc55s69_evk_s/ravenscar-sfp/Debug/liblpc55s69.a(nxp-device.o)
                0x0000000030004a8c                nxp__device__gpio
 .bss.nxp__device__p0_0
                0x0000000030004a90       0x10 /home/hedley/ada/NXP/LPC/LPC55S69/test3/Ada_Drivers_Library/arch/ARM/NXP/lib/lpc55s69_evk_s/ravenscar-sfp/Debug/liblpc55s69.a(nxp-device.o)
                0x0000000030004a90                nxp__device__p0_0
 .bss.nxp__device__p0_1
                0x0000000030004aa0       0x10 /home/hedley/ada/NXP/LPC/LPC55S69/test3/Ada_Drivers_Library/arch/ARM/NXP/lib/lpc55s69_evk_s/ravenscar-sfp/Debug/liblpc55s69.a(nxp-device.o)
                0x0000000030004aa0                nxp__device__p0_1
 .bss.nxp__device__p0_2
                0x0000000030004ab0       0x10 /home/hedley/ada/NXP/LPC/LPC55S69/test3/Ada_Drivers_Library/arch/ARM/NXP/lib/lpc55s69_evk_s/ravenscar-sfp/Debug/liblpc55s69.a(nxp-device.o)
                0x0000000030004ab0                nxp__device__p0_2
 .bss.nxp__device__p0_3
                0x0000000030004ac0       0x10 /home/hedley/ada/NXP/LPC/LPC55S69/test3/Ada_Drivers_Library/arch/ARM/NXP/lib/lpc55s69_evk_s/ravenscar-sfp/Debug/liblpc55s69.a(nxp-device.o)
                0x0000000030004ac0                nxp__device__p0_3
 .bss.nxp__device__p0_4
                0x0000000030004ad0       0x10 /home/hedley/ada/NXP/LPC/LPC55S69/test3/Ada_Drivers_Library/arch/ARM/NXP/lib/lpc55s69_evk_s/ravenscar-sfp/Debug/liblpc55s69.a(nxp-device.o)
                0x0000000030004ad0                nxp__device__p0_4
 .bss.nxp__device__p0_5
                0x0000000030004ae0       0x10 /home/hedley/ada/NXP/LPC/LPC55S69/test3/Ada_Drivers_Library/arch/ARM/NXP/lib/lpc55s69_evk_s/ravenscar-sfp/Debug/liblpc55s69.a(nxp-device.o)
                0x0000000030004ae0                nxp__device__p0_5
 .bss.nxp__device__p0_6
                0x0000000030004af0       0x10 /home/hedley/ada/NXP/LPC/LPC55S69/test3/Ada_Drivers_Library/arch/ARM/NXP/lib/lpc55s69_evk_s/ravenscar-sfp/Debug/liblpc55s69.a(nxp-device.o)
                0x0000000030004af0                nxp__device__p0_6
 .bss.nxp__device__p0_7
                0x0000000030004b00       0x10 /home/hedley/ada/NXP/LPC/LPC55S69/test3/Ada_Drivers_Library/arch/ARM/NXP/lib/lpc55s69_evk_s/ravenscar-sfp/Debug/liblpc55s69.a(nxp-device.o)
                0x0000000030004b00                nxp__device__p0_7
 .bss.nxp__device__p0_8
                0x0000000030004b10       0x10 /home/hedley/ada/NXP/LPC/LPC55S69/test3/Ada_Drivers_Library/arch/ARM/NXP/lib/lpc55s69_evk_s/ravenscar-sfp/Debug/liblpc55s69.a(nxp-device.o)
                0x0000000030004b10                nxp__device__p0_8
 .bss.nxp__device__p0_9
                0x0000000030004b20       0x10 /home/hedley/ada/NXP/LPC/LPC55S69/test3/Ada_Drivers_Library/arch/ARM/NXP/lib/lpc55s69_evk_s/ravenscar-sfp/Debug/liblpc55s69.a(nxp-device.o)
                0x0000000030004b20                nxp__device__p0_9
 .bss.nxp__device__p0_10
                0x0000000030004b30       0x10 /home/hedley/ada/NXP/LPC/LPC55S69/test3/Ada_Drivers_Library/arch/ARM/NXP/lib/lpc55s69_evk_s/ravenscar-sfp/Debug/liblpc55s69.a(nxp-device.o)
                0x0000000030004b30                nxp__device__p0_10
 .bss.nxp__device__p0_11
                0x0000000030004b40       0x10 /home/hedley/ada/NXP/LPC/LPC55S69/test3/Ada_Drivers_Library/arch/ARM/NXP/lib/lpc55s69_evk_s/ravenscar-sfp/Debug/liblpc55s69.a(nxp-device.o)
                0x0000000030004b40                nxp__device__p0_11
 .bss.nxp__device__p0_12
                0x0000000030004b50       0x10 /home/hedley/ada/NXP/LPC/LPC55S69/test3/Ada_Drivers_Library/arch/ARM/NXP/lib/lpc55s69_evk_s/ravenscar-sfp/Debug/liblpc55s69.a(nxp-device.o)
                0x0000000030004b50                nxp__device__p0_12
 .bss.nxp__device__p0_13
                0x0000000030004b60       0x10 /home/hedley/ada/NXP/LPC/LPC55S69/test3/Ada_Drivers_Library/arch/ARM/NXP/lib/lpc55s69_evk_s/ravenscar-sfp/Debug/liblpc55s69.a(nxp-device.o)
                0x0000000030004b60                nxp__device__p0_13
 .bss.nxp__device__p0_14
                0x0000000030004b70       0x10 /home/hedley/ada/NXP/LPC/LPC55S69/test3/Ada_Drivers_Library/arch/ARM/NXP/lib/lpc55s69_evk_s/ravenscar-sfp/Debug/liblpc55s69.a(nxp-device.o)
                0x0000000030004b70                nxp__device__p0_14
 .bss.nxp__device__p0_15
                0x0000000030004b80       0x10 /home/hedley/ada/NXP/LPC/LPC55S69/test3/Ada_Drivers_Library/arch/ARM/NXP/lib/lpc55s69_evk_s/ravenscar-sfp/Debug/liblpc55s69.a(nxp-device.o)
                0x0000000030004b80                nxp__device__p0_15
 .bss.nxp__device__p0_16
                0x0000000030004b90       0x10 /home/hedley/ada/NXP/LPC/LPC55S69/test3/Ada_Drivers_Library/arch/ARM/NXP/lib/lpc55s69_evk_s/ravenscar-sfp/Debug/liblpc55s69.a(nxp-device.o)
                0x0000000030004b90                nxp__device__p0_16
 .bss.nxp__device__p0_17
                0x0000000030004ba0       0x10 /home/hedley/ada/NXP/LPC/LPC55S69/test3/Ada_Drivers_Library/arch/ARM/NXP/lib/lpc55s69_evk_s/ravenscar-sfp/Debug/liblpc55s69.a(nxp-device.o)
                0x0000000030004ba0                nxp__device__p0_17
 .bss.nxp__device__p0_18
                0x0000000030004bb0       0x10 /home/hedley/ada/NXP/LPC/LPC55S69/test3/Ada_Drivers_Library/arch/ARM/NXP/lib/lpc55s69_evk_s/ravenscar-sfp/Debug/liblpc55s69.a(nxp-device.o)
                0x0000000030004bb0                nxp__device__p0_18
 .bss.nxp__device__p0_19
                0x0000000030004bc0       0x10 /home/hedley/ada/NXP/LPC/LPC55S69/test3/Ada_Drivers_Library/arch/ARM/NXP/lib/lpc55s69_evk_s/ravenscar-sfp/Debug/liblpc55s69.a(nxp-device.o)
                0x0000000030004bc0                nxp__device__p0_19
 .bss.nxp__device__p0_20
                0x0000000030004bd0       0x10 /home/hedley/ada/NXP/LPC/LPC55S69/test3/Ada_Drivers_Library/arch/ARM/NXP/lib/lpc55s69_evk_s/ravenscar-sfp/Debug/liblpc55s69.a(nxp-device.o)
                0x0000000030004bd0                nxp__device__p0_20
 .bss.nxp__device__p0_21
                0x0000000030004be0       0x10 /home/hedley/ada/NXP/LPC/LPC55S69/test3/Ada_Drivers_Library/arch/ARM/NXP/lib/lpc55s69_evk_s/ravenscar-sfp/Debug/liblpc55s69.a(nxp-device.o)
                0x0000000030004be0                nxp__device__p0_21
 .bss.nxp__device__p0_22
                0x0000000030004bf0       0x10 /home/hedley/ada/NXP/LPC/LPC55S69/test3/Ada_Drivers_Library/arch/ARM/NXP/lib/lpc55s69_evk_s/ravenscar-sfp/Debug/liblpc55s69.a(nxp-device.o)
                0x0000000030004bf0                nxp__device__p0_22
 .bss.nxp__device__p0_23
                0x0000000030004c00       0x10 /home/hedley/ada/NXP/LPC/LPC55S69/test3/Ada_Drivers_Library/arch/ARM/NXP/lib/lpc55s69_evk_s/ravenscar-sfp/Debug/liblpc55s69.a(nxp-device.o)
                0x0000000030004c00                nxp__device__p0_23
 .bss.nxp__device__p0_24
                0x0000000030004c10       0x10 /home/hedley/ada/NXP/LPC/LPC55S69/test3/Ada_Drivers_Library/arch/ARM/NXP/lib/lpc55s69_evk_s/ravenscar-sfp/Debug/liblpc55s69.a(nxp-device.o)
                0x0000000030004c10                nxp__device__p0_24
 .bss.nxp__device__p0_25
                0x0000000030004c20       0x10 /home/hedley/ada/NXP/LPC/LPC55S69/test3/Ada_Drivers_Library/arch/ARM/NXP/lib/lpc55s69_evk_s/ravenscar-sfp/Debug/liblpc55s69.a(nxp-device.o)
                0x0000000030004c20                nxp__device__p0_25
 .bss.nxp__device__p0_26
                0x0000000030004c30       0x10 /home/hedley/ada/NXP/LPC/LPC55S69/test3/Ada_Drivers_Library/arch/ARM/NXP/lib/lpc55s69_evk_s/ravenscar-sfp/Debug/liblpc55s69.a(nxp-device.o)
                0x0000000030004c30                nxp__device__p0_26
 .bss.nxp__device__p0_27
                0x0000000030004c40       0x10 /home/hedley/ada/NXP/LPC/LPC55S69/test3/Ada_Drivers_Library/arch/ARM/NXP/lib/lpc55s69_evk_s/ravenscar-sfp/Debug/liblpc55s69.a(nxp-device.o)
                0x0000000030004c40                nxp__device__p0_27
 .bss.nxp__device__p0_28
                0x0000000030004c50       0x10 /home/hedley/ada/NXP/LPC/LPC55S69/test3/Ada_Drivers_Library/arch/ARM/NXP/lib/lpc55s69_evk_s/ravenscar-sfp/Debug/liblpc55s69.a(nxp-device.o)
                0x0000000030004c50                nxp__device__p0_28
 .bss.nxp__device__p0_29
                0x0000000030004c60       0x10 /home/hedley/ada/NXP/LPC/LPC55S69/test3/Ada_Drivers_Library/arch/ARM/NXP/lib/lpc55s69_evk_s/ravenscar-sfp/Debug/liblpc55s69.a(nxp-device.o)
                0x0000000030004c60                nxp__device__p0_29
 .bss.nxp__device__p0_30
                0x0000000030004c70       0x10 /home/hedley/ada/NXP/LPC/LPC55S69/test3/Ada_Drivers_Library/arch/ARM/NXP/lib/lpc55s69_evk_s/ravenscar-sfp/Debug/liblpc55s69.a(nxp-device.o)
                0x0000000030004c70                nxp__device__p0_30
 .bss.nxp__device__p0_31
                0x0000000030004c80       0x10 /home/hedley/ada/NXP/LPC/LPC55S69/test3/Ada_Drivers_Library/arch/ARM/NXP/lib/lpc55s69_evk_s/ravenscar-sfp/Debug/liblpc55s69.a(nxp-device.o)
                0x0000000030004c80                nxp__device__p0_31
 .bss.nxp__device__p1_0
                0x0000000030004c90       0x10 /home/hedley/ada/NXP/LPC/LPC55S69/test3/Ada_Drivers_Library/arch/ARM/NXP/lib/lpc55s69_evk_s/ravenscar-sfp/Debug/liblpc55s69.a(nxp-device.o)
                0x0000000030004c90                nxp__device(_ *, )
 .bss.nxp__device__p1_1
                0x0000000030004ca0       0x10 /home/hedley/ada/NXP/LPC/LPC55S69/test3/Ada_Drivers_Library/arch/ARM/NXP/lib/lpc55s69_evk_s/ravenscar-sfp/Debug/liblpc55s69.a(nxp-device.o)
                0x0000000030004ca0                nxp__device__p1_1
 .bss.nxp__device__p1_2
                0x0000000030004cb0       0x10 /home/hedley/ada/NXP/LPC/LPC55S69/test3/Ada_Drivers_Library/arch/ARM/NXP/lib/lpc55s69_evk_s/ravenscar-sfp/Debug/liblpc55s69.a(nxp-device.o)
                0x0000000030004cb0                nxp__device__p1_2
 .bss.nxp__device__p1_3
                0x0000000030004cc0       0x10 /home/hedley/ada/NXP/LPC/LPC55S69/test3/Ada_Drivers_Library/arch/ARM/NXP/lib/lpc55s69_evk_s/ravenscar-sfp/Debug/liblpc55s69.a(nxp-device.o)
                0x0000000030004cc0                nxp__device__p1_3
 .bss.nxp__device__p1_4
                0x0000000030004cd0       0x10 /home/hedley/ada/NXP/LPC/LPC55S69/test3/Ada_Drivers_Library/arch/ARM/NXP/lib/lpc55s69_evk_s/ravenscar-sfp/Debug/liblpc55s69.a(nxp-device.o)
                0x0000000030004cd0                nxp__device__p1_4
 .bss.nxp__device__p1_5
                0x0000000030004ce0       0x10 /home/hedley/ada/NXP/LPC/LPC55S69/test3/Ada_Drivers_Library/arch/ARM/NXP/lib/lpc55s69_evk_s/ravenscar-sfp/Debug/liblpc55s69.a(nxp-device.o)
                0x0000000030004ce0                nxp__device__p1_5
 .bss.nxp__device__p1_6
                0x0000000030004cf0       0x10 /home/hedley/ada/NXP/LPC/LPC55S69/test3/Ada_Drivers_Library/arch/ARM/NXP/lib/lpc55s69_evk_s/ravenscar-sfp/Debug/liblpc55s69.a(nxp-device.o)
                0x0000000030004cf0                nxp__device__p1_6
 .bss.nxp__device__p1_7
                0x0000000030004d00       0x10 /home/hedley/ada/NXP/LPC/LPC55S69/test3/Ada_Drivers_Library/arch/ARM/NXP/lib/lpc55s69_evk_s/ravenscar-sfp/Debug/liblpc55s69.a(nxp-device.o)
                0x0000000030004d00                nxp__device__p1_7
 .bss.nxp__device__p1_8
                0x0000000030004d10       0x10 /home/hedley/ada/NXP/LPC/LPC55S69/test3/Ada_Drivers_Library/arch/ARM/NXP/lib/lpc55s69_evk_s/ravenscar-sfp/Debug/liblpc55s69.a(nxp-device.o)
                0x0000000030004d10                nxp__device__p1_8
 .bss.nxp__device__p1_9
                0x0000000030004d20       0x10 /home/hedley/ada/NXP/LPC/LPC55S69/test3/Ada_Drivers_Library/arch/ARM/NXP/lib/lpc55s69_evk_s/ravenscar-sfp/Debug/liblpc55s69.a(nxp-device.o)
                0x0000000030004d20                nxp__device__p1_9
 .bss.nxp__device__p1_10
                0x0000000030004d30       0x10 /home/hedley/ada/NXP/LPC/LPC55S69/test3/Ada_Drivers_Library/arch/ARM/NXP/lib/lpc55s69_evk_s/ravenscar-sfp/Debug/liblpc55s69.a(nxp-device.o)
                0x0000000030004d30                nxp__device__p1_10
 .bss.nxp__device__p1_11
                0x0000000030004d40       0x10 /home/hedley/ada/NXP/LPC/LPC55S69/test3/Ada_Drivers_Library/arch/ARM/NXP/lib/lpc55s69_evk_s/ravenscar-sfp/Debug/liblpc55s69.a(nxp-device.o)
                0x0000000030004d40                nxp__device__p1_11
 .bss.nxp__device__p1_12
                0x0000000030004d50       0x10 /home/hedley/ada/NXP/LPC/LPC55S69/test3/Ada_Drivers_Library/arch/ARM/NXP/lib/lpc55s69_evk_s/ravenscar-sfp/Debug/liblpc55s69.a(nxp-device.o)
                0x0000000030004d50                nxp__device__p1_12
 .bss.nxp__device__p1_13
                0x0000000030004d60       0x10 /home/hedley/ada/NXP/LPC/LPC55S69/test3/Ada_Drivers_Library/arch/ARM/NXP/lib/lpc55s69_evk_s/ravenscar-sfp/Debug/liblpc55s69.a(nxp-device.o)
                0x0000000030004d60                nxp__device__p1_13
 .bss.nxp__device__p1_14
                0x0000000030004d70       0x10 /home/hedley/ada/NXP/LPC/LPC55S69/test3/Ada_Drivers_Library/arch/ARM/NXP/lib/lpc55s69_evk_s/ravenscar-sfp/Debug/liblpc55s69.a(nxp-device.o)
                0x0000000030004d70                nxp__device__p1_14
 .bss.nxp__device__p1_15
                0x0000000030004d80       0x10 /home/hedley/ada/NXP/LPC/LPC55S69/test3/Ada_Drivers_Library/arch/ARM/NXP/lib/lpc55s69_evk_s/ravenscar-sfp/Debug/liblpc55s69.a(nxp-device.o)
                0x0000000030004d80                nxp__device__p1_15
 .bss.nxp__device__p1_16
                0x0000000030004d90       0x10 /home/hedley/ada/NXP/LPC/LPC55S69/test3/Ada_Drivers_Library/arch/ARM/NXP/lib/lpc55s69_evk_s/ravenscar-sfp/Debug/liblpc55s69.a(nxp-device.o)
                0x0000000030004d90                nxp__device__p1_16
 .bss.nxp__device__p1_17
                0x0000000030004da0       0x10 /home/hedley/ada/NXP/LPC/LPC55S69/test3/Ada_Drivers_Library/arch/ARM/NXP/lib/lpc55s69_evk_s/ravenscar-sfp/Debug/liblpc55s69.a(nxp-device.o)
                0x0000000030004da0                nxp__device__p1_17
 .bss.nxp__device__p1_18
                0x0000000030004db0       0x10 /home/hedley/ada/NXP/LPC/LPC55S69/test3/Ada_Drivers_Library/arch/ARM/NXP/lib/lpc55s69_evk_s/ravenscar-sfp/Debug/liblpc55s69.a(nxp-device.o)
                0x0000000030004db0                nxp__device__p1_18
 .bss.nxp__device__p1_19
                0x0000000030004dc0       0x10 /home/hedley/ada/NXP/LPC/LPC55S69/test3/Ada_Drivers_Library/arch/ARM/NXP/lib/lpc55s69_evk_s/ravenscar-sfp/Debug/liblpc55s69.a(nxp-device.o)
                0x0000000030004dc0                nxp__device__p1_19
 .bss.nxp__device__p1_20
                0x0000000030004dd0       0x10 /home/hedley/ada/NXP/LPC/LPC55S69/test3/Ada_Drivers_Library/arch/ARM/NXP/lib/lpc55s69_evk_s/ravenscar-sfp/Debug/liblpc55s69.a(nxp-device.o)
                0x0000000030004dd0                nxp__device__p1_20
 .bss.nxp__device__p1_21
                0x0000000030004de0       0x10 /home/hedley/ada/NXP/LPC/LPC55S69/test3/Ada_Drivers_Library/arch/ARM/NXP/lib/lpc55s69_evk_s/ravenscar-sfp/Debug/liblpc55s69.a(nxp-device.o)
                0x0000000030004de0                nxp__device__p1_21
 .bss.nxp__device__p1_22
                0x0000000030004df0       0x10 /home/hedley/ada/NXP/LPC/LPC55S69/test3/Ada_Drivers_Library/arch/ARM/NXP/lib/lpc55s69_evk_s/ravenscar-sfp/Debug/liblpc55s69.a(nxp-device.o)
                0x0000000030004df0                nxp__device__p1_22
 .bss.nxp__device__p1_23
                0x0000000030004e00       0x10 /home/hedley/ada/NXP/LPC/LPC55S69/test3/Ada_Drivers_Library/arch/ARM/NXP/lib/lpc55s69_evk_s/ravenscar-sfp/Debug/liblpc55s69.a(nxp-device.o)
                0x0000000030004e00                nxp__device__p1_23
 .bss.nxp__device__p1_24
                0x0000000030004e10       0x10 /home/hedley/ada/NXP/LPC/LPC55S69/test3/Ada_Drivers_Library/arch/ARM/NXP/lib/lpc55s69_evk_s/ravenscar-sfp/Debug/liblpc55s69.a(nxp-device.o)
                0x0000000030004e10                nxp__device__p1_24
 .bss.nxp__device__p1_25
                0x0000000030004e20       0x10 /home/hedley/ada/NXP/LPC/LPC55S69/test3/Ada_Drivers_Library/arch/ARM/NXP/lib/lpc55s69_evk_s/ravenscar-sfp/Debug/liblpc55s69.a(nxp-device.o)
                0x0000000030004e20                nxp__device__p1_25
 .bss.nxp__device__p1_26
                0x0000000030004e30       0x10 /home/hedley/ada/NXP/LPC/LPC55S69/test3/Ada_Drivers_Library/arch/ARM/NXP/lib/lpc55s69_evk_s/ravenscar-sfp/Debug/liblpc55s69.a(nxp-device.o)
                0x0000000030004e30                nxp__device__p1_26
 .bss.nxp__device__p1_27
                0x0000000030004e40       0x10 /home/hedley/ada/NXP/LPC/LPC55S69/test3/Ada_Drivers_Library/arch/ARM/NXP/lib/lpc55s69_evk_s/ravenscar-sfp/Debug/liblpc55s69.a(nxp-device.o)
                0x0000000030004e40                nxp__device__p1_27
 .bss.nxp__device__p1_28
                0x0000000030004e50       0x10 /home/hedley/ada/NXP/LPC/LPC55S69/test3/Ada_Drivers_Library/arch/ARM/NXP/lib/lpc55s69_evk_s/ravenscar-sfp/Debug/liblpc55s69.a(nxp-device.o)
                0x0000000030004e50                nxp__device__p1_28
 .bss.nxp__device__p1_29
                0x0000000030004e60       0x10 /home/hedley/ada/NXP/LPC/LPC55S69/test3/Ada_Drivers_Library/arch/ARM/NXP/lib/lpc55s69_evk_s/ravenscar-sfp/Debug/liblpc55s69.a(nxp-device.o)
                0x0000000030004e60                nxp__device__p1_29
 .bss.nxp__device__p1_30
                0x0000000030004e70       0x10 /home/hedley/ada/NXP/LPC/LPC55S69/test3/Ada_Drivers_Library/arch/ARM/NXP/lib/lpc55s69_evk_s/ravenscar-sfp/Debug/liblpc55s69.a(nxp-device.o)
                0x0000000030004e70                nxp__device__p1_30
 .bss.nxp__device__p1_31
                0x0000000030004e80       0x10 /home/hedley/ada/NXP/LPC/LPC55S69/test3/Ada_Drivers_Library/arch/ARM/NXP/lib/lpc55s69_evk_s/ravenscar-sfp/Debug/liblpc55s69.a(nxp-device.o)
                0x0000000030004e80                nxp__device__p1_31
 .bss.nxp__device__R134s
                0x0000000030004e90        0x4 /home/hedley/ada/NXP/LPC/LPC55S69/test3/Ada_Drivers_Library/arch/ARM/NXP/lib/lpc55s69_evk_s/ravenscar-sfp/Debug/liblpc55s69.a(nxp-device.o)
                0x0000000030004e90                nxp__device__R134s
 .bss.nxp__device__secgpio
                0x0000000030004e94        0x4 /home/hedley/ada/NXP/LPC/LPC55S69/test3/Ada_Drivers_Library/arch/ARM/NXP/lib/lpc55s69_evk_s/ravenscar-sfp/Debug/liblpc55s69.a(nxp-device.o)
                0x0000000030004e94                nxp__device__secgpio
 .bss.nxp__device__R137s
                0x0000000030004e98        0x4 /home/hedley/ada/NXP/LPC/LPC55S69/test3/Ada_Drivers_Library/arch/ARM/NXP/lib/lpc55s69_evk_s/ravenscar-sfp/Debug/liblpc55s69.a(nxp-device.o)
                0x0000000030004e98                nxp__device__R137s
 .bss.nxp__device__syscon
                0x0000000030004e9c        0x4 /home/hedley/ada/NXP/LPC/LPC55S69/test3/Ada_Drivers_Library/arch/ARM/NXP/lib/lpc55s69_evk_s/ravenscar-sfp/Debug/liblpc55s69.a(nxp-device.o)
                0x0000000030004e9c                nxp__device__syscon
 .bss.nxp__gpio__R1b
                0x0000000030004ea0        0x4 /home/hedley/ada/NXP/LPC/LPC55S69/test3/Ada_Drivers_Library/arch/ARM/NXP/lib/lpc55s69_evk_s/ravenscar-sfp/Debug/liblpc55s69.a(nxp-gpio.o)
                0x0000000030004ea0                nxp__gpio(b &)
 .bss.nxp__gpio__iocon
                0x0000000030004ea4        0x4 /home/hedley/ada/NXP/LPC/LPC55S69/test3/Ada_Drivers_Library/arch/ARM/NXP/lib/lpc55s69_evk_s/ravenscar-sfp/Debug/liblpc55s69.a(nxp-gpio.o)
                0x0000000030004ea4                nxp__gpio__iocon
 .bss.nxp__pint__R1b
                0x0000000030004ea8        0x4 /home/hedley/ada/NXP/LPC/LPC55S69/test3/Ada_Drivers_Library/arch/ARM/NXP/lib/lpc55s69_evk_s/ravenscar-sfp/Debug/liblpc55s69.a(nxp-pint.o)
 .bss.nxp__pint__pint
                0x0000000030004eac        0x4 /home/hedley/ada/NXP/LPC/LPC55S69/test3/Ada_Drivers_Library/arch/ARM/NXP/lib/lpc55s69_evk_s/ravenscar-sfp/Debug/liblpc55s69.a(nxp-pint.o)
                0x0000000030004eac                nxp__pint__pint
 .bss.__gnat_alarm_time
                0x0000000030004eb0        0x4 /home/hedley/ada/NXP/LPC/LPC55S69/test3/Ada_Drivers_Library/embedded-runtimes/ravenscar-lpc55s69_evk_s/sfp/adalib/libgnarl.a(s-bbbosu.o)
                0x0000000030004eb0                __gnat_alarm_time
 .bss.system__bb__board_support__next_tick_time
                0x0000000030004eb4        0x4 /home/hedley/ada/NXP/LPC/LPC55S69/test3/Ada_Drivers_Library/embedded-runtimes/ravenscar-lpc55s69_evk_s/sfp/adalib/libgnarl.a(s-bbbosu.o)
                0x0000000030004eb4                system__bb__board_support__next_tick_time
 .bss.__gnat_bb_exception_handlers
                0x0000000030004eb8       0x44 /home/hedley/ada/NXP/LPC/LPC55S69/test3/Ada_Drivers_Library/embedded-runtimes/ravenscar-lpc55s69_evk_s/sfp/adalib/libgnarl.a(s-bbcppr.o)
                0x0000000030004eb8                __gnat_bb_exception_handlers
 .bss.interrupt_stack_table
                0x0000000030004efc        0x4 /home/hedley/ada/NXP/LPC/LPC55S69/test3/Ada_Drivers_Library/embedded-runtimes/ravenscar-lpc55s69_evk_s/sfp/adalib/libgnarl.a(s-bbinte.o)
                0x0000000030004efc                interrupt_stack_table
 .bss.system__bb__interrupts__interrupt_handlers_table
                0x0000000030004f00      0x1b4 /home/hedley/ada/NXP/LPC/LPC55S69/test3/Ada_Drivers_Library/embedded-runtimes/ravenscar-lpc55s69_evk_s/sfp/adalib/libgnarl.a(s-bbinte.o)
                0x0000000030004f00                system__bb__interrupts__interrupt_handlers_table
 *fill*         0x00000000300050b4        0x4 
 .bss.system__tasking__environment_task
                0x00000000300050b8       0xb8 /home/hedley/ada/NXP/LPC/LPC55S69/test3/Ada_Drivers_Library/embedded-runtimes/ravenscar-lpc55s69_evk_s/sfp/adalib/libgnarl.a(s-taskin.o)
 .bss.system__tasking__protected_objects__multiprocessors__served_entry_call
                0x0000000030005170        0x8 /home/hedley/ada/NXP/LPC/LPC55S69/test3/Ada_Drivers_Library/embedded-runtimes/ravenscar-lpc55s69_evk_s/sfp/adalib/libgnarl.a(s-tpobmu.o)
 .bss.__gnat_idle_stack_table
                0x0000000030005178        0x4 /home/hedley/ada/NXP/LPC/LPC55S69/test3/Ada_Drivers_Library/embedded-runtimes/ravenscar-lpc55s69_evk_s/sfp/adalib/libgnarl.a(s-taprop.o)
                0x0000000030005178                __gnat_idle_stack_table
 *fill*         0x000000003000517c        0x4 
 .bss.system__task_primitives__operations__idle_stacks
                0x0000000030005180      0x800 /home/hedley/ada/NXP/LPC/LPC55S69/test3/Ada_Drivers_Library/embedded-runtimes/ravenscar-lpc55s69_evk_s/sfp/adalib/libgnarl.a(s-taprop.o)
                0x0000000030005180                system__task_primitives__operations__idle_stacks
 .bss.system__task_primitives__operations__idle_tasks
                0x0000000030005980       0xb8 /home/hedley/ada/NXP/LPC/LPC55S69/test3/Ada_Drivers_Library/embedded-runtimes/ravenscar-lpc55s69_evk_s/sfp/adalib/libgnarl.a(s-taprop.o)
                0x0000000030005980                system__task_primitives__operations__idle_tasks
 .bss.__gnat_binder_ss_count
                0x0000000030005a38        0x4 /home/hedley/ada/NXP/LPC/LPC55S69/test3/Ada_Drivers_Library/embedded-runtimes/ravenscar-lpc55s69_evk_s/sfp/adalib/libgnat.a(s-secsta.o)
                0x0000000030005a38                __gnat_binder_ss_count
 .bss.__gnat_default_ss_pool
                0x0000000030005a3c        0x4 /home/hedley/ada/NXP/LPC/LPC55S69/test3/Ada_Drivers_Library/embedded-runtimes/ravenscar-lpc55s69_evk_s/sfp/adalib/libgnat.a(s-secsta.o)
                0x0000000030005a3c                __gnat_default_ss_pool
 .bss.__gnat_default_ss_size
                0x0000000030005a40        0x4 /home/hedley/ada/NXP/LPC/LPC55S69/test3/Ada_Drivers_Library/embedded-runtimes/ravenscar-lpc55s69_evk_s/sfp/adalib/libgnat.a(s-secsta.o)
                0x0000000030005a40                __gnat_default_ss_size
 *(COMMON)
                0x0000000030005a48                . = ALIGN (0x8)
 *fill*         0x0000000030005a44        0x4 
                0x0000000030005a48                __bss_end = .
                0x0000000030005a48                __interrupt_stack_start = .
 *(.interrupt_stacks)
 .interrupt_stacks
                0x0000000030005a48      0x800 /home/hedley/ada/NXP/LPC/LPC55S69/test3/Ada_Drivers_Library/embedded-runtimes/ravenscar-lpc55s69_evk_s/sfp/adalib/libgnarl.a(s-bbinte.o)
                0x0000000030005a48                system__bb__interrupts__interrupt_stacks
                0x0000000030006248                . = ALIGN (0x8)
                0x0000000030006248                __interrupt_stack_end = .
                0x0000000030006248                __stack_start = .
                0x0000000030007248                . = (. + DEFINED (__stack_size)?__stack_size:_DEFAULT_STACK_SIZE)
 *fill*         0x0000000030006248     0x8000 
                0x000000003000e248                . = ALIGN (0x8)
                0x000000003000e248                __stack_end = .
                0x000000003000e248                _end = .
                0x000000003000e248                __heap_start = .
                0x0000000030044000                __heap_end = (ORIGIN (sram_bs) + LENGTH (sram_bs))
                0x0000000000000496                __bss_words = ((__bss_end - __bss_start) >> 0x2)

.debug
 *(.debug)

.line
 *(.line)

.debug_srcinfo
 *(.debug_srcinfo)

.debug_sfnames
 *(.debug_sfnames)

.debug_aranges  0x0000000000000000      0xb88
 *(.debug_aranges)
 .debug_aranges
                0x0000000000000000       0x20 test_s.o
 .debug_aranges
                0x0000000000000020       0x30 b__test_s.o
 .debug_aranges
                0x0000000000000050       0x30 /home/hedley/ada/NXP/LPC/LPC55S69/test3/test_s/obj/Debug/button.o
 .debug_aranges
                0x0000000000000080       0x28 /home/hedley/ada/NXP/LPC/LPC55S69/test3/Ada_Drivers_Library/boards/lib/lpc55s69_evk_s/ravenscar-sfp/Debug/liblpc55s69_evk_s.a(nxp-board.o)
 .debug_aranges
                0x00000000000000a8       0x70 /home/hedley/ada/NXP/LPC/LPC55S69/test3/Ada_Drivers_Library/arch/ARM/NXP/lib/lpc55s69_evk_s/ravenscar-sfp/Debug/liblpc55s69.a(nxp-device.o)
 .debug_aranges
                0x0000000000000118       0xb0 /home/hedley/ada/NXP/LPC/LPC55S69/test3/Ada_Drivers_Library/arch/ARM/NXP/lib/lpc55s69_evk_s/ravenscar-sfp/Debug/liblpc55s69.a(nxp-gpio.o)
 .debug_aranges
                0x00000000000001c8       0x28 /home/hedley/ada/NXP/LPC/LPC55S69/test3/Ada_Drivers_Library/arch/ARM/NXP/lib/lpc55s69_evk_s/ravenscar-sfp/Debug/liblpc55s69.a(nxp-inputmux.o)
 .debug_aranges
                0x00000000000001f0       0x40 /home/hedley/ada/NXP/LPC/LPC55S69/test3/Ada_Drivers_Library/arch/ARM/NXP/lib/lpc55s69_evk_s/ravenscar-sfp/Debug/liblpc55s69.a(nxp-pint.o)
 .debug_aranges
                0x0000000000000230       0x18 /home/hedley/ada/Ada_Drivers_Library/hal/lib/lpc55s69_evk_s/ravenscar-sfp/Debug/libHAL.a(hal-gpio.o)
 .debug_aranges
                0x0000000000000248       0xd8 /home/hedley/ada/NXP/LPC/LPC55S69/test3/Ada_Drivers_Library/embedded-runtimes/ravenscar-lpc55s69_evk_s/sfp/adalib/libgnarl.a(a-reatim.o)
 .debug_aranges
                0x0000000000000320       0x28 /home/hedley/ada/NXP/LPC/LPC55S69/test3/Ada_Drivers_Library/embedded-runtimes/ravenscar-lpc55s69_evk_s/sfp/adalib/libgnarl.a(a-retide.o)
 .debug_aranges
                0x0000000000000348       0x60 /home/hedley/ada/NXP/LPC/LPC55S69/test3/Ada_Drivers_Library/embedded-runtimes/ravenscar-lpc55s69_evk_s/sfp/adalib/libgnarl.a(a-sytaco.o)
 .debug_aranges
                0x00000000000003a8       0xb0 /home/hedley/ada/NXP/LPC/LPC55S69/test3/Ada_Drivers_Library/embedded-runtimes/ravenscar-lpc55s69_evk_s/sfp/adalib/libgnarl.a(s-bbbosu.o)
 .debug_aranges
                0x0000000000000458       0x88 /home/hedley/ada/NXP/LPC/LPC55S69/test3/Ada_Drivers_Library/embedded-runtimes/ravenscar-lpc55s69_evk_s/sfp/adalib/libgnarl.a(s-bbcppr.o)
 .debug_aranges
                0x00000000000004e0       0x40 /home/hedley/ada/NXP/LPC/LPC55S69/test3/Ada_Drivers_Library/embedded-runtimes/ravenscar-lpc55s69_evk_s/sfp/adalib/libgnarl.a(s-bbinte.o)
 .debug_aranges
                0x0000000000000520       0x78 /home/hedley/ada/NXP/LPC/LPC55S69/test3/Ada_Drivers_Library/embedded-runtimes/ravenscar-lpc55s69_evk_s/sfp/adalib/libgnarl.a(s-bbthqu.o)
 .debug_aranges
                0x0000000000000598       0x58 /home/hedley/ada/NXP/LPC/LPC55S69/test3/Ada_Drivers_Library/embedded-runtimes/ravenscar-lpc55s69_evk_s/sfp/adalib/libgnarl.a(s-bbtime.o)
 .debug_aranges
                0x00000000000005f0       0x30 /home/hedley/ada/NXP/LPC/LPC55S69/test3/Ada_Drivers_Library/embedded-runtimes/ravenscar-lpc55s69_evk_s/sfp/adalib/libgnarl.a(s-bcpcst.o)
 .debug_aranges
                0x0000000000000620       0x30 /home/hedley/ada/NXP/LPC/LPC55S69/test3/Ada_Drivers_Library/embedded-runtimes/ravenscar-lpc55s69_evk_s/sfp/adalib/libgnarl.a(s-interr.o)
 .debug_aranges
                0x0000000000000650       0x38 /home/hedley/ada/NXP/LPC/LPC55S69/test3/Ada_Drivers_Library/embedded-runtimes/ravenscar-lpc55s69_evk_s/sfp/adalib/libgnarl.a(s-taprob.o)
 .debug_aranges
                0x0000000000000688       0x78 /home/hedley/ada/NXP/LPC/LPC55S69/test3/Ada_Drivers_Library/embedded-runtimes/ravenscar-lpc55s69_evk_s/sfp/adalib/libgnarl.a(s-tarest.o)
 .debug_aranges
                0x0000000000000700       0x20 /home/hedley/ada/NXP/LPC/LPC55S69/test3/Ada_Drivers_Library/embedded-runtimes/ravenscar-lpc55s69_evk_s/sfp/adalib/libgnarl.a(s-tasdeb.o)
 .debug_aranges
                0x0000000000000720       0x40 /home/hedley/ada/NXP/LPC/LPC55S69/test3/Ada_Drivers_Library/embedded-runtimes/ravenscar-lpc55s69_evk_s/sfp/adalib/libgnarl.a(s-taskin.o)
 .debug_aranges
                0x0000000000000760       0x30 /home/hedley/ada/NXP/LPC/LPC55S69/test3/Ada_Drivers_Library/embedded-runtimes/ravenscar-lpc55s69_evk_s/sfp/adalib/libgnarl.a(s-tpobmu.o)
 .debug_aranges
                0x0000000000000790       0x50 /home/hedley/ada/NXP/LPC/LPC55S69/test3/Ada_Drivers_Library/embedded-runtimes/ravenscar-lpc55s69_evk_s/sfp/adalib/libgnarl.a(s-tposen.o)
 .debug_aranges
                0x00000000000007e0       0x28 /home/hedley/ada/NXP/LPC/LPC55S69/test3/Ada_Drivers_Library/embedded-runtimes/ravenscar-lpc55s69_evk_s/sfp/adalib/libgnarl.a(s-bbprot.o)
 .debug_aranges
                0x0000000000000808       0x78 /home/hedley/ada/NXP/LPC/LPC55S69/test3/Ada_Drivers_Library/embedded-runtimes/ravenscar-lpc55s69_evk_s/sfp/adalib/libgnarl.a(s-bbthre.o)
 .debug_aranges
                0x0000000000000880       0x40 /home/hedley/ada/NXP/LPC/LPC55S69/test3/Ada_Drivers_Library/embedded-runtimes/ravenscar-lpc55s69_evk_s/sfp/adalib/libgnarl.a(s-bbtiev.o)
 .debug_aranges
                0x00000000000008c0       0xa8 /home/hedley/ada/NXP/LPC/LPC55S69/test3/Ada_Drivers_Library/embedded-runtimes/ravenscar-lpc55s69_evk_s/sfp/adalib/libgnarl.a(s-taprop.o)
 .debug_aranges
                0x0000000000000968       0x20 /home/hedley/ada/NXP/LPC/LPC55S69/test3/Ada_Drivers_Library/embedded-runtimes/ravenscar-lpc55s69_evk_s/sfp/adalib/libgnat.a(a-elchha.o)
 .debug_aranges
                0x0000000000000988       0x40 /home/hedley/ada/NXP/LPC/LPC55S69/test3/Ada_Drivers_Library/embedded-runtimes/ravenscar-lpc55s69_evk_s/sfp/adalib/libgnat.a(g-io.o)
 .debug_aranges
                0x00000000000009c8       0x20 /home/hedley/ada/NXP/LPC/LPC55S69/test3/Ada_Drivers_Library/embedded-runtimes/ravenscar-lpc55s69_evk_s/sfp/adalib/libgnat.a(s-assert.o)
 .debug_aranges
                0x00000000000009e8       0x28 /home/hedley/ada/NXP/LPC/LPC55S69/test3/Ada_Drivers_Library/embedded-runtimes/ravenscar-lpc55s69_evk_s/sfp/adalib/libgnat.a(s-macres.o)
 .debug_aranges
                0x0000000000000a10       0x20 /home/hedley/ada/NXP/LPC/LPC55S69/test3/Ada_Drivers_Library/embedded-runtimes/ravenscar-lpc55s69_evk_s/sfp/adalib/libgnat.a(s-memcop.o)
 .debug_aranges
                0x0000000000000a30       0x20 /home/hedley/ada/NXP/LPC/LPC55S69/test3/Ada_Drivers_Library/embedded-runtimes/ravenscar-lpc55s69_evk_s/sfp/adalib/libgnat.a(s-memset.o)
 .debug_aranges
                0x0000000000000a50       0x20 /home/hedley/ada/NXP/LPC/LPC55S69/test3/Ada_Drivers_Library/embedded-runtimes/ravenscar-lpc55s69_evk_s/sfp/adalib/libgnat.a(s-parame.o)
 .debug_aranges
                0x0000000000000a70       0x40 /home/hedley/ada/NXP/LPC/LPC55S69/test3/Ada_Drivers_Library/embedded-runtimes/ravenscar-lpc55s69_evk_s/sfp/adalib/libgnat.a(s-secsta.o)
 .debug_aranges
                0x0000000000000ab0       0x40 /home/hedley/ada/NXP/LPC/LPC55S69/test3/Ada_Drivers_Library/embedded-runtimes/ravenscar-lpc55s69_evk_s/sfp/adalib/libgnat.a(s-textio.o)
 .debug_aranges
                0x0000000000000af0       0x18 /home/hedley/ada/NXP/LPC/LPC55S69/test3/Ada_Drivers_Library/embedded-runtimes/ravenscar-lpc55s69_evk_s/sfp/adalib/libgnat.a(a-except.o)
 .debug_aranges
                0x0000000000000b08       0x20 /home/hedley/ada/NXP/LPC/LPC55S69/test3/Ada_Drivers_Library/embedded-runtimes/ravenscar-lpc55s69_evk_s/sfp/adalib/libgnat.a(setup_pll.o)
 .debug_aranges
                0x0000000000000b28       0x20 /opt/GNAT/2019-arm-elf/bin/../lib/gcc/arm-eabi/7.4.1/thumb/v7e-m/fpv4-sp/hard/libgcc.a(_aeabi_ldivmod.o)
 .debug_aranges
                0x0000000000000b48       0x20 /opt/GNAT/2019-arm-elf/bin/../lib/gcc/arm-eabi/7.4.1/thumb/v7e-m/fpv4-sp/hard/libgcc.a(_udivmoddi4.o)
 .debug_aranges
                0x0000000000000b68       0x20 /opt/GNAT/2019-arm-elf/bin/../lib/gcc/arm-eabi/7.4.1/thumb/v7e-m/fpv4-sp/hard/libgcc.a(_dvmd_tls.o)

.debug_pubnames
 *(.debug_pubnames)

.debug_info     0x0000000000000000    0x1c47a
 *(.debug_info .gnu.linkonce.wi.*)
 .debug_info    0x0000000000000000     0x1a1b test_s.o
 .debug_info    0x0000000000001a1b      0x485 b__test_s.o
 .debug_info    0x0000000000001ea0      0x8a0 /home/hedley/ada/NXP/LPC/LPC55S69/test3/test_s/obj/Debug/button.o
 .debug_info    0x0000000000002740      0x82d /home/hedley/ada/NXP/LPC/LPC55S69/test3/Ada_Drivers_Library/boards/lib/lpc55s69_evk_s/ravenscar-sfp/Debug/liblpc55s69_evk_s.a(nxp-board.o)
 .debug_info    0x0000000000002f6d     0x6a10 /home/hedley/ada/NXP/LPC/LPC55S69/test3/Ada_Drivers_Library/arch/ARM/NXP/lib/lpc55s69_evk_s/ravenscar-sfp/Debug/liblpc55s69.a(nxp-device.o)
 .debug_info    0x000000000000997d     0x2b7b /home/hedley/ada/NXP/LPC/LPC55S69/test3/Ada_Drivers_Library/arch/ARM/NXP/lib/lpc55s69_evk_s/ravenscar-sfp/Debug/liblpc55s69.a(nxp-gpio.o)
 .debug_info    0x000000000000c4f8      0x11a /home/hedley/ada/NXP/LPC/LPC55S69/test3/Ada_Drivers_Library/arch/ARM/NXP/lib/lpc55s69_evk_s/ravenscar-sfp/Debug/liblpc55s69.a(nxp-inputmux.o)
 .debug_info    0x000000000000c612      0xb39 /home/hedley/ada/NXP/LPC/LPC55S69/test3/Ada_Drivers_Library/arch/ARM/NXP/lib/lpc55s69_evk_s/ravenscar-sfp/Debug/liblpc55s69.a(nxp-pint.o)
 .debug_info    0x000000000000d14b       0x41 /home/hedley/ada/Ada_Drivers_Library/hal/lib/lpc55s69_evk_s/ravenscar-sfp/Debug/libHAL.a(hal-gpio.o)
 .debug_info    0x000000000000d18c     0x1137 /home/hedley/ada/NXP/LPC/LPC55S69/test3/Ada_Drivers_Library/embedded-runtimes/ravenscar-lpc55s69_evk_s/sfp/adalib/libgnarl.a(a-reatim.o)
 .debug_info    0x000000000000e2c3      0x7f9 /home/hedley/ada/NXP/LPC/LPC55S69/test3/Ada_Drivers_Library/embedded-runtimes/ravenscar-lpc55s69_evk_s/sfp/adalib/libgnarl.a(a-retide.o)
 .debug_info    0x000000000000eabc      0xc09 /home/hedley/ada/NXP/LPC/LPC55S69/test3/Ada_Drivers_Library/embedded-runtimes/ravenscar-lpc55s69_evk_s/sfp/adalib/libgnarl.a(a-sytaco.o)
 .debug_info    0x000000000000f6c5      0x877 /home/hedley/ada/NXP/LPC/LPC55S69/test3/Ada_Drivers_Library/embedded-runtimes/ravenscar-lpc55s69_evk_s/sfp/adalib/libgnarl.a(s-bbbosu.o)
 .debug_info    0x000000000000ff3c      0xc4e /home/hedley/ada/NXP/LPC/LPC55S69/test3/Ada_Drivers_Library/embedded-runtimes/ravenscar-lpc55s69_evk_s/sfp/adalib/libgnarl.a(s-bbcppr.o)
 .debug_info    0x0000000000010b8a      0x742 /home/hedley/ada/NXP/LPC/LPC55S69/test3/Ada_Drivers_Library/embedded-runtimes/ravenscar-lpc55s69_evk_s/sfp/adalib/libgnarl.a(s-bbinte.o)
 .debug_info    0x00000000000112cc      0x6c6 /home/hedley/ada/NXP/LPC/LPC55S69/test3/Ada_Drivers_Library/embedded-runtimes/ravenscar-lpc55s69_evk_s/sfp/adalib/libgnarl.a(s-bbthqu.o)
 .debug_info    0x0000000000011992      0xdc1 /home/hedley/ada/NXP/LPC/LPC55S69/test3/Ada_Drivers_Library/embedded-runtimes/ravenscar-lpc55s69_evk_s/sfp/adalib/libgnarl.a(s-bbtime.o)
 .debug_info    0x0000000000012753       0xb7 /home/hedley/ada/NXP/LPC/LPC55S69/test3/Ada_Drivers_Library/embedded-runtimes/ravenscar-lpc55s69_evk_s/sfp/adalib/libgnarl.a(s-bcpcst.o)
 .debug_info    0x000000000001280a      0x430 /home/hedley/ada/NXP/LPC/LPC55S69/test3/Ada_Drivers_Library/embedded-runtimes/ravenscar-lpc55s69_evk_s/sfp/adalib/libgnarl.a(s-interr.o)
 .debug_info    0x0000000000012c3a      0xa5e /home/hedley/ada/NXP/LPC/LPC55S69/test3/Ada_Drivers_Library/embedded-runtimes/ravenscar-lpc55s69_evk_s/sfp/adalib/libgnarl.a(s-taprob.o)
 .debug_info    0x0000000000013698     0x1469 /home/hedley/ada/NXP/LPC/LPC55S69/test3/Ada_Drivers_Library/embedded-runtimes/ravenscar-lpc55s69_evk_s/sfp/adalib/libgnarl.a(s-tarest.o)
 .debug_info    0x0000000000014b01      0x65b /home/hedley/ada/NXP/LPC/LPC55S69/test3/Ada_Drivers_Library/embedded-runtimes/ravenscar-lpc55s69_evk_s/sfp/adalib/libgnarl.a(s-tasdeb.o)
 .debug_info    0x000000000001515c      0xdd1 /home/hedley/ada/NXP/LPC/LPC55S69/test3/Ada_Drivers_Library/embedded-runtimes/ravenscar-lpc55s69_evk_s/sfp/adalib/libgnarl.a(s-taskin.o)
 .debug_info    0x0000000000015f2d      0xc52 /home/hedley/ada/NXP/LPC/LPC55S69/test3/Ada_Drivers_Library/embedded-runtimes/ravenscar-lpc55s69_evk_s/sfp/adalib/libgnarl.a(s-tpobmu.o)
 .debug_info    0x0000000000016b7f      0xca9 /home/hedley/ada/NXP/LPC/LPC55S69/test3/Ada_Drivers_Library/embedded-runtimes/ravenscar-lpc55s69_evk_s/sfp/adalib/libgnarl.a(s-tposen.o)
 .debug_info    0x0000000000017828      0x373 /home/hedley/ada/NXP/LPC/LPC55S69/test3/Ada_Drivers_Library/embedded-runtimes/ravenscar-lpc55s69_evk_s/sfp/adalib/libgnarl.a(s-bbprot.o)
 .debug_info    0x0000000000017b9b      0xbc6 /home/hedley/ada/NXP/LPC/LPC55S69/test3/Ada_Drivers_Library/embedded-runtimes/ravenscar-lpc55s69_evk_s/sfp/adalib/libgnarl.a(s-bbthre.o)
 .debug_info    0x0000000000018761      0x85e /home/hedley/ada/NXP/LPC/LPC55S69/test3/Ada_Drivers_Library/embedded-runtimes/ravenscar-lpc55s69_evk_s/sfp/adalib/libgnarl.a(s-bbtiev.o)
 .debug_info    0x0000000000018fbf     0x12f1 /home/hedley/ada/NXP/LPC/LPC55S69/test3/Ada_Drivers_Library/embedded-runtimes/ravenscar-lpc55s69_evk_s/sfp/adalib/libgnarl.a(s-taprop.o)
 .debug_info    0x000000000001a2b0      0x2be /home/hedley/ada/NXP/LPC/LPC55S69/test3/Ada_Drivers_Library/embedded-runtimes/ravenscar-lpc55s69_evk_s/sfp/adalib/libgnat.a(a-elchha.o)
 .debug_info    0x000000000001a56e      0x31f /home/hedley/ada/NXP/LPC/LPC55S69/test3/Ada_Drivers_Library/embedded-runtimes/ravenscar-lpc55s69_evk_s/sfp/adalib/libgnat.a(g-io.o)
 .debug_info    0x000000000001a88d      0x1b8 /home/hedley/ada/NXP/LPC/LPC55S69/test3/Ada_Drivers_Library/embedded-runtimes/ravenscar-lpc55s69_evk_s/sfp/adalib/libgnat.a(s-assert.o)
 .debug_info    0x000000000001aa45       0xee /home/hedley/ada/NXP/LPC/LPC55S69/test3/Ada_Drivers_Library/embedded-runtimes/ravenscar-lpc55s69_evk_s/sfp/adalib/libgnat.a(s-macres.o)
 .debug_info    0x000000000001ab33       0xc3 /home/hedley/ada/NXP/LPC/LPC55S69/test3/Ada_Drivers_Library/embedded-runtimes/ravenscar-lpc55s69_evk_s/sfp/adalib/libgnat.a(s-memcop.o)
 .debug_info    0x000000000001abf6      0x122 /home/hedley/ada/NXP/LPC/LPC55S69/test3/Ada_Drivers_Library/embedded-runtimes/ravenscar-lpc55s69_evk_s/sfp/adalib/libgnat.a(s-memset.o)
 .debug_info    0x000000000001ad18      0x13d /home/hedley/ada/NXP/LPC/LPC55S69/test3/Ada_Drivers_Library/embedded-runtimes/ravenscar-lpc55s69_evk_s/sfp/adalib/libgnat.a(s-parame.o)
 .debug_info    0x000000000001ae55      0x661 /home/hedley/ada/NXP/LPC/LPC55S69/test3/Ada_Drivers_Library/embedded-runtimes/ravenscar-lpc55s69_evk_s/sfp/adalib/libgnat.a(s-secsta.o)
 .debug_info    0x000000000001b4b6       0xcc /home/hedley/ada/NXP/LPC/LPC55S69/test3/Ada_Drivers_Library/embedded-runtimes/ravenscar-lpc55s69_evk_s/sfp/adalib/libgnat.a(s-textio.o)
 .debug_info    0x000000000001b582      0x157 /home/hedley/ada/NXP/LPC/LPC55S69/test3/Ada_Drivers_Library/embedded-runtimes/ravenscar-lpc55s69_evk_s/sfp/adalib/libgnat.a(a-except.o)
 .debug_info    0x000000000001b6d9       0x56 /home/hedley/ada/NXP/LPC/LPC55S69/test3/Ada_Drivers_Library/embedded-runtimes/ravenscar-lpc55s69_evk_s/sfp/adalib/libgnat.a(setup_pll.o)
 .debug_info    0x000000000001b72f       0x26 /opt/GNAT/2019-arm-elf/bin/../lib/gcc/arm-eabi/7.4.1/thumb/v7e-m/fpv4-sp/hard/libgcc.a(_aeabi_ldivmod.o)
 .debug_info    0x000000000001b755      0xcff /opt/GNAT/2019-arm-elf/bin/../lib/gcc/arm-eabi/7.4.1/thumb/v7e-m/fpv4-sp/hard/libgcc.a(_udivmoddi4.o)
 .debug_info    0x000000000001c454       0x26 /opt/GNAT/2019-arm-elf/bin/../lib/gcc/arm-eabi/7.4.1/thumb/v7e-m/fpv4-sp/hard/libgcc.a(_dvmd_tls.o)

.debug_abbrev   0x0000000000000000     0x6a99
 *(.debug_abbrev)
 .debug_abbrev  0x0000000000000000      0x2ab test_s.o
 .debug_abbrev  0x00000000000002ab      0x213 b__test_s.o
 .debug_abbrev  0x00000000000004be      0x26e /home/hedley/ada/NXP/LPC/LPC55S69/test3/test_s/obj/Debug/button.o
 .debug_abbrev  0x000000000000072c      0x1fb /home/hedley/ada/NXP/LPC/LPC55S69/test3/Ada_Drivers_Library/boards/lib/lpc55s69_evk_s/ravenscar-sfp/Debug/liblpc55s69_evk_s.a(nxp-board.o)
 .debug_abbrev  0x0000000000000927      0x455 /home/hedley/ada/NXP/LPC/LPC55S69/test3/Ada_Drivers_Library/arch/ARM/NXP/lib/lpc55s69_evk_s/ravenscar-sfp/Debug/liblpc55s69.a(nxp-device.o)
 .debug_abbrev  0x0000000000000d7c      0x3df /home/hedley/ada/NXP/LPC/LPC55S69/test3/Ada_Drivers_Library/arch/ARM/NXP/lib/lpc55s69_evk_s/ravenscar-sfp/Debug/liblpc55s69.a(nxp-gpio.o)
 .debug_abbrev  0x000000000000115b       0x42 /home/hedley/ada/NXP/LPC/LPC55S69/test3/Ada_Drivers_Library/arch/ARM/NXP/lib/lpc55s69_evk_s/ravenscar-sfp/Debug/liblpc55s69.a(nxp-inputmux.o)
 .debug_abbrev  0x000000000000119d      0x21c /home/hedley/ada/NXP/LPC/LPC55S69/test3/Ada_Drivers_Library/arch/ARM/NXP/lib/lpc55s69_evk_s/ravenscar-sfp/Debug/liblpc55s69.a(nxp-pint.o)
 .debug_abbrev  0x00000000000013b9       0x28 /home/hedley/ada/Ada_Drivers_Library/hal/lib/lpc55s69_evk_s/ravenscar-sfp/Debug/libHAL.a(hal-gpio.o)
 .debug_abbrev  0x00000000000013e1      0x34c /home/hedley/ada/NXP/LPC/LPC55S69/test3/Ada_Drivers_Library/embedded-runtimes/ravenscar-lpc55s69_evk_s/sfp/adalib/libgnarl.a(a-reatim.o)
 .debug_abbrev  0x000000000000172d      0x36a /home/hedley/ada/NXP/LPC/LPC55S69/test3/Ada_Drivers_Library/embedded-runtimes/ravenscar-lpc55s69_evk_s/sfp/adalib/libgnarl.a(a-retide.o)
 .debug_abbrev  0x0000000000001a97      0x3c5 /home/hedley/ada/NXP/LPC/LPC55S69/test3/Ada_Drivers_Library/embedded-runtimes/ravenscar-lpc55s69_evk_s/sfp/adalib/libgnarl.a(a-sytaco.o)
 .debug_abbrev  0x0000000000001e5c      0x3c7 /home/hedley/ada/NXP/LPC/LPC55S69/test3/Ada_Drivers_Library/embedded-runtimes/ravenscar-lpc55s69_evk_s/sfp/adalib/libgnarl.a(s-bbbosu.o)
 .debug_abbrev  0x0000000000002223      0x436 /home/hedley/ada/NXP/LPC/LPC55S69/test3/Ada_Drivers_Library/embedded-runtimes/ravenscar-lpc55s69_evk_s/sfp/adalib/libgnarl.a(s-bbcppr.o)
 .debug_abbrev  0x0000000000002659      0x397 /home/hedley/ada/NXP/LPC/LPC55S69/test3/Ada_Drivers_Library/embedded-runtimes/ravenscar-lpc55s69_evk_s/sfp/adalib/libgnarl.a(s-bbinte.o)
 .debug_abbrev  0x00000000000029f0      0x375 /home/hedley/ada/NXP/LPC/LPC55S69/test3/Ada_Drivers_Library/embedded-runtimes/ravenscar-lpc55s69_evk_s/sfp/adalib/libgnarl.a(s-bbthqu.o)
 .debug_abbrev  0x0000000000002d65      0x405 /home/hedley/ada/NXP/LPC/LPC55S69/test3/Ada_Drivers_Library/embedded-runtimes/ravenscar-lpc55s69_evk_s/sfp/adalib/libgnarl.a(s-bbtime.o)
 .debug_abbrev  0x000000000000316a       0x99 /home/hedley/ada/NXP/LPC/LPC55S69/test3/Ada_Drivers_Library/embedded-runtimes/ravenscar-lpc55s69_evk_s/sfp/adalib/libgnarl.a(s-bcpcst.o)
 .debug_abbrev  0x0000000000003203      0x22d /home/hedley/ada/NXP/LPC/LPC55S69/test3/Ada_Drivers_Library/embedded-runtimes/ravenscar-lpc55s69_evk_s/sfp/adalib/libgnarl.a(s-interr.o)
 .debug_abbrev  0x0000000000003430      0x421 /home/hedley/ada/NXP/LPC/LPC55S69/test3/Ada_Drivers_Library/embedded-runtimes/ravenscar-lpc55s69_evk_s/sfp/adalib/libgnarl.a(s-taprob.o)
 .debug_abbrev  0x0000000000003851      0x5c6 /home/hedley/ada/NXP/LPC/LPC55S69/test3/Ada_Drivers_Library/embedded-runtimes/ravenscar-lpc55s69_evk_s/sfp/adalib/libgnarl.a(s-tarest.o)
 .debug_abbrev  0x0000000000003e17      0x232 /home/hedley/ada/NXP/LPC/LPC55S69/test3/Ada_Drivers_Library/embedded-runtimes/ravenscar-lpc55s69_evk_s/sfp/adalib/libgnarl.a(s-tasdeb.o)
 .debug_abbrev  0x0000000000004049      0x4f2 /home/hedley/ada/NXP/LPC/LPC55S69/test3/Ada_Drivers_Library/embedded-runtimes/ravenscar-lpc55s69_evk_s/sfp/adalib/libgnarl.a(s-taskin.o)
 .debug_abbrev  0x000000000000453b      0x3d7 /home/hedley/ada/NXP/LPC/LPC55S69/test3/Ada_Drivers_Library/embedded-runtimes/ravenscar-lpc55s69_evk_s/sfp/adalib/libgnarl.a(s-tpobmu.o)
 .debug_abbrev  0x0000000000004912      0x3eb /home/hedley/ada/NXP/LPC/LPC55S69/test3/Ada_Drivers_Library/embedded-runtimes/ravenscar-lpc55s69_evk_s/sfp/adalib/libgnarl.a(s-tposen.o)
 .debug_abbrev  0x0000000000004cfd      0x24a /home/hedley/ada/NXP/LPC/LPC55S69/test3/Ada_Drivers_Library/embedded-runtimes/ravenscar-lpc55s69_evk_s/sfp/adalib/libgnarl.a(s-bbprot.o)
 .debug_abbrev  0x0000000000004f47      0x43a /home/hedley/ada/NXP/LPC/LPC55S69/test3/Ada_Drivers_Library/embedded-runtimes/ravenscar-lpc55s69_evk_s/sfp/adalib/libgnarl.a(s-bbthre.o)
 .debug_abbrev  0x0000000000005381      0x35b /home/hedley/ada/NXP/LPC/LPC55S69/test3/Ada_Drivers_Library/embedded-runtimes/ravenscar-lpc55s69_evk_s/sfp/adalib/libgnarl.a(s-bbtiev.o)
 .debug_abbrev  0x00000000000056dc      0x5a1 /home/hedley/ada/NXP/LPC/LPC55S69/test3/Ada_Drivers_Library/embedded-runtimes/ravenscar-lpc55s69_evk_s/sfp/adalib/libgnarl.a(s-taprop.o)
 .debug_abbrev  0x0000000000005c7d      0x1a9 /home/hedley/ada/NXP/LPC/LPC55S69/test3/Ada_Drivers_Library/embedded-runtimes/ravenscar-lpc55s69_evk_s/sfp/adalib/libgnat.a(a-elchha.o)
 .debug_abbrev  0x0000000000005e26      0x1f4 /home/hedley/ada/NXP/LPC/LPC55S69/test3/Ada_Drivers_Library/embedded-runtimes/ravenscar-lpc55s69_evk_s/sfp/adalib/libgnat.a(g-io.o)
 .debug_abbrev  0x000000000000601a      0x118 /home/hedley/ada/NXP/LPC/LPC55S69/test3/Ada_Drivers_Library/embedded-runtimes/ravenscar-lpc55s69_evk_s/sfp/adalib/libgnat.a(s-assert.o)
 .debug_abbrev  0x0000000000006132       0xff /home/hedley/ada/NXP/LPC/LPC55S69/test3/Ada_Drivers_Library/embedded-runtimes/ravenscar-lpc55s69_evk_s/sfp/adalib/libgnat.a(s-macres.o)
 .debug_abbrev  0x0000000000006231       0x76 /home/hedley/ada/NXP/LPC/LPC55S69/test3/Ada_Drivers_Library/embedded-runtimes/ravenscar-lpc55s69_evk_s/sfp/adalib/libgnat.a(s-memcop.o)
 .debug_abbrev  0x00000000000062a7       0xe4 /home/hedley/ada/NXP/LPC/LPC55S69/test3/Ada_Drivers_Library/embedded-runtimes/ravenscar-lpc55s69_evk_s/sfp/adalib/libgnat.a(s-memset.o)
 .debug_abbrev  0x000000000000638b       0x95 /home/hedley/ada/NXP/LPC/LPC55S69/test3/Ada_Drivers_Library/embedded-runtimes/ravenscar-lpc55s69_evk_s/sfp/adalib/libgnat.a(s-parame.o)
 .debug_abbrev  0x0000000000006420      0x2e9 /home/hedley/ada/NXP/LPC/LPC55S69/test3/Ada_Drivers_Library/embedded-runtimes/ravenscar-lpc55s69_evk_s/sfp/adalib/libgnat.a(s-secsta.o)
 .debug_abbrev  0x0000000000006709       0xbc /home/hedley/ada/NXP/LPC/LPC55S69/test3/Ada_Drivers_Library/embedded-runtimes/ravenscar-lpc55s69_evk_s/sfp/adalib/libgnat.a(s-textio.o)
 .debug_abbrev  0x00000000000067c5       0xd3 /home/hedley/ada/NXP/LPC/LPC55S69/test3/Ada_Drivers_Library/embedded-runtimes/ravenscar-lpc55s69_evk_s/sfp/adalib/libgnat.a(a-except.o)
 .debug_abbrev  0x0000000000006898       0x40 /home/hedley/ada/NXP/LPC/LPC55S69/test3/Ada_Drivers_Library/embedded-runtimes/ravenscar-lpc55s69_evk_s/sfp/adalib/libgnat.a(setup_pll.o)
 .debug_abbrev  0x00000000000068d8       0x14 /opt/GNAT/2019-arm-elf/bin/../lib/gcc/arm-eabi/7.4.1/thumb/v7e-m/fpv4-sp/hard/libgcc.a(_aeabi_ldivmod.o)
 .debug_abbrev  0x00000000000068ec      0x199 /opt/GNAT/2019-arm-elf/bin/../lib/gcc/arm-eabi/7.4.1/thumb/v7e-m/fpv4-sp/hard/libgcc.a(_udivmoddi4.o)
 .debug_abbrev  0x0000000000006a85       0x14 /opt/GNAT/2019-arm-elf/bin/../lib/gcc/arm-eabi/7.4.1/thumb/v7e-m/fpv4-sp/hard/libgcc.a(_dvmd_tls.o)

.debug_line     0x0000000000000000     0x6752
 *(.debug_line)
 .debug_line    0x0000000000000000      0x269 test_s.o
 .debug_line    0x0000000000000269      0x140 b__test_s.o
 .debug_line    0x00000000000003a9      0x261 /home/hedley/ada/NXP/LPC/LPC55S69/test3/test_s/obj/Debug/button.o
 .debug_line    0x000000000000060a      0x266 /home/hedley/ada/NXP/LPC/LPC55S69/test3/Ada_Drivers_Library/boards/lib/lpc55s69_evk_s/ravenscar-sfp/Debug/liblpc55s69_evk_s.a(nxp-board.o)
 .debug_line    0x0000000000000870      0x48d /home/hedley/ada/NXP/LPC/LPC55S69/test3/Ada_Drivers_Library/arch/ARM/NXP/lib/lpc55s69_evk_s/ravenscar-sfp/Debug/liblpc55s69.a(nxp-device.o)
 .debug_line    0x0000000000000cfd      0x7e1 /home/hedley/ada/NXP/LPC/LPC55S69/test3/Ada_Drivers_Library/arch/ARM/NXP/lib/lpc55s69_evk_s/ravenscar-sfp/Debug/liblpc55s69.a(nxp-gpio.o)
 .debug_line    0x00000000000014de       0xa2 /home/hedley/ada/NXP/LPC/LPC55S69/test3/Ada_Drivers_Library/arch/ARM/NXP/lib/lpc55s69_evk_s/ravenscar-sfp/Debug/liblpc55s69.a(nxp-inputmux.o)
 .debug_line    0x0000000000001580      0x1c2 /home/hedley/ada/NXP/LPC/LPC55S69/test3/Ada_Drivers_Library/arch/ARM/NXP/lib/lpc55s69_evk_s/ravenscar-sfp/Debug/liblpc55s69.a(nxp-pint.o)
 .debug_line    0x0000000000001742       0x1d /home/hedley/ada/Ada_Drivers_Library/hal/lib/lpc55s69_evk_s/ravenscar-sfp/Debug/libHAL.a(hal-gpio.o)
 .debug_line    0x000000000000175f      0x4ea /home/hedley/ada/NXP/LPC/LPC55S69/test3/Ada_Drivers_Library/embedded-runtimes/ravenscar-lpc55s69_evk_s/sfp/adalib/libgnarl.a(a-reatim.o)
 .debug_line    0x0000000000001c49      0x242 /home/hedley/ada/NXP/LPC/LPC55S69/test3/Ada_Drivers_Library/embedded-runtimes/ravenscar-lpc55s69_evk_s/sfp/adalib/libgnarl.a(a-retide.o)
 .debug_line    0x0000000000001e8b      0x2ad /home/hedley/ada/NXP/LPC/LPC55S69/test3/Ada_Drivers_Library/embedded-runtimes/ravenscar-lpc55s69_evk_s/sfp/adalib/libgnarl.a(a-sytaco.o)
 .debug_line    0x0000000000002138      0x33d /home/hedley/ada/NXP/LPC/LPC55S69/test3/Ada_Drivers_Library/embedded-runtimes/ravenscar-lpc55s69_evk_s/sfp/adalib/libgnarl.a(s-bbbosu.o)
 .debug_line    0x0000000000002475      0x3ae /home/hedley/ada/NXP/LPC/LPC55S69/test3/Ada_Drivers_Library/embedded-runtimes/ravenscar-lpc55s69_evk_s/sfp/adalib/libgnarl.a(s-bbcppr.o)
 .debug_line    0x0000000000002823      0x2b0 /home/hedley/ada/NXP/LPC/LPC55S69/test3/Ada_Drivers_Library/embedded-runtimes/ravenscar-lpc55s69_evk_s/sfp/adalib/libgnarl.a(s-bbinte.o)
 .debug_line    0x0000000000002ad3      0x32d /home/hedley/ada/NXP/LPC/LPC55S69/test3/Ada_Drivers_Library/embedded-runtimes/ravenscar-lpc55s69_evk_s/sfp/adalib/libgnarl.a(s-bbthqu.o)
 .debug_line    0x0000000000002e00      0x4ef /home/hedley/ada/NXP/LPC/LPC55S69/test3/Ada_Drivers_Library/embedded-runtimes/ravenscar-lpc55s69_evk_s/sfp/adalib/libgnarl.a(s-bbtime.o)
 .debug_line    0x00000000000032ef       0xd8 /home/hedley/ada/NXP/LPC/LPC55S69/test3/Ada_Drivers_Library/embedded-runtimes/ravenscar-lpc55s69_evk_s/sfp/adalib/libgnarl.a(s-bcpcst.o)
 .debug_line    0x00000000000033c7      0x1d1 /home/hedley/ada/NXP/LPC/LPC55S69/test3/Ada_Drivers_Library/embedded-runtimes/ravenscar-lpc55s69_evk_s/sfp/adalib/libgnarl.a(s-interr.o)
 .debug_line    0x0000000000003598      0x303 /home/hedley/ada/NXP/LPC/LPC55S69/test3/Ada_Drivers_Library/embedded-runtimes/ravenscar-lpc55s69_evk_s/sfp/adalib/libgnarl.a(s-taprob.o)
 .debug_line    0x000000000000389b      0x4cd /home/hedley/ada/NXP/LPC/LPC55S69/test3/Ada_Drivers_Library/embedded-runtimes/ravenscar-lpc55s69_evk_s/sfp/adalib/libgnarl.a(s-tarest.o)
 .debug_line    0x0000000000003d68      0x1b9 /home/hedley/ada/NXP/LPC/LPC55S69/test3/Ada_Drivers_Library/embedded-runtimes/ravenscar-lpc55s69_evk_s/sfp/adalib/libgnarl.a(s-tasdeb.o)
 .debug_line    0x0000000000003f21      0x3b6 /home/hedley/ada/NXP/LPC/LPC55S69/test3/Ada_Drivers_Library/embedded-runtimes/ravenscar-lpc55s69_evk_s/sfp/adalib/libgnarl.a(s-taskin.o)
 .debug_line    0x00000000000042d7      0x3dd /home/hedley/ada/NXP/LPC/LPC55S69/test3/Ada_Drivers_Library/embedded-runtimes/ravenscar-lpc55s69_evk_s/sfp/adalib/libgnarl.a(s-tpobmu.o)
 .debug_line    0x00000000000046b4      0x333 /home/hedley/ada/NXP/LPC/LPC55S69/test3/Ada_Drivers_Library/embedded-runtimes/ravenscar-lpc55s69_evk_s/sfp/adalib/libgnarl.a(s-tposen.o)
 .debug_line    0x00000000000049e7      0x1bf /home/hedley/ada/NXP/LPC/LPC55S69/test3/Ada_Drivers_Library/embedded-runtimes/ravenscar-lpc55s69_evk_s/sfp/adalib/libgnarl.a(s-bbprot.o)
 .debug_line    0x0000000000004ba6      0x552 /home/hedley/ada/NXP/LPC/LPC55S69/test3/Ada_Drivers_Library/embedded-runtimes/ravenscar-lpc55s69_evk_s/sfp/adalib/libgnarl.a(s-bbthre.o)
 .debug_line    0x00000000000050f8      0x2d3 /home/hedley/ada/NXP/LPC/LPC55S69/test3/Ada_Drivers_Library/embedded-runtimes/ravenscar-lpc55s69_evk_s/sfp/adalib/libgnarl.a(s-bbtiev.o)
 .debug_line    0x00000000000053cb      0x575 /home/hedley/ada/NXP/LPC/LPC55S69/test3/Ada_Drivers_Library/embedded-runtimes/ravenscar-lpc55s69_evk_s/sfp/adalib/libgnarl.a(s-taprop.o)
 .debug_line    0x0000000000005940       0xf8 /home/hedley/ada/NXP/LPC/LPC55S69/test3/Ada_Drivers_Library/embedded-runtimes/ravenscar-lpc55s69_evk_s/sfp/adalib/libgnat.a(a-elchha.o)
 .debug_line    0x0000000000005a38      0x17c /home/hedley/ada/NXP/LPC/LPC55S69/test3/Ada_Drivers_Library/embedded-runtimes/ravenscar-lpc55s69_evk_s/sfp/adalib/libgnat.a(g-io.o)
 .debug_line    0x0000000000005bb4       0xeb /home/hedley/ada/NXP/LPC/LPC55S69/test3/Ada_Drivers_Library/embedded-runtimes/ravenscar-lpc55s69_evk_s/sfp/adalib/libgnat.a(s-assert.o)
 .debug_line    0x0000000000005c9f       0xc1 /home/hedley/ada/NXP/LPC/LPC55S69/test3/Ada_Drivers_Library/embedded-runtimes/ravenscar-lpc55s69_evk_s/sfp/adalib/libgnat.a(s-macres.o)
 .debug_line    0x0000000000005d60       0xd0 /home/hedley/ada/NXP/LPC/LPC55S69/test3/Ada_Drivers_Library/embedded-runtimes/ravenscar-lpc55s69_evk_s/sfp/adalib/libgnat.a(s-memcop.o)
 .debug_line    0x0000000000005e30       0xdf /home/hedley/ada/NXP/LPC/LPC55S69/test3/Ada_Drivers_Library/embedded-runtimes/ravenscar-lpc55s69_evk_s/sfp/adalib/libgnat.a(s-memset.o)
 .debug_line    0x0000000000005f0f       0xbe /home/hedley/ada/NXP/LPC/LPC55S69/test3/Ada_Drivers_Library/embedded-runtimes/ravenscar-lpc55s69_evk_s/sfp/adalib/libgnat.a(s-parame.o)
 .debug_line    0x0000000000005fcd      0x171 /home/hedley/ada/NXP/LPC/LPC55S69/test3/Ada_Drivers_Library/embedded-runtimes/ravenscar-lpc55s69_evk_s/sfp/adalib/libgnat.a(s-secsta.o)
 .debug_line    0x000000000000613e      0x163 /home/hedley/ada/NXP/LPC/LPC55S69/test3/Ada_Drivers_Library/embedded-runtimes/ravenscar-lpc55s69_evk_s/sfp/adalib/libgnat.a(s-textio.o)
 .debug_line    0x00000000000062a1       0xbc /home/hedley/ada/NXP/LPC/LPC55S69/test3/Ada_Drivers_Library/embedded-runtimes/ravenscar-lpc55s69_evk_s/sfp/adalib/libgnat.a(a-except.o)
 .debug_line    0x000000000000635d       0xa2 /home/hedley/ada/NXP/LPC/LPC55S69/test3/Ada_Drivers_Library/embedded-runtimes/ravenscar-lpc55s69_evk_s/sfp/adalib/libgnat.a(setup_pll.o)
 .debug_line    0x00000000000063ff       0x85 /opt/GNAT/2019-arm-elf/bin/../lib/gcc/arm-eabi/7.4.1/thumb/v7e-m/fpv4-sp/hard/libgcc.a(_aeabi_ldivmod.o)
 .debug_line    0x0000000000006484      0x267 /opt/GNAT/2019-arm-elf/bin/../lib/gcc/arm-eabi/7.4.1/thumb/v7e-m/fpv4-sp/hard/libgcc.a(_udivmoddi4.o)
 .debug_line    0x00000000000066eb       0x67 /opt/GNAT/2019-arm-elf/bin/../lib/gcc/arm-eabi/7.4.1/thumb/v7e-m/fpv4-sp/hard/libgcc.a(_dvmd_tls.o)

.debug_frame    0x0000000000000000     0x2098
 *(.debug_frame)
 .debug_frame   0x0000000000000000       0x38 test_s.o
 .debug_frame   0x0000000000000038       0x9c b__test_s.o
 .debug_frame   0x00000000000000d4       0xbc /home/hedley/ada/NXP/LPC/LPC55S69/test3/test_s/obj/Debug/button.o
 .debug_frame   0x0000000000000190       0x58 /home/hedley/ada/NXP/LPC/LPC55S69/test3/Ada_Drivers_Library/boards/lib/lpc55s69_evk_s/ravenscar-sfp/Debug/liblpc55s69_evk_s.a(nxp-board.o)
 .debug_frame   0x00000000000001e8      0x1c0 /home/hedley/ada/NXP/LPC/LPC55S69/test3/Ada_Drivers_Library/arch/ARM/NXP/lib/lpc55s69_evk_s/ravenscar-sfp/Debug/liblpc55s69.a(nxp-device.o)
 .debug_frame   0x00000000000003a8      0x44c /home/hedley/ada/NXP/LPC/LPC55S69/test3/Ada_Drivers_Library/arch/ARM/NXP/lib/lpc55s69_evk_s/ravenscar-sfp/Debug/liblpc55s69.a(nxp-gpio.o)
 .debug_frame   0x00000000000007f4       0x50 /home/hedley/ada/NXP/LPC/LPC55S69/test3/Ada_Drivers_Library/arch/ARM/NXP/lib/lpc55s69_evk_s/ravenscar-sfp/Debug/liblpc55s69.a(nxp-inputmux.o)
 .debug_frame   0x0000000000000844       0xec /home/hedley/ada/NXP/LPC/LPC55S69/test3/Ada_Drivers_Library/arch/ARM/NXP/lib/lpc55s69_evk_s/ravenscar-sfp/Debug/liblpc55s69.a(nxp-pint.o)
 .debug_frame   0x0000000000000930      0x2bc /home/hedley/ada/NXP/LPC/LPC55S69/test3/Ada_Drivers_Library/embedded-runtimes/ravenscar-lpc55s69_evk_s/sfp/adalib/libgnarl.a(a-reatim.o)
 .debug_frame   0x0000000000000bec       0x38 /home/hedley/ada/NXP/LPC/LPC55S69/test3/Ada_Drivers_Library/embedded-runtimes/ravenscar-lpc55s69_evk_s/sfp/adalib/libgnarl.a(a-retide.o)
 .debug_frame   0x0000000000000c24      0x114 /home/hedley/ada/NXP/LPC/LPC55S69/test3/Ada_Drivers_Library/embedded-runtimes/ravenscar-lpc55s69_evk_s/sfp/adalib/libgnarl.a(a-sytaco.o)
 .debug_frame   0x0000000000000d38      0x188 /home/hedley/ada/NXP/LPC/LPC55S69/test3/Ada_Drivers_Library/embedded-runtimes/ravenscar-lpc55s69_evk_s/sfp/adalib/libgnarl.a(s-bbbosu.o)
 .debug_frame   0x0000000000000ec0      0x170 /home/hedley/ada/NXP/LPC/LPC55S69/test3/Ada_Drivers_Library/embedded-runtimes/ravenscar-lpc55s69_evk_s/sfp/adalib/libgnarl.a(s-bbcppr.o)
 .debug_frame   0x0000000000001030       0xa4 /home/hedley/ada/NXP/LPC/LPC55S69/test3/Ada_Drivers_Library/embedded-runtimes/ravenscar-lpc55s69_evk_s/sfp/adalib/libgnarl.a(s-bbinte.o)
 .debug_frame   0x00000000000010d4      0x178 /home/hedley/ada/NXP/LPC/LPC55S69/test3/Ada_Drivers_Library/embedded-runtimes/ravenscar-lpc55s69_evk_s/sfp/adalib/libgnarl.a(s-bbthqu.o)
 .debug_frame   0x000000000000124c      0x158 /home/hedley/ada/NXP/LPC/LPC55S69/test3/Ada_Drivers_Library/embedded-runtimes/ravenscar-lpc55s69_evk_s/sfp/adalib/libgnarl.a(s-bbtime.o)
 .debug_frame   0x00000000000013a4       0x40 /home/hedley/ada/NXP/LPC/LPC55S69/test3/Ada_Drivers_Library/embedded-runtimes/ravenscar-lpc55s69_evk_s/sfp/adalib/libgnarl.a(s-bcpcst.o)
 .debug_frame   0x00000000000013e4       0xc0 /home/hedley/ada/NXP/LPC/LPC55S69/test3/Ada_Drivers_Library/embedded-runtimes/ravenscar-lpc55s69_evk_s/sfp/adalib/libgnarl.a(s-interr.o)
 .debug_frame   0x00000000000014a4       0x78 /home/hedley/ada/NXP/LPC/LPC55S69/test3/Ada_Drivers_Library/embedded-runtimes/ravenscar-lpc55s69_evk_s/sfp/adalib/libgnarl.a(s-taprob.o)
 .debug_frame   0x000000000000151c      0x188 /home/hedley/ada/NXP/LPC/LPC55S69/test3/Ada_Drivers_Library/embedded-runtimes/ravenscar-lpc55s69_evk_s/sfp/adalib/libgnarl.a(s-tarest.o)
 .debug_frame   0x00000000000016a4       0x38 /home/hedley/ada/NXP/LPC/LPC55S69/test3/Ada_Drivers_Library/embedded-runtimes/ravenscar-lpc55s69_evk_s/sfp/adalib/libgnarl.a(s-tasdeb.o)
 .debug_frame   0x00000000000016dc       0xcc /home/hedley/ada/NXP/LPC/LPC55S69/test3/Ada_Drivers_Library/embedded-runtimes/ravenscar-lpc55s69_evk_s/sfp/adalib/libgnarl.a(s-taskin.o)
 .debug_frame   0x00000000000017a8       0x74 /home/hedley/ada/NXP/LPC/LPC55S69/test3/Ada_Drivers_Library/embedded-runtimes/ravenscar-lpc55s69_evk_s/sfp/adalib/libgnarl.a(s-tpobmu.o)
 .debug_frame   0x000000000000181c       0xc0 /home/hedley/ada/NXP/LPC/LPC55S69/test3/Ada_Drivers_Library/embedded-runtimes/ravenscar-lpc55s69_evk_s/sfp/adalib/libgnarl.a(s-tposen.o)
 .debug_frame   0x00000000000018dc       0x38 /home/hedley/ada/NXP/LPC/LPC55S69/test3/Ada_Drivers_Library/embedded-runtimes/ravenscar-lpc55s69_evk_s/sfp/adalib/libgnarl.a(s-bbprot.o)
 .debug_frame   0x0000000000001914      0x158 /home/hedley/ada/NXP/LPC/LPC55S69/test3/Ada_Drivers_Library/embedded-runtimes/ravenscar-lpc55s69_evk_s/sfp/adalib/libgnarl.a(s-bbthre.o)
 .debug_frame   0x0000000000001a6c       0xd0 /home/hedley/ada/NXP/LPC/LPC55S69/test3/Ada_Drivers_Library/embedded-runtimes/ravenscar-lpc55s69_evk_s/sfp/adalib/libgnarl.a(s-bbtiev.o)
 .debug_frame   0x0000000000001b3c      0x1ec /home/hedley/ada/NXP/LPC/LPC55S69/test3/Ada_Drivers_Library/embedded-runtimes/ravenscar-lpc55s69_evk_s/sfp/adalib/libgnarl.a(s-taprop.o)
 .debug_frame   0x0000000000001d28       0x28 /home/hedley/ada/NXP/LPC/LPC55S69/test3/Ada_Drivers_Library/embedded-runtimes/ravenscar-lpc55s69_evk_s/sfp/adalib/libgnat.a(a-elchha.o)
 .debug_frame   0x0000000000001d50       0xa8 /home/hedley/ada/NXP/LPC/LPC55S69/test3/Ada_Drivers_Library/embedded-runtimes/ravenscar-lpc55s69_evk_s/sfp/adalib/libgnat.a(g-io.o)
 .debug_frame   0x0000000000001df8       0x2c /home/hedley/ada/NXP/LPC/LPC55S69/test3/Ada_Drivers_Library/embedded-runtimes/ravenscar-lpc55s69_evk_s/sfp/adalib/libgnat.a(s-assert.o)
 .debug_frame   0x0000000000001e24       0x40 /home/hedley/ada/NXP/LPC/LPC55S69/test3/Ada_Drivers_Library/embedded-runtimes/ravenscar-lpc55s69_evk_s/sfp/adalib/libgnat.a(s-macres.o)
 .debug_frame   0x0000000000001e64       0x34 /home/hedley/ada/NXP/LPC/LPC55S69/test3/Ada_Drivers_Library/embedded-runtimes/ravenscar-lpc55s69_evk_s/sfp/adalib/libgnat.a(s-memcop.o)
 .debug_frame   0x0000000000001e98       0x30 /home/hedley/ada/NXP/LPC/LPC55S69/test3/Ada_Drivers_Library/embedded-runtimes/ravenscar-lpc55s69_evk_s/sfp/adalib/libgnat.a(s-memset.o)
 .debug_frame   0x0000000000001ec8       0x20 /home/hedley/ada/NXP/LPC/LPC55S69/test3/Ada_Drivers_Library/embedded-runtimes/ravenscar-lpc55s69_evk_s/sfp/adalib/libgnat.a(s-parame.o)
 .debug_frame   0x0000000000001ee8       0xa8 /home/hedley/ada/NXP/LPC/LPC55S69/test3/Ada_Drivers_Library/embedded-runtimes/ravenscar-lpc55s69_evk_s/sfp/adalib/libgnat.a(s-secsta.o)
 .debug_frame   0x0000000000001f90       0x70 /home/hedley/ada/NXP/LPC/LPC55S69/test3/Ada_Drivers_Library/embedded-runtimes/ravenscar-lpc55s69_evk_s/sfp/adalib/libgnat.a(s-textio.o)
 .debug_frame   0x0000000000002000       0x20 /home/hedley/ada/NXP/LPC/LPC55S69/test3/Ada_Drivers_Library/embedded-runtimes/ravenscar-lpc55s69_evk_s/sfp/adalib/libgnat.a(setup_pll.o)
 .debug_frame   0x0000000000002020       0x44 /opt/GNAT/2019-arm-elf/bin/../lib/gcc/arm-eabi/7.4.1/thumb/v7e-m/fpv4-sp/hard/libgcc.a(_aeabi_ldivmod.o)
 .debug_frame   0x0000000000002064       0x34 /opt/GNAT/2019-arm-elf/bin/../lib/gcc/arm-eabi/7.4.1/thumb/v7e-m/fpv4-sp/hard/libgcc.a(_udivmoddi4.o)

.debug_str      0x0000000000000000    0x18e92
 *(.debug_str)
 .debug_str     0x0000000000000000     0x336d test_s.o
                                       0x33de (size before relaxing)
 .debug_str     0x000000000000336d      0x873 b__test_s.o
                                        0x984 (size before relaxing)
 .debug_str     0x0000000000003be0      0xba2 /home/hedley/ada/NXP/LPC/LPC55S69/test3/test_s/obj/Debug/button.o
                                       0x1216 (size before relaxing)
 .debug_str     0x0000000000004782      0x404 /home/hedley/ada/NXP/LPC/LPC55S69/test3/Ada_Drivers_Library/boards/lib/lpc55s69_evk_s/ravenscar-sfp/Debug/liblpc55s69_evk_s.a(nxp-board.o)
                                        0xc4a (size before relaxing)
 .debug_str     0x0000000000004b86     0xa685 /home/hedley/ada/NXP/LPC/LPC55S69/test3/Ada_Drivers_Library/arch/ARM/NXP/lib/lpc55s69_evk_s/ravenscar-sfp/Debug/liblpc55s69.a(nxp-device.o)
                                       0xaf84 (size before relaxing)
 .debug_str     0x000000000000f20b     0x16ed /home/hedley/ada/NXP/LPC/LPC55S69/test3/Ada_Drivers_Library/arch/ARM/NXP/lib/lpc55s69_evk_s/ravenscar-sfp/Debug/liblpc55s69.a(nxp-gpio.o)
                                       0x49e1 (size before relaxing)
 .debug_str     0x00000000000108f8       0xa1 /home/hedley/ada/NXP/LPC/LPC55S69/test3/Ada_Drivers_Library/arch/ARM/NXP/lib/lpc55s69_evk_s/ravenscar-sfp/Debug/liblpc55s69.a(nxp-inputmux.o)
                                        0x4f4 (size before relaxing)
 .debug_str     0x0000000000010999       0xf8 /home/hedley/ada/NXP/LPC/LPC55S69/test3/Ada_Drivers_Library/arch/ARM/NXP/lib/lpc55s69_evk_s/ravenscar-sfp/Debug/liblpc55s69.a(nxp-pint.o)
                                       0x16c6 (size before relaxing)
 .debug_str     0x0000000000010a91      0x2a2 /home/hedley/ada/Ada_Drivers_Library/hal/lib/lpc55s69_evk_s/ravenscar-sfp/Debug/libHAL.a(hal-gpio.o)
                                        0x2d6 (size before relaxing)
 .debug_str     0x0000000000010d33      0xaaa /home/hedley/ada/NXP/LPC/LPC55S69/test3/Ada_Drivers_Library/embedded-runtimes/ravenscar-lpc55s69_evk_s/sfp/adalib/libgnarl.a(a-reatim.o)
                                        0xb5e (size before relaxing)
 .debug_str     0x00000000000117dd      0x24d /home/hedley/ada/NXP/LPC/LPC55S69/test3/Ada_Drivers_Library/embedded-runtimes/ravenscar-lpc55s69_evk_s/sfp/adalib/libgnarl.a(a-retide.o)
                                       0x10ad (size before relaxing)
 .debug_str     0x0000000000011a2a      0x46e /home/hedley/ada/NXP/LPC/LPC55S69/test3/Ada_Drivers_Library/embedded-runtimes/ravenscar-lpc55s69_evk_s/sfp/adalib/libgnarl.a(a-sytaco.o)
                                       0x1570 (size before relaxing)
 .debug_str     0x0000000000011e98      0x767 /home/hedley/ada/NXP/LPC/LPC55S69/test3/Ada_Drivers_Library/embedded-runtimes/ravenscar-lpc55s69_evk_s/sfp/adalib/libgnarl.a(s-bbbosu.o)
                                        0xb48 (size before relaxing)
 .debug_str     0x00000000000125ff      0x909 /home/hedley/ada/NXP/LPC/LPC55S69/test3/Ada_Drivers_Library/embedded-runtimes/ravenscar-lpc55s69_evk_s/sfp/adalib/libgnarl.a(s-bbcppr.o)
                                       0x1106 (size before relaxing)
 .debug_str     0x0000000000012f08      0x3c2 /home/hedley/ada/NXP/LPC/LPC55S69/test3/Ada_Drivers_Library/embedded-runtimes/ravenscar-lpc55s69_evk_s/sfp/adalib/libgnarl.a(s-bbinte.o)
                                        0xc6d (size before relaxing)
 .debug_str     0x00000000000132ca      0x3f9 /home/hedley/ada/NXP/LPC/LPC55S69/test3/Ada_Drivers_Library/embedded-runtimes/ravenscar-lpc55s69_evk_s/sfp/adalib/libgnarl.a(s-bbthqu.o)
                                        0xa69 (size before relaxing)
 .debug_str     0x00000000000136c3      0x45c /home/hedley/ada/NXP/LPC/LPC55S69/test3/Ada_Drivers_Library/embedded-runtimes/ravenscar-lpc55s69_evk_s/sfp/adalib/libgnarl.a(s-bbtime.o)
                                        0xf4a (size before relaxing)
 .debug_str     0x0000000000013b1f      0x189 /home/hedley/ada/NXP/LPC/LPC55S69/test3/Ada_Drivers_Library/embedded-runtimes/ravenscar-lpc55s69_evk_s/sfp/adalib/libgnarl.a(s-bcpcst.o)
                                        0x480 (size before relaxing)
 .debug_str     0x0000000000013ca8      0x3f0 /home/hedley/ada/NXP/LPC/LPC55S69/test3/Ada_Drivers_Library/embedded-runtimes/ravenscar-lpc55s69_evk_s/sfp/adalib/libgnarl.a(s-interr.o)
                                        0x7e5 (size before relaxing)
 .debug_str     0x0000000000014098      0x28d /home/hedley/ada/NXP/LPC/LPC55S69/test3/Ada_Drivers_Library/embedded-runtimes/ravenscar-lpc55s69_evk_s/sfp/adalib/libgnarl.a(s-taprob.o)
                                       0x1339 (size before relaxing)
 .debug_str     0x0000000000014325      0x675 /home/hedley/ada/NXP/LPC/LPC55S69/test3/Ada_Drivers_Library/embedded-runtimes/ravenscar-lpc55s69_evk_s/sfp/adalib/libgnarl.a(s-tarest.o)
                                       0x1782 (size before relaxing)
 .debug_str     0x000000000001499a      0x293 /home/hedley/ada/NXP/LPC/LPC55S69/test3/Ada_Drivers_Library/embedded-runtimes/ravenscar-lpc55s69_evk_s/sfp/adalib/libgnarl.a(s-tasdeb.o)
                                        0xe75 (size before relaxing)
 .debug_str     0x0000000000014c2d      0x41a /home/hedley/ada/NXP/LPC/LPC55S69/test3/Ada_Drivers_Library/embedded-runtimes/ravenscar-lpc55s69_evk_s/sfp/adalib/libgnarl.a(s-taskin.o)
                                       0x15a2 (size before relaxing)
 .debug_str     0x0000000000015047      0x417 /home/hedley/ada/NXP/LPC/LPC55S69/test3/Ada_Drivers_Library/embedded-runtimes/ravenscar-lpc55s69_evk_s/sfp/adalib/libgnarl.a(s-tpobmu.o)
                                       0x14da (size before relaxing)
 .debug_str     0x000000000001545e      0x291 /home/hedley/ada/NXP/LPC/LPC55S69/test3/Ada_Drivers_Library/embedded-runtimes/ravenscar-lpc55s69_evk_s/sfp/adalib/libgnarl.a(s-tposen.o)
                                       0x16b3 (size before relaxing)
 .debug_str     0x00000000000156ef       0xd5 /home/hedley/ada/NXP/LPC/LPC55S69/test3/Ada_Drivers_Library/embedded-runtimes/ravenscar-lpc55s69_evk_s/sfp/adalib/libgnarl.a(s-bbprot.o)
                                        0x885 (size before relaxing)
 .debug_str     0x00000000000157c4      0x177 /home/hedley/ada/NXP/LPC/LPC55S69/test3/Ada_Drivers_Library/embedded-runtimes/ravenscar-lpc55s69_evk_s/sfp/adalib/libgnarl.a(s-bbthre.o)
                                        0xcec (size before relaxing)
 .debug_str     0x000000000001593b      0x1b1 /home/hedley/ada/NXP/LPC/LPC55S69/test3/Ada_Drivers_Library/embedded-runtimes/ravenscar-lpc55s69_evk_s/sfp/adalib/libgnarl.a(s-bbtiev.o)
                                        0xa19 (size before relaxing)
 .debug_str     0x0000000000015aec      0x490 /home/hedley/ada/NXP/LPC/LPC55S69/test3/Ada_Drivers_Library/embedded-runtimes/ravenscar-lpc55s69_evk_s/sfp/adalib/libgnarl.a(s-taprop.o)
                                       0x1ae6 (size before relaxing)
 .debug_str     0x0000000000015f7c      0x485 /home/hedley/ada/NXP/LPC/LPC55S69/test3/Ada_Drivers_Library/embedded-runtimes/ravenscar-lpc55s69_evk_s/sfp/adalib/libgnat.a(a-elchha.o)
                                        0x51f (size before relaxing)
 .debug_str     0x0000000000016401      0x32d /home/hedley/ada/NXP/LPC/LPC55S69/test3/Ada_Drivers_Library/embedded-runtimes/ravenscar-lpc55s69_evk_s/sfp/adalib/libgnat.a(g-io.o)
                                        0x466 (size before relaxing)
 .debug_str     0x000000000001672e      0x290 /home/hedley/ada/NXP/LPC/LPC55S69/test3/Ada_Drivers_Library/embedded-runtimes/ravenscar-lpc55s69_evk_s/sfp/adalib/libgnat.a(s-assert.o)
                                        0x45d (size before relaxing)
 .debug_str     0x00000000000169be       0xc1 /home/hedley/ada/NXP/LPC/LPC55S69/test3/Ada_Drivers_Library/embedded-runtimes/ravenscar-lpc55s69_evk_s/sfp/adalib/libgnat.a(s-macres.o)
                                        0x33b (size before relaxing)
 .debug_str     0x0000000000016a7f      0x10b /home/hedley/ada/NXP/LPC/LPC55S69/test3/Ada_Drivers_Library/embedded-runtimes/ravenscar-lpc55s69_evk_s/sfp/adalib/libgnat.a(s-memcop.o)
                                        0x33d (size before relaxing)
 .debug_str     0x0000000000016b8a       0xbf /home/hedley/ada/NXP/LPC/LPC55S69/test3/Ada_Drivers_Library/embedded-runtimes/ravenscar-lpc55s69_evk_s/sfp/adalib/libgnat.a(s-memset.o)
                                        0x387 (size before relaxing)
 .debug_str     0x0000000000016c49      0x1fa /home/hedley/ada/NXP/LPC/LPC55S69/test3/Ada_Drivers_Library/embedded-runtimes/ravenscar-lpc55s69_evk_s/sfp/adalib/libgnat.a(s-parame.o)
                                        0x4aa (size before relaxing)
 .debug_str     0x0000000000016e43      0x78c /home/hedley/ada/NXP/LPC/LPC55S69/test3/Ada_Drivers_Library/embedded-runtimes/ravenscar-lpc55s69_evk_s/sfp/adalib/libgnat.a(s-secsta.o)
                                        0xdc9 (size before relaxing)
 .debug_str     0x00000000000175cf       0xbe /home/hedley/ada/NXP/LPC/LPC55S69/test3/Ada_Drivers_Library/embedded-runtimes/ravenscar-lpc55s69_evk_s/sfp/adalib/libgnat.a(s-textio.o)
                                        0x361 (size before relaxing)
 .debug_str     0x000000000001768d      0x328 /home/hedley/ada/NXP/LPC/LPC55S69/test3/Ada_Drivers_Library/embedded-runtimes/ravenscar-lpc55s69_evk_s/sfp/adalib/libgnat.a(a-except.o)
                                        0x3e7 (size before relaxing)
 .debug_str     0x00000000000179b5       0xb4 /home/hedley/ada/NXP/LPC/LPC55S69/test3/Ada_Drivers_Library/embedded-runtimes/ravenscar-lpc55s69_evk_s/sfp/adalib/libgnat.a(setup_pll.o)
                                        0x2d9 (size before relaxing)
 .debug_str     0x0000000000017a69       0x94 /opt/GNAT/2019-arm-elf/bin/../lib/gcc/arm-eabi/7.4.1/thumb/v7e-m/fpv4-sp/hard/libgcc.a(_aeabi_ldivmod.o)
 .debug_str     0x0000000000017afd     0x135e /opt/GNAT/2019-arm-elf/bin/../lib/gcc/arm-eabi/7.4.1/thumb/v7e-m/fpv4-sp/hard/libgcc.a(_udivmoddi4.o)
                                       0x13f3 (size before relaxing)
 .debug_str     0x0000000000018e5b       0x37 /opt/GNAT/2019-arm-elf/bin/../lib/gcc/arm-eabi/7.4.1/thumb/v7e-m/fpv4-sp/hard/libgcc.a(_dvmd_tls.o)
                                         0x98 (size before relaxing)

.debug_loc      0x0000000000000000     0x6229
 *(.debug_loc)
 .debug_loc     0x0000000000000000      0xd3b /home/hedley/ada/NXP/LPC/LPC55S69/test3/Ada_Drivers_Library/embedded-runtimes/ravenscar-lpc55s69_evk_s/sfp/adalib/libgnarl.a(a-reatim.o)
 .debug_loc     0x0000000000000d3b       0x70 /home/hedley/ada/NXP/LPC/LPC55S69/test3/Ada_Drivers_Library/embedded-runtimes/ravenscar-lpc55s69_evk_s/sfp/adalib/libgnarl.a(a-retide.o)
 .debug_loc     0x0000000000000dab      0x229 /home/hedley/ada/NXP/LPC/LPC55S69/test3/Ada_Drivers_Library/embedded-runtimes/ravenscar-lpc55s69_evk_s/sfp/adalib/libgnarl.a(a-sytaco.o)
 .debug_loc     0x0000000000000fd4      0x386 /home/hedley/ada/NXP/LPC/LPC55S69/test3/Ada_Drivers_Library/embedded-runtimes/ravenscar-lpc55s69_evk_s/sfp/adalib/libgnarl.a(s-bbbosu.o)
 .debug_loc     0x000000000000135a      0x568 /home/hedley/ada/NXP/LPC/LPC55S69/test3/Ada_Drivers_Library/embedded-runtimes/ravenscar-lpc55s69_evk_s/sfp/adalib/libgnarl.a(s-bbcppr.o)
 .debug_loc     0x00000000000018c2      0x1a1 /home/hedley/ada/NXP/LPC/LPC55S69/test3/Ada_Drivers_Library/embedded-runtimes/ravenscar-lpc55s69_evk_s/sfp/adalib/libgnarl.a(s-bbinte.o)
 .debug_loc     0x0000000000001a63      0x30f /home/hedley/ada/NXP/LPC/LPC55S69/test3/Ada_Drivers_Library/embedded-runtimes/ravenscar-lpc55s69_evk_s/sfp/adalib/libgnarl.a(s-bbthqu.o)
 .debug_loc     0x0000000000001d72      0x58e /home/hedley/ada/NXP/LPC/LPC55S69/test3/Ada_Drivers_Library/embedded-runtimes/ravenscar-lpc55s69_evk_s/sfp/adalib/libgnarl.a(s-bbtime.o)
 .debug_loc     0x0000000000002300      0x1c2 /home/hedley/ada/NXP/LPC/LPC55S69/test3/Ada_Drivers_Library/embedded-runtimes/ravenscar-lpc55s69_evk_s/sfp/adalib/libgnarl.a(s-interr.o)
 .debug_loc     0x00000000000024c2      0x142 /home/hedley/ada/NXP/LPC/LPC55S69/test3/Ada_Drivers_Library/embedded-runtimes/ravenscar-lpc55s69_evk_s/sfp/adalib/libgnarl.a(s-taprob.o)
 .debug_loc     0x0000000000002604      0xae9 /home/hedley/ada/NXP/LPC/LPC55S69/test3/Ada_Drivers_Library/embedded-runtimes/ravenscar-lpc55s69_evk_s/sfp/adalib/libgnarl.a(s-tarest.o)
 .debug_loc     0x00000000000030ed      0x286 /home/hedley/ada/NXP/LPC/LPC55S69/test3/Ada_Drivers_Library/embedded-runtimes/ravenscar-lpc55s69_evk_s/sfp/adalib/libgnarl.a(s-taskin.o)
 .debug_loc     0x0000000000003373      0x251 /home/hedley/ada/NXP/LPC/LPC55S69/test3/Ada_Drivers_Library/embedded-runtimes/ravenscar-lpc55s69_evk_s/sfp/adalib/libgnarl.a(s-tpobmu.o)
 .debug_loc     0x00000000000035c4      0x343 /home/hedley/ada/NXP/LPC/LPC55S69/test3/Ada_Drivers_Library/embedded-runtimes/ravenscar-lpc55s69_evk_s/sfp/adalib/libgnarl.a(s-tposen.o)
 .debug_loc     0x0000000000003907       0x63 /home/hedley/ada/NXP/LPC/LPC55S69/test3/Ada_Drivers_Library/embedded-runtimes/ravenscar-lpc55s69_evk_s/sfp/adalib/libgnarl.a(s-bbprot.o)
 .debug_loc     0x000000000000396a      0x8b8 /home/hedley/ada/NXP/LPC/LPC55S69/test3/Ada_Drivers_Library/embedded-runtimes/ravenscar-lpc55s69_evk_s/sfp/adalib/libgnarl.a(s-bbthre.o)
 .debug_loc     0x0000000000004222      0x437 /home/hedley/ada/NXP/LPC/LPC55S69/test3/Ada_Drivers_Library/embedded-runtimes/ravenscar-lpc55s69_evk_s/sfp/adalib/libgnarl.a(s-bbtiev.o)
 .debug_loc     0x0000000000004659      0x63a /home/hedley/ada/NXP/LPC/LPC55S69/test3/Ada_Drivers_Library/embedded-runtimes/ravenscar-lpc55s69_evk_s/sfp/adalib/libgnarl.a(s-taprop.o)
 .debug_loc     0x0000000000004c93      0x19b /home/hedley/ada/NXP/LPC/LPC55S69/test3/Ada_Drivers_Library/embedded-runtimes/ravenscar-lpc55s69_evk_s/sfp/adalib/libgnat.a(a-elchha.o)
 .debug_loc     0x0000000000004e2e      0x1a4 /home/hedley/ada/NXP/LPC/LPC55S69/test3/Ada_Drivers_Library/embedded-runtimes/ravenscar-lpc55s69_evk_s/sfp/adalib/libgnat.a(g-io.o)
 .debug_loc     0x0000000000004fd2       0x38 /home/hedley/ada/NXP/LPC/LPC55S69/test3/Ada_Drivers_Library/embedded-runtimes/ravenscar-lpc55s69_evk_s/sfp/adalib/libgnat.a(s-assert.o)
 .debug_loc     0x000000000000500a      0x14f /home/hedley/ada/NXP/LPC/LPC55S69/test3/Ada_Drivers_Library/embedded-runtimes/ravenscar-lpc55s69_evk_s/sfp/adalib/libgnat.a(s-memcop.o)
 .debug_loc     0x0000000000005159      0x131 /home/hedley/ada/NXP/LPC/LPC55S69/test3/Ada_Drivers_Library/embedded-runtimes/ravenscar-lpc55s69_evk_s/sfp/adalib/libgnat.a(s-memset.o)
 .debug_loc     0x000000000000528a       0x21 /home/hedley/ada/NXP/LPC/LPC55S69/test3/Ada_Drivers_Library/embedded-runtimes/ravenscar-lpc55s69_evk_s/sfp/adalib/libgnat.a(s-parame.o)
 .debug_loc     0x00000000000052ab      0x1d4 /home/hedley/ada/NXP/LPC/LPC55S69/test3/Ada_Drivers_Library/embedded-runtimes/ravenscar-lpc55s69_evk_s/sfp/adalib/libgnat.a(s-secsta.o)
 .debug_loc     0x000000000000547f      0xdaa /opt/GNAT/2019-arm-elf/bin/../lib/gcc/arm-eabi/7.4.1/thumb/v7e-m/fpv4-sp/hard/libgcc.a(_udivmoddi4.o)

.debug_macinfo
 *(.debug_macinfo)

.debug_pubtypes
 *(.debug_pubtypes)

.debug_ranges   0x0000000000000000     0x1838
 *(.debug_ranges)
 .debug_ranges  0x0000000000000000       0x10 test_s.o
 .debug_ranges  0x0000000000000010       0x20 b__test_s.o
 .debug_ranges  0x0000000000000030       0x20 /home/hedley/ada/NXP/LPC/LPC55S69/test3/test_s/obj/Debug/button.o
 .debug_ranges  0x0000000000000050       0x18 /home/hedley/ada/NXP/LPC/LPC55S69/test3/Ada_Drivers_Library/boards/lib/lpc55s69_evk_s/ravenscar-sfp/Debug/liblpc55s69_evk_s.a(nxp-board.o)
 .debug_ranges  0x0000000000000068       0x60 /home/hedley/ada/NXP/LPC/LPC55S69/test3/Ada_Drivers_Library/arch/ARM/NXP/lib/lpc55s69_evk_s/ravenscar-sfp/Debug/liblpc55s69.a(nxp-device.o)
 .debug_ranges  0x00000000000000c8       0xa0 /home/hedley/ada/NXP/LPC/LPC55S69/test3/Ada_Drivers_Library/arch/ARM/NXP/lib/lpc55s69_evk_s/ravenscar-sfp/Debug/liblpc55s69.a(nxp-gpio.o)
 .debug_ranges  0x0000000000000168       0x18 /home/hedley/ada/NXP/LPC/LPC55S69/test3/Ada_Drivers_Library/arch/ARM/NXP/lib/lpc55s69_evk_s/ravenscar-sfp/Debug/liblpc55s69.a(nxp-inputmux.o)
 .debug_ranges  0x0000000000000180       0x30 /home/hedley/ada/NXP/LPC/LPC55S69/test3/Ada_Drivers_Library/arch/ARM/NXP/lib/lpc55s69_evk_s/ravenscar-sfp/Debug/liblpc55s69.a(nxp-pint.o)
 .debug_ranges  0x00000000000001b0      0x190 /home/hedley/ada/NXP/LPC/LPC55S69/test3/Ada_Drivers_Library/embedded-runtimes/ravenscar-lpc55s69_evk_s/sfp/adalib/libgnarl.a(a-reatim.o)
 .debug_ranges  0x0000000000000340       0x60 /home/hedley/ada/NXP/LPC/LPC55S69/test3/Ada_Drivers_Library/embedded-runtimes/ravenscar-lpc55s69_evk_s/sfp/adalib/libgnarl.a(a-retide.o)
 .debug_ranges  0x00000000000003a0       0xd8 /home/hedley/ada/NXP/LPC/LPC55S69/test3/Ada_Drivers_Library/embedded-runtimes/ravenscar-lpc55s69_evk_s/sfp/adalib/libgnarl.a(a-sytaco.o)
 .debug_ranges  0x0000000000000478      0x180 /home/hedley/ada/NXP/LPC/LPC55S69/test3/Ada_Drivers_Library/embedded-runtimes/ravenscar-lpc55s69_evk_s/sfp/adalib/libgnarl.a(s-bbbosu.o)
 .debug_ranges  0x00000000000005f8      0x120 /home/hedley/ada/NXP/LPC/LPC55S69/test3/Ada_Drivers_Library/embedded-runtimes/ravenscar-lpc55s69_evk_s/sfp/adalib/libgnarl.a(s-bbcppr.o)
 .debug_ranges  0x0000000000000718       0xd0 /home/hedley/ada/NXP/LPC/LPC55S69/test3/Ada_Drivers_Library/embedded-runtimes/ravenscar-lpc55s69_evk_s/sfp/adalib/libgnarl.a(s-bbinte.o)
 .debug_ranges  0x00000000000007e8      0x180 /home/hedley/ada/NXP/LPC/LPC55S69/test3/Ada_Drivers_Library/embedded-runtimes/ravenscar-lpc55s69_evk_s/sfp/adalib/libgnarl.a(s-bbthqu.o)
 .debug_ranges  0x0000000000000968      0x208 /home/hedley/ada/NXP/LPC/LPC55S69/test3/Ada_Drivers_Library/embedded-runtimes/ravenscar-lpc55s69_evk_s/sfp/adalib/libgnarl.a(s-bbtime.o)
 .debug_ranges  0x0000000000000b70       0x20 /home/hedley/ada/NXP/LPC/LPC55S69/test3/Ada_Drivers_Library/embedded-runtimes/ravenscar-lpc55s69_evk_s/sfp/adalib/libgnarl.a(s-bcpcst.o)
 .debug_ranges  0x0000000000000b90       0x88 /home/hedley/ada/NXP/LPC/LPC55S69/test3/Ada_Drivers_Library/embedded-runtimes/ravenscar-lpc55s69_evk_s/sfp/adalib/libgnarl.a(s-interr.o)
 .debug_ranges  0x0000000000000c18       0x58 /home/hedley/ada/NXP/LPC/LPC55S69/test3/Ada_Drivers_Library/embedded-runtimes/ravenscar-lpc55s69_evk_s/sfp/adalib/libgnarl.a(s-taprob.o)
 .debug_ranges  0x0000000000000c70      0x138 /home/hedley/ada/NXP/LPC/LPC55S69/test3/Ada_Drivers_Library/embedded-runtimes/ravenscar-lpc55s69_evk_s/sfp/adalib/libgnarl.a(s-tarest.o)
 .debug_ranges  0x0000000000000da8       0x10 /home/hedley/ada/NXP/LPC/LPC55S69/test3/Ada_Drivers_Library/embedded-runtimes/ravenscar-lpc55s69_evk_s/sfp/adalib/libgnarl.a(s-tasdeb.o)
 .debug_ranges  0x0000000000000db8      0x128 /home/hedley/ada/NXP/LPC/LPC55S69/test3/Ada_Drivers_Library/embedded-runtimes/ravenscar-lpc55s69_evk_s/sfp/adalib/libgnarl.a(s-taskin.o)
 .debug_ranges  0x0000000000000ee0       0xc8 /home/hedley/ada/NXP/LPC/LPC55S69/test3/Ada_Drivers_Library/embedded-runtimes/ravenscar-lpc55s69_evk_s/sfp/adalib/libgnarl.a(s-tpobmu.o)
 .debug_ranges  0x0000000000000fa8       0xd0 /home/hedley/ada/NXP/LPC/LPC55S69/test3/Ada_Drivers_Library/embedded-runtimes/ravenscar-lpc55s69_evk_s/sfp/adalib/libgnarl.a(s-tposen.o)
 .debug_ranges  0x0000000000001078       0x78 /home/hedley/ada/NXP/LPC/LPC55S69/test3/Ada_Drivers_Library/embedded-runtimes/ravenscar-lpc55s69_evk_s/sfp/adalib/libgnarl.a(s-bbprot.o)
 .debug_ranges  0x00000000000010f0      0x228 /home/hedley/ada/NXP/LPC/LPC55S69/test3/Ada_Drivers_Library/embedded-runtimes/ravenscar-lpc55s69_evk_s/sfp/adalib/libgnarl.a(s-bbthre.o)
 .debug_ranges  0x0000000000001318       0xf0 /home/hedley/ada/NXP/LPC/LPC55S69/test3/Ada_Drivers_Library/embedded-runtimes/ravenscar-lpc55s69_evk_s/sfp/adalib/libgnarl.a(s-bbtiev.o)
 .debug_ranges  0x0000000000001408      0x208 /home/hedley/ada/NXP/LPC/LPC55S69/test3/Ada_Drivers_Library/embedded-runtimes/ravenscar-lpc55s69_evk_s/sfp/adalib/libgnarl.a(s-taprop.o)
 .debug_ranges  0x0000000000001610       0x10 /home/hedley/ada/NXP/LPC/LPC55S69/test3/Ada_Drivers_Library/embedded-runtimes/ravenscar-lpc55s69_evk_s/sfp/adalib/libgnat.a(a-elchha.o)
 .debug_ranges  0x0000000000001620       0x48 /home/hedley/ada/NXP/LPC/LPC55S69/test3/Ada_Drivers_Library/embedded-runtimes/ravenscar-lpc55s69_evk_s/sfp/adalib/libgnat.a(g-io.o)
 .debug_ranges  0x0000000000001668       0x10 /home/hedley/ada/NXP/LPC/LPC55S69/test3/Ada_Drivers_Library/embedded-runtimes/ravenscar-lpc55s69_evk_s/sfp/adalib/libgnat.a(s-assert.o)
 .debug_ranges  0x0000000000001678       0x18 /home/hedley/ada/NXP/LPC/LPC55S69/test3/Ada_Drivers_Library/embedded-runtimes/ravenscar-lpc55s69_evk_s/sfp/adalib/libgnat.a(s-macres.o)
 .debug_ranges  0x0000000000001690       0x10 /home/hedley/ada/NXP/LPC/LPC55S69/test3/Ada_Drivers_Library/embedded-runtimes/ravenscar-lpc55s69_evk_s/sfp/adalib/libgnat.a(s-memcop.o)
 .debug_ranges  0x00000000000016a0       0x10 /home/hedley/ada/NXP/LPC/LPC55S69/test3/Ada_Drivers_Library/embedded-runtimes/ravenscar-lpc55s69_evk_s/sfp/adalib/libgnat.a(s-memset.o)
 .debug_ranges  0x00000000000016b0       0x10 /home/hedley/ada/NXP/LPC/LPC55S69/test3/Ada_Drivers_Library/embedded-runtimes/ravenscar-lpc55s69_evk_s/sfp/adalib/libgnat.a(s-parame.o)
 .debug_ranges  0x00000000000016c0       0x60 /home/hedley/ada/NXP/LPC/LPC55S69/test3/Ada_Drivers_Library/embedded-runtimes/ravenscar-lpc55s69_evk_s/sfp/adalib/libgnat.a(s-secsta.o)
 .debug_ranges  0x0000000000001720       0x30 /home/hedley/ada/NXP/LPC/LPC55S69/test3/Ada_Drivers_Library/embedded-runtimes/ravenscar-lpc55s69_evk_s/sfp/adalib/libgnat.a(s-textio.o)
 .debug_ranges  0x0000000000001750       0x10 /home/hedley/ada/NXP/LPC/LPC55S69/test3/Ada_Drivers_Library/embedded-runtimes/ravenscar-lpc55s69_evk_s/sfp/adalib/libgnat.a(setup_pll.o)
 .debug_ranges  0x0000000000001760       0xd8 /opt/GNAT/2019-arm-elf/bin/../lib/gcc/arm-eabi/7.4.1/thumb/v7e-m/fpv4-sp/hard/libgcc.a(_udivmoddi4.o)

.comment        0x0000000000000000       0x3d
 .comment       0x0000000000000000       0x3d test_s.o
                                         0x3e (size before relaxing)
 .comment       0x000000000000003d       0x3e b__test_s.o
 .comment       0x000000000000003d       0x3e /home/hedley/ada/NXP/LPC/LPC55S69/test3/test_s/obj/Debug/button.o
 .comment       0x000000000000003d       0x3e /home/hedley/ada/NXP/LPC/LPC55S69/test3/Ada_Drivers_Library/boards/lib/lpc55s69_evk_s/ravenscar-sfp/Debug/liblpc55s69_evk_s.a(nxp-board.o)
 .comment       0x000000000000003d       0x3e /home/hedley/ada/NXP/LPC/LPC55S69/test3/Ada_Drivers_Library/arch/ARM/NXP/lib/lpc55s69_evk_s/ravenscar-sfp/Debug/liblpc55s69.a(nxp-device.o)
 .comment       0x000000000000003d       0x3e /home/hedley/ada/NXP/LPC/LPC55S69/test3/Ada_Drivers_Library/arch/ARM/NXP/lib/lpc55s69_evk_s/ravenscar-sfp/Debug/liblpc55s69.a(nxp-gpio.o)
 .comment       0x000000000000003d       0x3e /home/hedley/ada/NXP/LPC/LPC55S69/test3/Ada_Drivers_Library/arch/ARM/NXP/lib/lpc55s69_evk_s/ravenscar-sfp/Debug/liblpc55s69.a(nxp-inputmux.o)
 .comment       0x000000000000003d       0x3e /home/hedley/ada/NXP/LPC/LPC55S69/test3/Ada_Drivers_Library/arch/ARM/NXP/lib/lpc55s69_evk_s/ravenscar-sfp/Debug/liblpc55s69.a(nxp-pint.o)
 .comment       0x000000000000003d       0x3e /home/hedley/ada/Ada_Drivers_Library/hal/lib/lpc55s69_evk_s/ravenscar-sfp/Debug/libHAL.a(hal-gpio.o)
 .comment       0x000000000000003d       0x3e /home/hedley/ada/NXP/LPC/LPC55S69/test3/Ada_Drivers_Library/embedded-runtimes/ravenscar-lpc55s69_evk_s/sfp/adalib/libgnarl.a(a-reatim.o)
 .comment       0x000000000000003d       0x3e /home/hedley/ada/NXP/LPC/LPC55S69/test3/Ada_Drivers_Library/embedded-runtimes/ravenscar-lpc55s69_evk_s/sfp/adalib/libgnarl.a(a-retide.o)
 .comment       0x000000000000003d       0x3e /home/hedley/ada/NXP/LPC/LPC55S69/test3/Ada_Drivers_Library/embedded-runtimes/ravenscar-lpc55s69_evk_s/sfp/adalib/libgnarl.a(a-sytaco.o)
 .comment       0x000000000000003d       0x3e /home/hedley/ada/NXP/LPC/LPC55S69/test3/Ada_Drivers_Library/embedded-runtimes/ravenscar-lpc55s69_evk_s/sfp/adalib/libgnarl.a(s-bbbosu.o)
 .comment       0x000000000000003d       0x3e /home/hedley/ada/NXP/LPC/LPC55S69/test3/Ada_Drivers_Library/embedded-runtimes/ravenscar-lpc55s69_evk_s/sfp/adalib/libgnarl.a(s-bbcppr.o)
 .comment       0x000000000000003d       0x3e /home/hedley/ada/NXP/LPC/LPC55S69/test3/Ada_Drivers_Library/embedded-runtimes/ravenscar-lpc55s69_evk_s/sfp/adalib/libgnarl.a(s-bbinte.o)
 .comment       0x000000000000003d       0x3e /home/hedley/ada/NXP/LPC/LPC55S69/test3/Ada_Drivers_Library/embedded-runtimes/ravenscar-lpc55s69_evk_s/sfp/adalib/libgnarl.a(s-bbthqu.o)
 .comment       0x000000000000003d       0x3e /home/hedley/ada/NXP/LPC/LPC55S69/test3/Ada_Drivers_Library/embedded-runtimes/ravenscar-lpc55s69_evk_s/sfp/adalib/libgnarl.a(s-bbtime.o)
 .comment       0x000000000000003d       0x3e /home/hedley/ada/NXP/LPC/LPC55S69/test3/Ada_Drivers_Library/embedded-runtimes/ravenscar-lpc55s69_evk_s/sfp/adalib/libgnarl.a(s-bcpcst.o)
 .comment       0x000000000000003d       0x3e /home/hedley/ada/NXP/LPC/LPC55S69/test3/Ada_Drivers_Library/embedded-runtimes/ravenscar-lpc55s69_evk_s/sfp/adalib/libgnarl.a(s-interr.o)
 .comment       0x000000000000003d       0x3e /home/hedley/ada/NXP/LPC/LPC55S69/test3/Ada_Drivers_Library/embedded-runtimes/ravenscar-lpc55s69_evk_s/sfp/adalib/libgnarl.a(s-taprob.o)
 .comment       0x000000000000003d       0x3e /home/hedley/ada/NXP/LPC/LPC55S69/test3/Ada_Drivers_Library/embedded-runtimes/ravenscar-lpc55s69_evk_s/sfp/adalib/libgnarl.a(s-tarest.o)
 .comment       0x000000000000003d       0x3e /home/hedley/ada/NXP/LPC/LPC55S69/test3/Ada_Drivers_Library/embedded-runtimes/ravenscar-lpc55s69_evk_s/sfp/adalib/libgnarl.a(s-tasdeb.o)
 .comment       0x000000000000003d       0x3e /home/hedley/ada/NXP/LPC/LPC55S69/test3/Ada_Drivers_Library/embedded-runtimes/ravenscar-lpc55s69_evk_s/sfp/adalib/libgnarl.a(s-taskin.o)
 .comment       0x000000000000003d       0x3e /home/hedley/ada/NXP/LPC/LPC55S69/test3/Ada_Drivers_Library/embedded-runtimes/ravenscar-lpc55s69_evk_s/sfp/adalib/libgnarl.a(s-tpobmu.o)
 .comment       0x000000000000003d       0x3e /home/hedley/ada/NXP/LPC/LPC55S69/test3/Ada_Drivers_Library/embedded-runtimes/ravenscar-lpc55s69_evk_s/sfp/adalib/libgnarl.a(s-tposen.o)
 .comment       0x000000000000003d       0x3e /home/hedley/ada/NXP/LPC/LPC55S69/test3/Ada_Drivers_Library/embedded-runtimes/ravenscar-lpc55s69_evk_s/sfp/adalib/libgnarl.a(s-bbprot.o)
 .comment       0x000000000000003d       0x3e /home/hedley/ada/NXP/LPC/LPC55S69/test3/Ada_Drivers_Library/embedded-runtimes/ravenscar-lpc55s69_evk_s/sfp/adalib/libgnarl.a(s-bbthre.o)
 .comment       0x000000000000003d       0x3e /home/hedley/ada/NXP/LPC/LPC55S69/test3/Ada_Drivers_Library/embedded-runtimes/ravenscar-lpc55s69_evk_s/sfp/adalib/libgnarl.a(s-bbtiev.o)
 .comment       0x000000000000003d       0x3e /home/hedley/ada/NXP/LPC/LPC55S69/test3/Ada_Drivers_Library/embedded-runtimes/ravenscar-lpc55s69_evk_s/sfp/adalib/libgnarl.a(s-taprop.o)
 .comment       0x000000000000003d       0x3e /home/hedley/ada/NXP/LPC/LPC55S69/test3/Ada_Drivers_Library/embedded-runtimes/ravenscar-lpc55s69_evk_s/sfp/adalib/libgnat.a(a-elchha.o)
 .comment       0x000000000000003d       0x3e /home/hedley/ada/NXP/LPC/LPC55S69/test3/Ada_Drivers_Library/embedded-runtimes/ravenscar-lpc55s69_evk_s/sfp/adalib/libgnat.a(g-io.o)
 .comment       0x000000000000003d       0x3e /home/hedley/ada/NXP/LPC/LPC55S69/test3/Ada_Drivers_Library/embedded-runtimes/ravenscar-lpc55s69_evk_s/sfp/adalib/libgnat.a(s-assert.o)
 .comment       0x000000000000003d       0x3e /home/hedley/ada/NXP/LPC/LPC55S69/test3/Ada_Drivers_Library/embedded-runtimes/ravenscar-lpc55s69_evk_s/sfp/adalib/libgnat.a(s-macres.o)
 .comment       0x000000000000003d       0x3e /home/hedley/ada/NXP/LPC/LPC55S69/test3/Ada_Drivers_Library/embedded-runtimes/ravenscar-lpc55s69_evk_s/sfp/adalib/libgnat.a(s-memcop.o)
 .comment       0x000000000000003d       0x3e /home/hedley/ada/NXP/LPC/LPC55S69/test3/Ada_Drivers_Library/embedded-runtimes/ravenscar-lpc55s69_evk_s/sfp/adalib/libgnat.a(s-memset.o)
 .comment       0x000000000000003d       0x3e /home/hedley/ada/NXP/LPC/LPC55S69/test3/Ada_Drivers_Library/embedded-runtimes/ravenscar-lpc55s69_evk_s/sfp/adalib/libgnat.a(s-parame.o)
 .comment       0x000000000000003d       0x3e /home/hedley/ada/NXP/LPC/LPC55S69/test3/Ada_Drivers_Library/embedded-runtimes/ravenscar-lpc55s69_evk_s/sfp/adalib/libgnat.a(s-secsta.o)
 .comment       0x000000000000003d       0x3e /home/hedley/ada/NXP/LPC/LPC55S69/test3/Ada_Drivers_Library/embedded-runtimes/ravenscar-lpc55s69_evk_s/sfp/adalib/libgnat.a(s-textio.o)
 .comment       0x000000000000003d       0x3e /home/hedley/ada/NXP/LPC/LPC55S69/test3/Ada_Drivers_Library/embedded-runtimes/ravenscar-lpc55s69_evk_s/sfp/adalib/libgnat.a(a-except.o)
 .comment       0x000000000000003d       0x3e /home/hedley/ada/NXP/LPC/LPC55S69/test3/Ada_Drivers_Library/embedded-runtimes/ravenscar-lpc55s69_evk_s/sfp/adalib/libgnat.a(setup_pll.o)
 .comment       0x000000000000003d       0x3e /opt/GNAT/2019-arm-elf/bin/../lib/gcc/arm-eabi/7.4.1/thumb/v7e-m/fpv4-sp/hard/libgcc.a(_udivmoddi4.o)

.ARM.attributes
                0x0000000000000000       0x3a
 .ARM.attributes
                0x0000000000000000       0x37 test_s.o
 .ARM.attributes
                0x0000000000000037       0x37 b__test_s.o
 .ARM.attributes
                0x000000000000006e       0x37 /home/hedley/ada/NXP/LPC/LPC55S69/test3/test_s/obj/Debug/button.o
 .ARM.attributes
                0x00000000000000a5       0x37 /home/hedley/ada/NXP/LPC/LPC55S69/test3/Ada_Drivers_Library/boards/lib/lpc55s69_evk_s/ravenscar-sfp/Debug/liblpc55s69_evk_s.a(nxp-board.o)
 .ARM.attributes
                0x00000000000000dc       0x37 /home/hedley/ada/NXP/LPC/LPC55S69/test3/Ada_Drivers_Library/arch/ARM/NXP/lib/lpc55s69_evk_s/ravenscar-sfp/Debug/liblpc55s69.a(nxp-device.o)
 .ARM.attributes
                0x0000000000000113       0x37 /home/hedley/ada/NXP/LPC/LPC55S69/test3/Ada_Drivers_Library/arch/ARM/NXP/lib/lpc55s69_evk_s/ravenscar-sfp/Debug/liblpc55s69.a(nxp-gpio.o)
 .ARM.attributes
                0x000000000000014a       0x37 /home/hedley/ada/NXP/LPC/LPC55S69/test3/Ada_Drivers_Library/arch/ARM/NXP/lib/lpc55s69_evk_s/ravenscar-sfp/Debug/liblpc55s69.a(nxp-inputmux.o)
 .ARM.attributes
                0x0000000000000181       0x37 /home/hedley/ada/NXP/LPC/LPC55S69/test3/Ada_Drivers_Library/arch/ARM/NXP/lib/lpc55s69_evk_s/ravenscar-sfp/Debug/liblpc55s69.a(nxp-pint.o)
 .ARM.attributes
                0x00000000000001b8       0x37 /home/hedley/ada/Ada_Drivers_Library/hal/lib/lpc55s69_evk_s/ravenscar-sfp/Debug/libHAL.a(hal-gpio.o)
 .ARM.attributes
                0x00000000000001ef       0x37 /home/hedley/ada/NXP/LPC/LPC55S69/test3/Ada_Drivers_Library/embedded-runtimes/ravenscar-lpc55s69_evk_s/sfp/adalib/libgnarl.a(a-reatim.o)
 .ARM.attributes
                0x0000000000000226       0x37 /home/hedley/ada/NXP/LPC/LPC55S69/test3/Ada_Drivers_Library/embedded-runtimes/ravenscar-lpc55s69_evk_s/sfp/adalib/libgnarl.a(a-retide.o)
 .ARM.attributes
                0x000000000000025d       0x37 /home/hedley/ada/NXP/LPC/LPC55S69/test3/Ada_Drivers_Library/embedded-runtimes/ravenscar-lpc55s69_evk_s/sfp/adalib/libgnarl.a(a-sytaco.o)
 .ARM.attributes
                0x0000000000000294       0x37 /home/hedley/ada/NXP/LPC/LPC55S69/test3/Ada_Drivers_Library/embedded-runtimes/ravenscar-lpc55s69_evk_s/sfp/adalib/libgnarl.a(s-bbbosu.o)
 .ARM.attributes
                0x00000000000002cb       0x37 /home/hedley/ada/NXP/LPC/LPC55S69/test3/Ada_Drivers_Library/embedded-runtimes/ravenscar-lpc55s69_evk_s/sfp/adalib/libgnarl.a(s-bbcppr.o)
 .ARM.attributes
                0x0000000000000302       0x37 /home/hedley/ada/NXP/LPC/LPC55S69/test3/Ada_Drivers_Library/embedded-runtimes/ravenscar-lpc55s69_evk_s/sfp/adalib/libgnarl.a(s-bbinte.o)
 .ARM.attributes
                0x0000000000000339       0x37 /home/hedley/ada/NXP/LPC/LPC55S69/test3/Ada_Drivers_Library/embedded-runtimes/ravenscar-lpc55s69_evk_s/sfp/adalib/libgnarl.a(s-bbthqu.o)
 .ARM.attributes
                0x0000000000000370       0x37 /home/hedley/ada/NXP/LPC/LPC55S69/test3/Ada_Drivers_Library/embedded-runtimes/ravenscar-lpc55s69_evk_s/sfp/adalib/libgnarl.a(s-bbtime.o)
 .ARM.attributes
                0x00000000000003a7       0x37 /home/hedley/ada/NXP/LPC/LPC55S69/test3/Ada_Drivers_Library/embedded-runtimes/ravenscar-lpc55s69_evk_s/sfp/adalib/libgnarl.a(s-bcpcst.o)
 .ARM.attributes
                0x00000000000003de       0x37 /home/hedley/ada/NXP/LPC/LPC55S69/test3/Ada_Drivers_Library/embedded-runtimes/ravenscar-lpc55s69_evk_s/sfp/adalib/libgnarl.a(s-interr.o)
 .ARM.attributes
                0x0000000000000415       0x37 /home/hedley/ada/NXP/LPC/LPC55S69/test3/Ada_Drivers_Library/embedded-runtimes/ravenscar-lpc55s69_evk_s/sfp/adalib/libgnarl.a(s-taprob.o)
 .ARM.attributes
                0x000000000000044c       0x37 /home/hedley/ada/NXP/LPC/LPC55S69/test3/Ada_Drivers_Library/embedded-runtimes/ravenscar-lpc55s69_evk_s/sfp/adalib/libgnarl.a(s-tarest.o)
 .ARM.attributes
                0x0000000000000483       0x37 /home/hedley/ada/NXP/LPC/LPC55S69/test3/Ada_Drivers_Library/embedded-runtimes/ravenscar-lpc55s69_evk_s/sfp/adalib/libgnarl.a(s-tasdeb.o)
 .ARM.attributes
                0x00000000000004ba       0x37 /home/hedley/ada/NXP/LPC/LPC55S69/test3/Ada_Drivers_Library/embedded-runtimes/ravenscar-lpc55s69_evk_s/sfp/adalib/libgnarl.a(s-taskin.o)
 .ARM.attributes
                0x00000000000004f1       0x37 /home/hedley/ada/NXP/LPC/LPC55S69/test3/Ada_Drivers_Library/embedded-runtimes/ravenscar-lpc55s69_evk_s/sfp/adalib/libgnarl.a(s-tpobmu.o)
 .ARM.attributes
                0x0000000000000528       0x37 /home/hedley/ada/NXP/LPC/LPC55S69/test3/Ada_Drivers_Library/embedded-runtimes/ravenscar-lpc55s69_evk_s/sfp/adalib/libgnarl.a(s-tposen.o)
 .ARM.attributes
                0x000000000000055f       0x37 /home/hedley/ada/NXP/LPC/LPC55S69/test3/Ada_Drivers_Library/embedded-runtimes/ravenscar-lpc55s69_evk_s/sfp/adalib/libgnarl.a(s-bbprot.o)
 .ARM.attributes
                0x0000000000000596       0x37 /home/hedley/ada/NXP/LPC/LPC55S69/test3/Ada_Drivers_Library/embedded-runtimes/ravenscar-lpc55s69_evk_s/sfp/adalib/libgnarl.a(s-bbthre.o)
 .ARM.attributes
                0x00000000000005cd       0x37 /home/hedley/ada/NXP/LPC/LPC55S69/test3/Ada_Drivers_Library/embedded-runtimes/ravenscar-lpc55s69_evk_s/sfp/adalib/libgnarl.a(s-bbtiev.o)
 .ARM.attributes
                0x0000000000000604       0x37 /home/hedley/ada/NXP/LPC/LPC55S69/test3/Ada_Drivers_Library/embedded-runtimes/ravenscar-lpc55s69_evk_s/sfp/adalib/libgnarl.a(s-taprop.o)
 .ARM.attributes
                0x000000000000063b       0x37 /home/hedley/ada/NXP/LPC/LPC55S69/test3/Ada_Drivers_Library/embedded-runtimes/ravenscar-lpc55s69_evk_s/sfp/adalib/libgnat.a(a-elchha.o)
 .ARM.attributes
                0x0000000000000672       0x37 /home/hedley/ada/NXP/LPC/LPC55S69/test3/Ada_Drivers_Library/embedded-runtimes/ravenscar-lpc55s69_evk_s/sfp/adalib/libgnat.a(g-io.o)
 .ARM.attributes
                0x00000000000006a9       0x21 /home/hedley/ada/NXP/LPC/LPC55S69/test3/Ada_Drivers_Library/embedded-runtimes/ravenscar-lpc55s69_evk_s/sfp/adalib/libgnat.a(handler.o)
 .ARM.attributes
                0x00000000000006ca       0x37 /home/hedley/ada/NXP/LPC/LPC55S69/test3/Ada_Drivers_Library/embedded-runtimes/ravenscar-lpc55s69_evk_s/sfp/adalib/libgnat.a(s-assert.o)
 .ARM.attributes
                0x0000000000000701       0x37 /home/hedley/ada/NXP/LPC/LPC55S69/test3/Ada_Drivers_Library/embedded-runtimes/ravenscar-lpc55s69_evk_s/sfp/adalib/libgnat.a(s-macres.o)
 .ARM.attributes
                0x0000000000000738       0x37 /home/hedley/ada/NXP/LPC/LPC55S69/test3/Ada_Drivers_Library/embedded-runtimes/ravenscar-lpc55s69_evk_s/sfp/adalib/libgnat.a(s-memcop.o)
 .ARM.attributes
                0x000000000000076f       0x37 /home/hedley/ada/NXP/LPC/LPC55S69/test3/Ada_Drivers_Library/embedded-runtimes/ravenscar-lpc55s69_evk_s/sfp/adalib/libgnat.a(s-memset.o)
 .ARM.attributes
                0x00000000000007a6       0x37 /home/hedley/ada/NXP/LPC/LPC55S69/test3/Ada_Drivers_Library/embedded-runtimes/ravenscar-lpc55s69_evk_s/sfp/adalib/libgnat.a(s-parame.o)
 .ARM.attributes
                0x00000000000007dd       0x37 /home/hedley/ada/NXP/LPC/LPC55S69/test3/Ada_Drivers_Library/embedded-runtimes/ravenscar-lpc55s69_evk_s/sfp/adalib/libgnat.a(s-secsta.o)
 .ARM.attributes
                0x0000000000000814       0x37 /home/hedley/ada/NXP/LPC/LPC55S69/test3/Ada_Drivers_Library/embedded-runtimes/ravenscar-lpc55s69_evk_s/sfp/adalib/libgnat.a(s-textio.o)
 .ARM.attributes
                0x000000000000084b       0x24 /home/hedley/ada/NXP/LPC/LPC55S69/test3/Ada_Drivers_Library/embedded-runtimes/ravenscar-lpc55s69_evk_s/sfp/adalib/libgnat.a(start-common.o)
 .ARM.attributes
                0x000000000000086f       0x21 /home/hedley/ada/NXP/LPC/LPC55S69/test3/Ada_Drivers_Library/embedded-runtimes/ravenscar-lpc55s69_evk_s/sfp/adalib/libgnat.a(start-ram.o)
 .ARM.attributes
                0x0000000000000890       0x37 /home/hedley/ada/NXP/LPC/LPC55S69/test3/Ada_Drivers_Library/embedded-runtimes/ravenscar-lpc55s69_evk_s/sfp/adalib/libgnat.a(a-except.o)
 .ARM.attributes
                0x00000000000008c7       0x37 /home/hedley/ada/NXP/LPC/LPC55S69/test3/Ada_Drivers_Library/embedded-runtimes/ravenscar-lpc55s69_evk_s/sfp/adalib/libgnat.a(setup_pll.o)
 .ARM.attributes
                0x00000000000008fe       0x22 /opt/GNAT/2019-arm-elf/bin/../lib/gcc/arm-eabi/7.4.1/thumb/v7e-m/fpv4-sp/hard/libgcc.a(_aeabi_ldivmod.o)
 .ARM.attributes
                0x0000000000000920       0x34 /opt/GNAT/2019-arm-elf/bin/../lib/gcc/arm-eabi/7.4.1/thumb/v7e-m/fpv4-sp/hard/libgcc.a(_udivmoddi4.o)
 .ARM.attributes
                0x0000000000000954       0x22 /opt/GNAT/2019-arm-elf/bin/../lib/gcc/arm-eabi/7.4.1/thumb/v7e-m/fpv4-sp/hard/libgcc.a(_dvmd_tls.o)

.gnu.attributes
 *(.gnu.attributes)

/DISCARD/
 *(.note.GNU-stack)
 *(.gnu_debuglink)
 *(.gnu.lto_*)
OUTPUT(test_s elf32-littlearm)
