Archive member included to satisfy reference by file (symbol)

/home/hedley/ada/NXP/LPC/LPC55S69/uart/Ada_Drivers_Library/boards/lib/lpc55s69_evk_s/ravenscar-sfp/Debug/liblpc55s69_evk_s.a(nxp-board.o)
                              test_s.o (nxp__board__initialize_board)
/home/hedley/ada/NXP/LPC/LPC55S69/uart/Ada_Drivers_Library/arch/ARM/NXP/lib/lpc55s69_evk_s/ravenscar-sfp/Debug/liblpc55s69.a(nxp-device.o)
                              test_s.o (nxp__device__enable_clock__3)
/home/hedley/ada/NXP/LPC/LPC55S69/uart/Ada_Drivers_Library/arch/ARM/NXP/lib/lpc55s69_evk_s/ravenscar-sfp/Debug/liblpc55s69.a(nxp-gpio.o)
                              /home/hedley/ada/NXP/LPC/LPC55S69/uart/Ada_Drivers_Library/arch/ARM/NXP/lib/lpc55s69_evk_s/ravenscar-sfp/Debug/liblpc55s69.a(nxp-device.o) (nxp__gpio__gpio_pointT)
/home/hedley/ada/NXP/LPC/LPC55S69/uart/Ada_Drivers_Library/arch/ARM/NXP/lib/lpc55s69_evk_s/ravenscar-sfp/Debug/liblpc55s69.a(nxp-pint.o)
                              b__test_s.o (nxp__pint___elabb)
/home/hedley/ada/Ada_Drivers_Library/hal/lib/lpc55s69_evk_s/ravenscar-sfp/Debug/libHAL.a(hal-gpio.o)
                              /home/hedley/ada/NXP/LPC/LPC55S69/uart/Ada_Drivers_Library/arch/ARM/NXP/lib/lpc55s69_evk_s/ravenscar-sfp/Debug/liblpc55s69.a(nxp-gpio.o) (hal__gpio__gpio_pointT)
/home/hedley/ada/NXP/LPC/LPC55S69/uart/Ada_Drivers_Library/embedded-runtimes/ravenscar-lpc55s69_evk_s/sfp/adalib/libgnarl.a(a-reatim.o)
                              test_s.o (ada__real_time__Oadd)
/home/hedley/ada/NXP/LPC/LPC55S69/uart/Ada_Drivers_Library/embedded-runtimes/ravenscar-lpc55s69_evk_s/sfp/adalib/libgnarl.a(a-retide.o)
                              test_s.o (ada__real_time__delays__delay_until)
/home/hedley/ada/NXP/LPC/LPC55S69/uart/Ada_Drivers_Library/embedded-runtimes/ravenscar-lpc55s69_evk_s/sfp/adalib/libgnarl.a(s-bbbosu.o)
                              /home/hedley/ada/NXP/LPC/LPC55S69/uart/Ada_Drivers_Library/embedded-runtimes/ravenscar-lpc55s69_evk_s/sfp/adalib/libgnarl.a(a-reatim.o) (system__bb__board_support__time__read_clock)
/home/hedley/ada/NXP/LPC/LPC55S69/uart/Ada_Drivers_Library/embedded-runtimes/ravenscar-lpc55s69_evk_s/sfp/adalib/libgnarl.a(s-bbcppr.o)
                              /home/hedley/ada/NXP/LPC/LPC55S69/uart/Ada_Drivers_Library/embedded-runtimes/ravenscar-lpc55s69_evk_s/sfp/adalib/libgnarl.a(s-bbbosu.o) (system__bb__cpu_primitives__install_trap_handler)
/home/hedley/ada/NXP/LPC/LPC55S69/uart/Ada_Drivers_Library/embedded-runtimes/ravenscar-lpc55s69_evk_s/sfp/adalib/libgnarl.a(s-bbinte.o)
                              /home/hedley/ada/NXP/LPC/LPC55S69/uart/Ada_Drivers_Library/embedded-runtimes/ravenscar-lpc55s69_evk_s/sfp/adalib/libgnarl.a(s-bbbosu.o) (system__bb__interrupts__interrupt_wrapper)
/home/hedley/ada/NXP/LPC/LPC55S69/uart/Ada_Drivers_Library/embedded-runtimes/ravenscar-lpc55s69_evk_s/sfp/adalib/libgnarl.a(s-bbthqu.o)
                              /home/hedley/ada/NXP/LPC/LPC55S69/uart/Ada_Drivers_Library/embedded-runtimes/ravenscar-lpc55s69_evk_s/sfp/adalib/libgnarl.a(s-bbinte.o) (system__bb__threads__queues__change_priority)
/home/hedley/ada/NXP/LPC/LPC55S69/uart/Ada_Drivers_Library/embedded-runtimes/ravenscar-lpc55s69_evk_s/sfp/adalib/libgnarl.a(s-bbtime.o)
                              /home/hedley/ada/NXP/LPC/LPC55S69/uart/Ada_Drivers_Library/embedded-runtimes/ravenscar-lpc55s69_evk_s/sfp/adalib/libgnarl.a(a-retide.o) (system__bb__time__delay_until)
/home/hedley/ada/NXP/LPC/LPC55S69/uart/Ada_Drivers_Library/embedded-runtimes/ravenscar-lpc55s69_evk_s/sfp/adalib/libgnarl.a(s-bcpcst.o)
                              /home/hedley/ada/NXP/LPC/LPC55S69/uart/Ada_Drivers_Library/embedded-runtimes/ravenscar-lpc55s69_evk_s/sfp/adalib/libgnarl.a(s-bbcppr.o) (system__bb__cpu_primitives__context_switch_trigger__initialize_context_switch)
/home/hedley/ada/NXP/LPC/LPC55S69/uart/Ada_Drivers_Library/embedded-runtimes/ravenscar-lpc55s69_evk_s/sfp/adalib/libgnarl.a(s-taskin.o)
                              /home/hedley/ada/NXP/LPC/LPC55S69/uart/Ada_Drivers_Library/embedded-runtimes/ravenscar-lpc55s69_evk_s/sfp/adalib/libgnarl.a(a-reatim.o) (system__tasking__initialize)
/home/hedley/ada/NXP/LPC/LPC55S69/uart/Ada_Drivers_Library/embedded-runtimes/ravenscar-lpc55s69_evk_s/sfp/adalib/libgnarl.a(s-bbprot.o)
                              /home/hedley/ada/NXP/LPC/LPC55S69/uart/Ada_Drivers_Library/embedded-runtimes/ravenscar-lpc55s69_evk_s/sfp/adalib/libgnarl.a(s-bbtime.o) (system__bb__protection__leave_kernel)
/home/hedley/ada/NXP/LPC/LPC55S69/uart/Ada_Drivers_Library/embedded-runtimes/ravenscar-lpc55s69_evk_s/sfp/adalib/libgnarl.a(s-bbthre.o)
                              /home/hedley/ada/NXP/LPC/LPC55S69/uart/Ada_Drivers_Library/embedded-runtimes/ravenscar-lpc55s69_evk_s/sfp/adalib/libgnarl.a(s-taskin.o) (system__bb__threads__initialize)
/home/hedley/ada/NXP/LPC/LPC55S69/uart/Ada_Drivers_Library/embedded-runtimes/ravenscar-lpc55s69_evk_s/sfp/adalib/libgnarl.a(s-bbtiev.o)
                              /home/hedley/ada/NXP/LPC/LPC55S69/uart/Ada_Drivers_Library/embedded-runtimes/ravenscar-lpc55s69_evk_s/sfp/adalib/libgnarl.a(s-bbtime.o) (system__bb__timing_events__execute_expired_timing_events)
/home/hedley/ada/NXP/LPC/LPC55S69/uart/Ada_Drivers_Library/embedded-runtimes/ravenscar-lpc55s69_evk_s/sfp/adalib/libgnarl.a(s-taprop.o)
                              /home/hedley/ada/NXP/LPC/LPC55S69/uart/Ada_Drivers_Library/embedded-runtimes/ravenscar-lpc55s69_evk_s/sfp/adalib/libgnarl.a(s-taskin.o) (system__task_primitives__operations(int, double, long,...))
/home/hedley/ada/NXP/LPC/LPC55S69/uart/Ada_Drivers_Library/embedded-runtimes/ravenscar-lpc55s69_evk_s/sfp/adalib/libgnarl.a(s-tasdeb.o)
                              /home/hedley/ada/NXP/LPC/LPC55S69/uart/Ada_Drivers_Library/embedded-runtimes/ravenscar-lpc55s69_evk_s/sfp/adalib/libgnarl.a(s-taskin.o) (system__tasking__debug__last_task)
/home/hedley/ada/NXP/LPC/LPC55S69/uart/Ada_Drivers_Library/embedded-runtimes/ravenscar-lpc55s69_evk_s/sfp/adalib/libgnat.a(a-elchha.o)
                              /home/hedley/ada/NXP/LPC/LPC55S69/uart/Ada_Drivers_Library/arch/ARM/NXP/lib/lpc55s69_evk_s/ravenscar-sfp/Debug/liblpc55s69.a(nxp-device.o) (__gnat_last_chance_handler)
/home/hedley/ada/NXP/LPC/LPC55S69/uart/Ada_Drivers_Library/embedded-runtimes/ravenscar-lpc55s69_evk_s/sfp/adalib/libgnat.a(g-io.o)
                              /home/hedley/ada/NXP/LPC/LPC55S69/uart/Ada_Drivers_Library/embedded-runtimes/ravenscar-lpc55s69_evk_s/sfp/adalib/libgnat.a(a-elchha.o) (gnat__io__put__2)
/home/hedley/ada/NXP/LPC/LPC55S69/uart/Ada_Drivers_Library/embedded-runtimes/ravenscar-lpc55s69_evk_s/sfp/adalib/libgnat.a(handler.o)
                              /home/hedley/ada/NXP/LPC/LPC55S69/uart/Ada_Drivers_Library/embedded-runtimes/ravenscar-lpc55s69_evk_s/sfp/adalib/libgnarl.a(s-bbcppr.o) (__vectors)
/home/hedley/ada/NXP/LPC/LPC55S69/uart/Ada_Drivers_Library/embedded-runtimes/ravenscar-lpc55s69_evk_s/sfp/adalib/libgnat.a(s-assert.o)
                              /home/hedley/ada/NXP/LPC/LPC55S69/uart/Ada_Drivers_Library/arch/ARM/NXP/lib/lpc55s69_evk_s/ravenscar-sfp/Debug/liblpc55s69.a(nxp-gpio.o) (system__assertions__raise_assert_failure)
/home/hedley/ada/NXP/LPC/LPC55S69/uart/Ada_Drivers_Library/embedded-runtimes/ravenscar-lpc55s69_evk_s/sfp/adalib/libgnat.a(s-macres.o)
                              /home/hedley/ada/NXP/LPC/LPC55S69/uart/Ada_Drivers_Library/embedded-runtimes/ravenscar-lpc55s69_evk_s/sfp/adalib/libgnat.a(a-elchha.o) (system__machine_reset__stop)
/home/hedley/ada/NXP/LPC/LPC55S69/uart/Ada_Drivers_Library/embedded-runtimes/ravenscar-lpc55s69_evk_s/sfp/adalib/libgnat.a(s-memcop.o)
                              /home/hedley/ada/NXP/LPC/LPC55S69/uart/Ada_Drivers_Library/embedded-runtimes/ravenscar-lpc55s69_evk_s/sfp/adalib/libgnarl.a(s-bbcppr.o) (memcpy)
/home/hedley/ada/NXP/LPC/LPC55S69/uart/Ada_Drivers_Library/embedded-runtimes/ravenscar-lpc55s69_evk_s/sfp/adalib/libgnat.a(s-memset.o)
                              /home/hedley/ada/NXP/LPC/LPC55S69/uart/Ada_Drivers_Library/embedded-runtimes/ravenscar-lpc55s69_evk_s/sfp/adalib/libgnarl.a(s-bbcppr.o) (memset)
/home/hedley/ada/NXP/LPC/LPC55S69/uart/Ada_Drivers_Library/embedded-runtimes/ravenscar-lpc55s69_evk_s/sfp/adalib/libgnat.a(s-parame.o)
                              /home/hedley/ada/NXP/LPC/LPC55S69/uart/Ada_Drivers_Library/embedded-runtimes/ravenscar-lpc55s69_evk_s/sfp/adalib/libgnarl.a(s-taskin.o) (system__parameters__adjust_storage_size)
/home/hedley/ada/NXP/LPC/LPC55S69/uart/Ada_Drivers_Library/embedded-runtimes/ravenscar-lpc55s69_evk_s/sfp/adalib/libgnat.a(s-secsta.o)
                              b__test_s.o (system__secondary_stack__ss_stackIP)
/home/hedley/ada/NXP/LPC/LPC55S69/uart/Ada_Drivers_Library/embedded-runtimes/ravenscar-lpc55s69_evk_s/sfp/adalib/libgnat.a(s-textio.o)
                              /home/hedley/ada/NXP/LPC/LPC55S69/uart/Ada_Drivers_Library/embedded-runtimes/ravenscar-lpc55s69_evk_s/sfp/adalib/libgnat.a(g-io.o) (system__text_io__initialize)
/home/hedley/ada/NXP/LPC/LPC55S69/uart/Ada_Drivers_Library/embedded-runtimes/ravenscar-lpc55s69_evk_s/sfp/adalib/libgnat.a(start-common.o)
                              /home/hedley/ada/NXP/LPC/LPC55S69/uart/Ada_Drivers_Library/arch/ARM/NXP/lib/lpc55s69_evk_s/ravenscar-sfp/Debug/liblpc55s69.a(nxp-device.o) (secure_code)
/home/hedley/ada/NXP/LPC/LPC55S69/uart/Ada_Drivers_Library/embedded-runtimes/ravenscar-lpc55s69_evk_s/sfp/adalib/libgnat.a(start-ram.o)
                              (_start_ram)
/home/hedley/ada/NXP/LPC/LPC55S69/uart/Ada_Drivers_Library/embedded-runtimes/ravenscar-lpc55s69_evk_s/sfp/adalib/libgnat.a(a-except.o)
                              /home/hedley/ada/NXP/LPC/LPC55S69/uart/Ada_Drivers_Library/embedded-runtimes/ravenscar-lpc55s69_evk_s/sfp/adalib/libgnat.a(s-assert.o) (ada__exceptions__empty_c_string___UNC)
/home/hedley/ada/NXP/LPC/LPC55S69/uart/Ada_Drivers_Library/embedded-runtimes/ravenscar-lpc55s69_evk_s/sfp/adalib/libgnat.a(setup_pll.o)
                              /home/hedley/ada/NXP/LPC/LPC55S69/uart/Ada_Drivers_Library/embedded-runtimes/ravenscar-lpc55s69_evk_s/sfp/adalib/libgnat.a(start-ram.o) (_ada_setup_pll)
/opt/GNAT/2019-arm-elf/bin/../lib/gcc/arm-eabi/7.4.1/thumb/v7e-m/fpv4-sp/hard/libgcc.a(_aeabi_ldivmod.o)
                              /home/hedley/ada/NXP/LPC/LPC55S69/uart/Ada_Drivers_Library/embedded-runtimes/ravenscar-lpc55s69_evk_s/sfp/adalib/libgnarl.a(a-reatim.o) (__aeabi_ldivmod)
/opt/GNAT/2019-arm-elf/bin/../lib/gcc/arm-eabi/7.4.1/thumb/v7e-m/fpv4-sp/hard/libgcc.a(_aeabi_uldivmod.o)
                              /home/hedley/ada/NXP/LPC/LPC55S69/uart/Ada_Drivers_Library/embedded-runtimes/ravenscar-lpc55s69_evk_s/sfp/adalib/libgnarl.a(a-reatim.o) (__aeabi_uldivmod)
/opt/GNAT/2019-arm-elf/bin/../lib/gcc/arm-eabi/7.4.1/thumb/v7e-m/fpv4-sp/hard/libgcc.a(_udivmoddi4.o)
                              /opt/GNAT/2019-arm-elf/bin/../lib/gcc/arm-eabi/7.4.1/thumb/v7e-m/fpv4-sp/hard/libgcc.a(_aeabi_ldivmod.o) (__udivmoddi4)
/opt/GNAT/2019-arm-elf/bin/../lib/gcc/arm-eabi/7.4.1/thumb/v7e-m/fpv4-sp/hard/libgcc.a(_dvmd_tls.o)
                              /opt/GNAT/2019-arm-elf/bin/../lib/gcc/arm-eabi/7.4.1/thumb/v7e-m/fpv4-sp/hard/libgcc.a(_aeabi_ldivmod.o) (__aeabi_ldiv0)

Discarded input sections

 .text          0x0000000000000000        0x0 test_s.o
 .data          0x0000000000000000        0x0 test_s.o
 .bss           0x0000000000000000        0x0 test_s.o
 .text          0x0000000000000000        0x0 b__test_s.o
 .data          0x0000000000000000        0x0 b__test_s.o
 .bss           0x0000000000000000        0x0 b__test_s.o
 .data.ada_main_E
                0x0000000000000000        0x2 b__test_s.o
 .rodata.__gnat_version
                0x0000000000000000       0x2b b__test_s.o
 .text          0x0000000000000000        0x0 /home/hedley/ada/NXP/LPC/LPC55S69/uart/Ada_Drivers_Library/boards/lib/lpc55s69_evk_s/ravenscar-sfp/Debug/liblpc55s69_evk_s.a(nxp-board.o)
 .data          0x0000000000000000        0x0 /home/hedley/ada/NXP/LPC/LPC55S69/uart/Ada_Drivers_Library/boards/lib/lpc55s69_evk_s/ravenscar-sfp/Debug/liblpc55s69_evk_s.a(nxp-board.o)
 .bss           0x0000000000000000        0x0 /home/hedley/ada/NXP/LPC/LPC55S69/uart/Ada_Drivers_Library/boards/lib/lpc55s69_evk_s/ravenscar-sfp/Debug/liblpc55s69_evk_s.a(nxp-board.o)
 .rodata.nxp__board__red_led
                0x0000000000000000        0x4 /home/hedley/ada/NXP/LPC/LPC55S69/uart/Ada_Drivers_Library/boards/lib/lpc55s69_evk_s/ravenscar-sfp/Debug/liblpc55s69_evk_s.a(nxp-board.o)
 .rodata.nxp__board__green_led
                0x0000000000000000        0x4 /home/hedley/ada/NXP/LPC/LPC55S69/uart/Ada_Drivers_Library/boards/lib/lpc55s69_evk_s/ravenscar-sfp/Debug/liblpc55s69_evk_s.a(nxp-board.o)
 .rodata.nxp__board__blue_led
                0x0000000000000000        0x4 /home/hedley/ada/NXP/LPC/LPC55S69/uart/Ada_Drivers_Library/boards/lib/lpc55s69_evk_s/ravenscar-sfp/Debug/liblpc55s69_evk_s.a(nxp-board.o)
 .rodata.nxp__board__leds
                0x0000000000000000        0x4 /home/hedley/ada/NXP/LPC/LPC55S69/uart/Ada_Drivers_Library/boards/lib/lpc55s69_evk_s/ravenscar-sfp/Debug/liblpc55s69_evk_s.a(nxp-board.o)
 .rodata.nxp__board__user_button
                0x0000000000000000        0x4 /home/hedley/ada/NXP/LPC/LPC55S69/uart/Ada_Drivers_Library/boards/lib/lpc55s69_evk_s/ravenscar-sfp/Debug/liblpc55s69_evk_s.a(nxp-board.o)
 .rodata.nxp__board__wake_button
                0x0000000000000000        0x4 /home/hedley/ada/NXP/LPC/LPC55S69/uart/Ada_Drivers_Library/boards/lib/lpc55s69_evk_s/ravenscar-sfp/Debug/liblpc55s69_evk_s.a(nxp-board.o)
 .text          0x0000000000000000        0x0 /home/hedley/ada/NXP/LPC/LPC55S69/uart/Ada_Drivers_Library/arch/ARM/NXP/lib/lpc55s69_evk_s/ravenscar-sfp/Debug/liblpc55s69.a(nxp-device.o)
 .data          0x0000000000000000        0x0 /home/hedley/ada/NXP/LPC/LPC55S69/uart/Ada_Drivers_Library/arch/ARM/NXP/lib/lpc55s69_evk_s/ravenscar-sfp/Debug/liblpc55s69.a(nxp-device.o)
 .bss           0x0000000000000000        0x0 /home/hedley/ada/NXP/LPC/LPC55S69/uart/Ada_Drivers_Library/arch/ARM/NXP/lib/lpc55s69_evk_s/ravenscar-sfp/Debug/liblpc55s69.a(nxp-device.o)
 .text.nxp__device__disable_clock
                0x0000000000000000       0x84 /home/hedley/ada/NXP/LPC/LPC55S69/uart/Ada_Drivers_Library/arch/ARM/NXP/lib/lpc55s69_evk_s/ravenscar-sfp/Debug/liblpc55s69.a(nxp-device.o)
 .text.nxp__device__enable_clock__2
                0x0000000000000000       0x34 /home/hedley/ada/NXP/LPC/LPC55S69/uart/Ada_Drivers_Library/arch/ARM/NXP/lib/lpc55s69_evk_s/ravenscar-sfp/Debug/liblpc55s69.a(nxp-device.o)
 .text.nxp__device__disable_clock__2
                0x0000000000000000       0x34 /home/hedley/ada/NXP/LPC/LPC55S69/uart/Ada_Drivers_Library/arch/ARM/NXP/lib/lpc55s69_evk_s/ravenscar-sfp/Debug/liblpc55s69.a(nxp-device.o)
 .text.nxp__device__disable_clock__3
                0x0000000000000000       0x70 /home/hedley/ada/NXP/LPC/LPC55S69/uart/Ada_Drivers_Library/arch/ARM/NXP/lib/lpc55s69_evk_s/ravenscar-sfp/Debug/liblpc55s69.a(nxp-device.o)
 .text.nxp__device__reset
                0x0000000000000000       0x14 /home/hedley/ada/NXP/LPC/LPC55S69/uart/Ada_Drivers_Library/arch/ARM/NXP/lib/lpc55s69_evk_s/ravenscar-sfp/Debug/liblpc55s69.a(nxp-device.o)
 .text.nxp__device__reset__2
                0x0000000000000000       0x2c /home/hedley/ada/NXP/LPC/LPC55S69/uart/Ada_Drivers_Library/arch/ARM/NXP/lib/lpc55s69_evk_s/ravenscar-sfp/Debug/liblpc55s69.a(nxp-device.o)
 .text.nxp__device__reset__3
                0x0000000000000000       0xec /home/hedley/ada/NXP/LPC/LPC55S69/uart/Ada_Drivers_Library/arch/ARM/NXP/lib/lpc55s69_evk_s/ravenscar-sfp/Debug/liblpc55s69.a(nxp-device.o)
 .rodata.nxp__device__unknown_portE
                0x0000000000000000       0x18 /home/hedley/ada/NXP/LPC/LPC55S69/uart/Ada_Drivers_Library/arch/ARM/NXP/lib/lpc55s69_evk_s/ravenscar-sfp/Debug/liblpc55s69.a(nxp-device.o)
 .rodata.nxp__device__R2s
                0x0000000000000000        0x4 /home/hedley/ada/NXP/LPC/LPC55S69/uart/Ada_Drivers_Library/arch/ARM/NXP/lib/lpc55s69_evk_s/ravenscar-sfp/Debug/liblpc55s69.a(nxp-device.o)
 .data.nxp__device__unknown_port
                0x0000000000000000       0x18 /home/hedley/ada/NXP/LPC/LPC55S69/uart/Ada_Drivers_Library/arch/ARM/NXP/lib/lpc55s69_evk_s/ravenscar-sfp/Debug/liblpc55s69.a(nxp-device.o)
 .rodata.nxp__device__gpio_af_fc0_usart
                0x0000000000000000        0x1 /home/hedley/ada/NXP/LPC/LPC55S69/uart/Ada_Drivers_Library/arch/ARM/NXP/lib/lpc55s69_evk_s/ravenscar-sfp/Debug/liblpc55s69.a(nxp-device.o)
 .text          0x0000000000000000        0x0 /home/hedley/ada/NXP/LPC/LPC55S69/uart/Ada_Drivers_Library/arch/ARM/NXP/lib/lpc55s69_evk_s/ravenscar-sfp/Debug/liblpc55s69.a(nxp-gpio.o)
 .data          0x0000000000000000        0x0 /home/hedley/ada/NXP/LPC/LPC55S69/uart/Ada_Drivers_Library/arch/ARM/NXP/lib/lpc55s69_evk_s/ravenscar-sfp/Debug/liblpc55s69.a(nxp-gpio.o)
 .bss           0x0000000000000000        0x0 /home/hedley/ada/NXP/LPC/LPC55S69/uart/Ada_Drivers_Library/arch/ARM/NXP/lib/lpc55s69_evk_s/ravenscar-sfp/Debug/liblpc55s69.a(nxp-gpio.o)
 .text.nxp__gpio__gpio_pinsIP
                0x0000000000000000       0x14 /home/hedley/ada/NXP/LPC/LPC55S69/uart/Ada_Drivers_Library/arch/ARM/NXP/lib/lpc55s69_evk_s/ravenscar-sfp/Debug/liblpc55s69.a(nxp-gpio.o)
 .text.nxp__gpio__gpio_port_configurationIP
                0x0000000000000000       0x14 /home/hedley/ada/NXP/LPC/LPC55S69/uart/Ada_Drivers_Library/arch/ARM/NXP/lib/lpc55s69_evk_s/ravenscar-sfp/Debug/liblpc55s69.a(nxp-gpio.o)
 .text.nxp__gpio__any_set
                0x0000000000000000       0x54 /home/hedley/ada/NXP/LPC/LPC55S69/uart/Ada_Drivers_Library/arch/ARM/NXP/lib/lpc55s69_evk_s/ravenscar-sfp/Debug/liblpc55s69.a(nxp-gpio.o)
 .text.nxp__gpio__all_set
                0x0000000000000000       0x5c /home/hedley/ada/NXP/LPC/LPC55S69/uart/Ada_Drivers_Library/arch/ARM/NXP/lib/lpc55s69_evk_s/ravenscar-sfp/Debug/liblpc55s69.a(nxp-gpio.o)
 .text.nxp__gpio__set__4
                0x0000000000000000       0x44 /home/hedley/ada/NXP/LPC/LPC55S69/uart/Ada_Drivers_Library/arch/ARM/NXP/lib/lpc55s69_evk_s/ravenscar-sfp/Debug/liblpc55s69.a(nxp-gpio.o)
 .text.nxp__gpio__clear__2
                0x0000000000000000       0x44 /home/hedley/ada/NXP/LPC/LPC55S69/uart/Ada_Drivers_Library/arch/ARM/NXP/lib/lpc55s69_evk_s/ravenscar-sfp/Debug/liblpc55s69.a(nxp-gpio.o)
 .text.nxp__gpio__toggle__2
                0x0000000000000000       0x44 /home/hedley/ada/NXP/LPC/LPC55S69/uart/Ada_Drivers_Library/arch/ARM/NXP/lib/lpc55s69_evk_s/ravenscar-sfp/Debug/liblpc55s69.a(nxp-gpio.o)
 .rodata.nxp__gpio__gpio_pinS
                0x0000000000000000       0xb6 /home/hedley/ada/NXP/LPC/LPC55S69/uart/Ada_Drivers_Library/arch/ARM/NXP/lib/lpc55s69_evk_s/ravenscar-sfp/Debug/liblpc55s69.a(nxp-gpio.o)
 .rodata.nxp__gpio__gpio_pinN
                0x0000000000000000       0x42 /home/hedley/ada/NXP/LPC/LPC55S69/uart/Ada_Drivers_Library/arch/ARM/NXP/lib/lpc55s69_evk_s/ravenscar-sfp/Debug/liblpc55s69.a(nxp-gpio.o)
 .rodata.nxp__gpio__gpio_pinA
                0x0000000000000000       0x80 /home/hedley/ada/NXP/LPC/LPC55S69/uart/Ada_Drivers_Library/arch/ARM/NXP/lib/lpc55s69_evk_s/ravenscar-sfp/Debug/liblpc55s69.a(nxp-gpio.o)
 .rodata.nxp__gpio__all_pins
                0x0000000000000000       0x80 /home/hedley/ada/NXP/LPC/LPC55S69/uart/Ada_Drivers_Library/arch/ARM/NXP/lib/lpc55s69_evk_s/ravenscar-sfp/Debug/liblpc55s69.a(nxp-gpio.o)
 .rodata.nxp__gpio__pin_io_modesS
                0x0000000000000000       0x21 /home/hedley/ada/NXP/LPC/LPC55S69/uart/Ada_Drivers_Library/arch/ARM/NXP/lib/lpc55s69_evk_s/ravenscar-sfp/Debug/liblpc55s69.a(nxp-gpio.o)
 .rodata.nxp__gpio__pin_io_modesN
                0x0000000000000000        0x8 /home/hedley/ada/NXP/LPC/LPC55S69/uart/Ada_Drivers_Library/arch/ARM/NXP/lib/lpc55s69_evk_s/ravenscar-sfp/Debug/liblpc55s69.a(nxp-gpio.o)
 .rodata.nxp__gpio__pin_output_typesS
                0x0000000000000000       0x13 /home/hedley/ada/NXP/LPC/LPC55S69/uart/Ada_Drivers_Library/arch/ARM/NXP/lib/lpc55s69_evk_s/ravenscar-sfp/Debug/liblpc55s69.a(nxp-gpio.o)
 .rodata.nxp__gpio__pin_output_typesN
                0x0000000000000000        0x4 /home/hedley/ada/NXP/LPC/LPC55S69/uart/Ada_Drivers_Library/arch/ARM/NXP/lib/lpc55s69_evk_s/ravenscar-sfp/Debug/liblpc55s69.a(nxp-gpio.o)
 .rodata.nxp__gpio__pin_output_speedsS
                0x0000000000000000       0x13 /home/hedley/ada/NXP/LPC/LPC55S69/uart/Ada_Drivers_Library/arch/ARM/NXP/lib/lpc55s69_evk_s/ravenscar-sfp/Debug/liblpc55s69.a(nxp-gpio.o)
 .rodata.nxp__gpio__pin_output_speedsN
                0x0000000000000000        0x4 /home/hedley/ada/NXP/LPC/LPC55S69/uart/Ada_Drivers_Library/arch/ARM/NXP/lib/lpc55s69_evk_s/ravenscar-sfp/Debug/liblpc55s69.a(nxp-gpio.o)
 .rodata.nxp__gpio__internal_pin_resistorsS
                0x0000000000000000       0x20 /home/hedley/ada/NXP/LPC/LPC55S69/uart/Ada_Drivers_Library/arch/ARM/NXP/lib/lpc55s69_evk_s/ravenscar-sfp/Debug/liblpc55s69.a(nxp-gpio.o)
 .rodata.nxp__gpio__internal_pin_resistorsN
                0x0000000000000000        0x8 /home/hedley/ada/NXP/LPC/LPC55S69/uart/Ada_Drivers_Library/arch/ARM/NXP/lib/lpc55s69_evk_s/ravenscar-sfp/Debug/liblpc55s69.a(nxp-gpio.o)
 .rodata.nxp__gpio__portsS
                0x0000000000000000        0xc /home/hedley/ada/NXP/LPC/LPC55S69/uart/Ada_Drivers_Library/arch/ARM/NXP/lib/lpc55s69_evk_s/ravenscar-sfp/Debug/liblpc55s69.a(nxp-gpio.o)
 .rodata.nxp__gpio__portsN
                0x0000000000000000        0x4 /home/hedley/ada/NXP/LPC/LPC55S69/uart/Ada_Drivers_Library/arch/ARM/NXP/lib/lpc55s69_evk_s/ravenscar-sfp/Debug/liblpc55s69.a(nxp-gpio.o)
 .rodata.nxp__gpio__gpio_pointP
                0x0000000000000000        0x4 /home/hedley/ada/NXP/LPC/LPC55S69/uart/Ada_Drivers_Library/arch/ARM/NXP/lib/lpc55s69_evk_s/ravenscar-sfp/Debug/liblpc55s69.a(nxp-gpio.o)
 .rodata.nxp__gpio__gpio_pointY
                0x0000000000000000        0x4 /home/hedley/ada/NXP/LPC/LPC55S69/uart/Ada_Drivers_Library/arch/ARM/NXP/lib/lpc55s69_evk_s/ravenscar-sfp/Debug/liblpc55s69.a(nxp-gpio.o)
 .rodata.nxp__gpio__gpio_pointR90s
                0x0000000000000000        0x4 /home/hedley/ada/NXP/LPC/LPC55S69/uart/Ada_Drivers_Library/arch/ARM/NXP/lib/lpc55s69_evk_s/ravenscar-sfp/Debug/liblpc55s69.a(nxp-gpio.o)
 .text          0x0000000000000000        0x0 /home/hedley/ada/NXP/LPC/LPC55S69/uart/Ada_Drivers_Library/arch/ARM/NXP/lib/lpc55s69_evk_s/ravenscar-sfp/Debug/liblpc55s69.a(nxp-pint.o)
 .data          0x0000000000000000        0x0 /home/hedley/ada/NXP/LPC/LPC55S69/uart/Ada_Drivers_Library/arch/ARM/NXP/lib/lpc55s69_evk_s/ravenscar-sfp/Debug/liblpc55s69.a(nxp-pint.o)
 .bss           0x0000000000000000        0x0 /home/hedley/ada/NXP/LPC/LPC55S69/uart/Ada_Drivers_Library/arch/ARM/NXP/lib/lpc55s69_evk_s/ravenscar-sfp/Debug/liblpc55s69.a(nxp-pint.o)
 .text.nxp__pint__pint_configurationIP
                0x0000000000000000       0x30 /home/hedley/ada/NXP/LPC/LPC55S69/uart/Ada_Drivers_Library/arch/ARM/NXP/lib/lpc55s69_evk_s/ravenscar-sfp/Debug/liblpc55s69.a(nxp-pint.o)
 .text.nxp__pint__enable_pint
                0x0000000000000000       0x28 /home/hedley/ada/NXP/LPC/LPC55S69/uart/Ada_Drivers_Library/arch/ARM/NXP/lib/lpc55s69_evk_s/ravenscar-sfp/Debug/liblpc55s69.a(nxp-pint.o)
 .text.nxp__pint__disable_pint
                0x0000000000000000       0x24 /home/hedley/ada/NXP/LPC/LPC55S69/uart/Ada_Drivers_Library/arch/ARM/NXP/lib/lpc55s69_evk_s/ravenscar-sfp/Debug/liblpc55s69.a(nxp-pint.o)
 .text.nxp__pint__pint_interrupt_pending
                0x0000000000000000       0x50 /home/hedley/ada/NXP/LPC/LPC55S69/uart/Ada_Drivers_Library/arch/ARM/NXP/lib/lpc55s69_evk_s/ravenscar-sfp/Debug/liblpc55s69.a(nxp-pint.o)
 .text.nxp__pint__pint_clear_interrupt
                0x0000000000000000       0x44 /home/hedley/ada/NXP/LPC/LPC55S69/uart/Ada_Drivers_Library/arch/ARM/NXP/lib/lpc55s69_evk_s/ravenscar-sfp/Debug/liblpc55s69.a(nxp-pint.o)
 .rodata.nxp__pint__pint_pinintS
                0x0000000000000000       0x40 /home/hedley/ada/NXP/LPC/LPC55S69/uart/Ada_Drivers_Library/arch/ARM/NXP/lib/lpc55s69_evk_s/ravenscar-sfp/Debug/liblpc55s69.a(nxp-pint.o)
 .rodata.nxp__pint__pint_pinintN
                0x0000000000000000        0x9 /home/hedley/ada/NXP/LPC/LPC55S69/uart/Ada_Drivers_Library/arch/ARM/NXP/lib/lpc55s69_evk_s/ravenscar-sfp/Debug/liblpc55s69.a(nxp-pint.o)
 .rodata.nxp__pint__mode_selectionS
                0x0000000000000000       0x13 /home/hedley/ada/NXP/LPC/LPC55S69/uart/Ada_Drivers_Library/arch/ARM/NXP/lib/lpc55s69_evk_s/ravenscar-sfp/Debug/liblpc55s69.a(nxp-pint.o)
 .rodata.nxp__pint__mode_selectionN
                0x0000000000000000        0x4 /home/hedley/ada/NXP/LPC/LPC55S69/uart/Ada_Drivers_Library/arch/ARM/NXP/lib/lpc55s69_evk_s/ravenscar-sfp/Debug/liblpc55s69.a(nxp-pint.o)
 .rodata.nxp__pint__edge_selectionS
                0x0000000000000000       0x17 /home/hedley/ada/NXP/LPC/LPC55S69/uart/Ada_Drivers_Library/arch/ARM/NXP/lib/lpc55s69_evk_s/ravenscar-sfp/Debug/liblpc55s69.a(nxp-pint.o)
 .rodata.nxp__pint__edge_selectionN
                0x0000000000000000        0x4 /home/hedley/ada/NXP/LPC/LPC55S69/uart/Ada_Drivers_Library/arch/ARM/NXP/lib/lpc55s69_evk_s/ravenscar-sfp/Debug/liblpc55s69.a(nxp-pint.o)
 .rodata.nxp__pint__level_selectionS
                0x0000000000000000       0x11 /home/hedley/ada/NXP/LPC/LPC55S69/uart/Ada_Drivers_Library/arch/ARM/NXP/lib/lpc55s69_evk_s/ravenscar-sfp/Debug/liblpc55s69.a(nxp-pint.o)
 .rodata.nxp__pint__level_selectionN
                0x0000000000000000        0x4 /home/hedley/ada/NXP/LPC/LPC55S69/uart/Ada_Drivers_Library/arch/ARM/NXP/lib/lpc55s69_evk_s/ravenscar-sfp/Debug/liblpc55s69.a(nxp-pint.o)
 .text          0x0000000000000000        0x0 /home/hedley/ada/Ada_Drivers_Library/hal/lib/lpc55s69_evk_s/ravenscar-sfp/Debug/libHAL.a(hal-gpio.o)
 .data          0x0000000000000000        0x0 /home/hedley/ada/Ada_Drivers_Library/hal/lib/lpc55s69_evk_s/ravenscar-sfp/Debug/libHAL.a(hal-gpio.o)
 .bss           0x0000000000000000        0x0 /home/hedley/ada/Ada_Drivers_Library/hal/lib/lpc55s69_evk_s/ravenscar-sfp/Debug/libHAL.a(hal-gpio.o)
 .data.hal__gpio_E
                0x0000000000000000        0x2 /home/hedley/ada/Ada_Drivers_Library/hal/lib/lpc55s69_evk_s/ravenscar-sfp/Debug/libHAL.a(hal-gpio.o)
 .rodata.hal__gpio__gpio_modeS
                0x0000000000000000       0x12 /home/hedley/ada/Ada_Drivers_Library/hal/lib/lpc55s69_evk_s/ravenscar-sfp/Debug/libHAL.a(hal-gpio.o)
 .rodata.hal__gpio__gpio_modeN
                0x0000000000000000        0x4 /home/hedley/ada/Ada_Drivers_Library/hal/lib/lpc55s69_evk_s/ravenscar-sfp/Debug/libHAL.a(hal-gpio.o)
 .rodata.hal__gpio__gpio_pull_resistorS
                0x0000000000000000       0x18 /home/hedley/ada/Ada_Drivers_Library/hal/lib/lpc55s69_evk_s/ravenscar-sfp/Debug/libHAL.a(hal-gpio.o)
 .rodata.hal__gpio__gpio_pull_resistorN
                0x0000000000000000        0x4 /home/hedley/ada/Ada_Drivers_Library/hal/lib/lpc55s69_evk_s/ravenscar-sfp/Debug/libHAL.a(hal-gpio.o)
 .rodata.hal__gpio__gpio_pointP
                0x0000000000000000        0x4 /home/hedley/ada/Ada_Drivers_Library/hal/lib/lpc55s69_evk_s/ravenscar-sfp/Debug/libHAL.a(hal-gpio.o)
 .text          0x0000000000000000        0x0 /home/hedley/ada/NXP/LPC/LPC55S69/uart/Ada_Drivers_Library/embedded-runtimes/ravenscar-lpc55s69_evk_s/sfp/adalib/libgnarl.a(a-reatim.o)
 .data          0x0000000000000000        0x0 /home/hedley/ada/NXP/LPC/LPC55S69/uart/Ada_Drivers_Library/embedded-runtimes/ravenscar-lpc55s69_evk_s/sfp/adalib/libgnarl.a(a-reatim.o)
 .bss           0x0000000000000000        0x0 /home/hedley/ada/NXP/LPC/LPC55S69/uart/Ada_Drivers_Library/embedded-runtimes/ravenscar-lpc55s69_evk_s/sfp/adalib/libgnarl.a(a-reatim.o)
 .text.ada__real_time__Oadd__2
                0x0000000000000000       0x14 /home/hedley/ada/NXP/LPC/LPC55S69/uart/Ada_Drivers_Library/embedded-runtimes/ravenscar-lpc55s69_evk_s/sfp/adalib/libgnarl.a(a-reatim.o)
 .text.ada__real_time__Omultiply
                0x0000000000000000       0xac /home/hedley/ada/NXP/LPC/LPC55S69/uart/Ada_Drivers_Library/embedded-runtimes/ravenscar-lpc55s69_evk_s/sfp/adalib/libgnarl.a(a-reatim.o)
 .text.ada__real_time__Omultiply__2
                0x0000000000000000       0x10 /home/hedley/ada/NXP/LPC/LPC55S69/uart/Ada_Drivers_Library/embedded-runtimes/ravenscar-lpc55s69_evk_s/sfp/adalib/libgnarl.a(a-reatim.o)
 .text.ada__real_time__Oadd__3
                0x0000000000000000       0x30 /home/hedley/ada/NXP/LPC/LPC55S69/uart/Ada_Drivers_Library/embedded-runtimes/ravenscar-lpc55s69_evk_s/sfp/adalib/libgnarl.a(a-reatim.o)
 .text.ada__real_time__Osubtract
                0x0000000000000000       0x6c /home/hedley/ada/NXP/LPC/LPC55S69/uart/Ada_Drivers_Library/embedded-runtimes/ravenscar-lpc55s69_evk_s/sfp/adalib/libgnarl.a(a-reatim.o)
 .text.ada__real_time__Osubtract__2
                0x0000000000000000       0x48 /home/hedley/ada/NXP/LPC/LPC55S69/uart/Ada_Drivers_Library/embedded-runtimes/ravenscar-lpc55s69_evk_s/sfp/adalib/libgnarl.a(a-reatim.o)
 .text.ada__real_time__Osubtract__3
                0x0000000000000000       0x30 /home/hedley/ada/NXP/LPC/LPC55S69/uart/Ada_Drivers_Library/embedded-runtimes/ravenscar-lpc55s69_evk_s/sfp/adalib/libgnarl.a(a-reatim.o)
 .text.ada__real_time__Osubtract__4
                0x0000000000000000       0x24 /home/hedley/ada/NXP/LPC/LPC55S69/uart/Ada_Drivers_Library/embedded-runtimes/ravenscar-lpc55s69_evk_s/sfp/adalib/libgnarl.a(a-reatim.o)
 .text.ada__real_time__Odivide
                0x0000000000000000       0x44 /home/hedley/ada/NXP/LPC/LPC55S69/uart/Ada_Drivers_Library/embedded-runtimes/ravenscar-lpc55s69_evk_s/sfp/adalib/libgnarl.a(a-reatim.o)
 .text.ada__real_time__Odivide__2
                0x0000000000000000       0x34 /home/hedley/ada/NXP/LPC/LPC55S69/uart/Ada_Drivers_Library/embedded-runtimes/ravenscar-lpc55s69_evk_s/sfp/adalib/libgnarl.a(a-reatim.o)
 .text.ada__real_time__microseconds
                0x0000000000000000       0x44 /home/hedley/ada/NXP/LPC/LPC55S69/uart/Ada_Drivers_Library/embedded-runtimes/ravenscar-lpc55s69_evk_s/sfp/adalib/libgnarl.a(a-reatim.o)
 .text.ada__real_time__minutes
                0x0000000000000000       0x50 /home/hedley/ada/NXP/LPC/LPC55S69/uart/Ada_Drivers_Library/embedded-runtimes/ravenscar-lpc55s69_evk_s/sfp/adalib/libgnarl.a(a-reatim.o)
 .text.ada__real_time__mul_div
                0x0000000000000000      0x11c /home/hedley/ada/NXP/LPC/LPC55S69/uart/Ada_Drivers_Library/embedded-runtimes/ravenscar-lpc55s69_evk_s/sfp/adalib/libgnarl.a(a-reatim.o)
 .text.ada__real_time__nanoseconds
                0x0000000000000000       0x6c /home/hedley/ada/NXP/LPC/LPC55S69/uart/Ada_Drivers_Library/embedded-runtimes/ravenscar-lpc55s69_evk_s/sfp/adalib/libgnarl.a(a-reatim.o)
 .text.ada__real_time__rounded_div
                0x0000000000000000       0x48 /home/hedley/ada/NXP/LPC/LPC55S69/uart/Ada_Drivers_Library/embedded-runtimes/ravenscar-lpc55s69_evk_s/sfp/adalib/libgnarl.a(a-reatim.o)
 .text.ada__real_time__seconds
                0x0000000000000000        0xc /home/hedley/ada/NXP/LPC/LPC55S69/uart/Ada_Drivers_Library/embedded-runtimes/ravenscar-lpc55s69_evk_s/sfp/adalib/libgnarl.a(a-reatim.o)
 .text.ada__real_time__split
                0x0000000000000000       0x80 /home/hedley/ada/NXP/LPC/LPC55S69/uart/Ada_Drivers_Library/embedded-runtimes/ravenscar-lpc55s69_evk_s/sfp/adalib/libgnarl.a(a-reatim.o)
 .text.ada__real_time__time_of
                0x0000000000000000      0x110 /home/hedley/ada/NXP/LPC/LPC55S69/uart/Ada_Drivers_Library/embedded-runtimes/ravenscar-lpc55s69_evk_s/sfp/adalib/libgnarl.a(a-reatim.o)
 .text.ada__real_time__to_duration
                0x0000000000000000       0x10 /home/hedley/ada/NXP/LPC/LPC55S69/uart/Ada_Drivers_Library/embedded-runtimes/ravenscar-lpc55s69_evk_s/sfp/adalib/libgnarl.a(a-reatim.o)
 .text.ada__real_time__to_time_span
                0x0000000000000000       0x10 /home/hedley/ada/NXP/LPC/LPC55S69/uart/Ada_Drivers_Library/embedded-runtimes/ravenscar-lpc55s69_evk_s/sfp/adalib/libgnarl.a(a-reatim.o)
 .rodata.ada__real_time__duration_units
                0x0000000000000000        0x4 /home/hedley/ada/NXP/LPC/LPC55S69/uart/Ada_Drivers_Library/embedded-runtimes/ravenscar-lpc55s69_evk_s/sfp/adalib/libgnarl.a(a-reatim.o)
 .rodata.ada__real_time__tick
                0x0000000000000000        0x8 /home/hedley/ada/NXP/LPC/LPC55S69/uart/Ada_Drivers_Library/embedded-runtimes/ravenscar-lpc55s69_evk_s/sfp/adalib/libgnarl.a(a-reatim.o)
 .rodata.ada__real_time__time_first
                0x0000000000000000        0x8 /home/hedley/ada/NXP/LPC/LPC55S69/uart/Ada_Drivers_Library/embedded-runtimes/ravenscar-lpc55s69_evk_s/sfp/adalib/libgnarl.a(a-reatim.o)
 .rodata.ada__real_time__time_last
                0x0000000000000000        0x8 /home/hedley/ada/NXP/LPC/LPC55S69/uart/Ada_Drivers_Library/embedded-runtimes/ravenscar-lpc55s69_evk_s/sfp/adalib/libgnarl.a(a-reatim.o)
 .rodata.ada__real_time__time_span_first
                0x0000000000000000        0x8 /home/hedley/ada/NXP/LPC/LPC55S69/uart/Ada_Drivers_Library/embedded-runtimes/ravenscar-lpc55s69_evk_s/sfp/adalib/libgnarl.a(a-reatim.o)
 .rodata.ada__real_time__time_span_last
                0x0000000000000000        0x8 /home/hedley/ada/NXP/LPC/LPC55S69/uart/Ada_Drivers_Library/embedded-runtimes/ravenscar-lpc55s69_evk_s/sfp/adalib/libgnarl.a(a-reatim.o)
 .rodata.ada__real_time__time_span_unit
                0x0000000000000000        0x8 /home/hedley/ada/NXP/LPC/LPC55S69/uart/Ada_Drivers_Library/embedded-runtimes/ravenscar-lpc55s69_evk_s/sfp/adalib/libgnarl.a(a-reatim.o)
 .rodata.ada__real_time__time_span_zero
                0x0000000000000000        0x8 /home/hedley/ada/NXP/LPC/LPC55S69/uart/Ada_Drivers_Library/embedded-runtimes/ravenscar-lpc55s69_evk_s/sfp/adalib/libgnarl.a(a-reatim.o)
 .text          0x0000000000000000        0x0 /home/hedley/ada/NXP/LPC/LPC55S69/uart/Ada_Drivers_Library/embedded-runtimes/ravenscar-lpc55s69_evk_s/sfp/adalib/libgnarl.a(a-retide.o)
 .data          0x0000000000000000        0x0 /home/hedley/ada/NXP/LPC/LPC55S69/uart/Ada_Drivers_Library/embedded-runtimes/ravenscar-lpc55s69_evk_s/sfp/adalib/libgnarl.a(a-retide.o)
 .bss           0x0000000000000000        0x0 /home/hedley/ada/NXP/LPC/LPC55S69/uart/Ada_Drivers_Library/embedded-runtimes/ravenscar-lpc55s69_evk_s/sfp/adalib/libgnarl.a(a-retide.o)
 .text.ada__real_time__delays__to_duration
                0x0000000000000000        0x8 /home/hedley/ada/NXP/LPC/LPC55S69/uart/Ada_Drivers_Library/embedded-runtimes/ravenscar-lpc55s69_evk_s/sfp/adalib/libgnarl.a(a-retide.o)
 .data.ada__real_time__delays_E
                0x0000000000000000        0x2 /home/hedley/ada/NXP/LPC/LPC55S69/uart/Ada_Drivers_Library/embedded-runtimes/ravenscar-lpc55s69_evk_s/sfp/adalib/libgnarl.a(a-retide.o)
 .text          0x0000000000000000        0x0 /home/hedley/ada/NXP/LPC/LPC55S69/uart/Ada_Drivers_Library/embedded-runtimes/ravenscar-lpc55s69_evk_s/sfp/adalib/libgnarl.a(s-bbbosu.o)
 .data          0x0000000000000000        0x0 /home/hedley/ada/NXP/LPC/LPC55S69/uart/Ada_Drivers_Library/embedded-runtimes/ravenscar-lpc55s69_evk_s/sfp/adalib/libgnarl.a(s-bbbosu.o)
 .bss           0x0000000000000000        0x0 /home/hedley/ada/NXP/LPC/LPC55S69/uart/Ada_Drivers_Library/embedded-runtimes/ravenscar-lpc55s69_evk_s/sfp/adalib/libgnarl.a(s-bbbosu.o)
 .text.system__bb__board_support__time__max_timer_interval
                0x0000000000000000        0x8 /home/hedley/ada/NXP/LPC/LPC55S69/uart/Ada_Drivers_Library/embedded-runtimes/ravenscar-lpc55s69_evk_s/sfp/adalib/libgnarl.a(s-bbbosu.o)
 .text.system__bb__board_support__time__clear_alarm_interrupt
                0x0000000000000000       0x10 /home/hedley/ada/NXP/LPC/LPC55S69/uart/Ada_Drivers_Library/embedded-runtimes/ravenscar-lpc55s69_evk_s/sfp/adalib/libgnarl.a(s-bbbosu.o)
 .text.system__bb__board_support__multiprocessors__number_of_cpus
                0x0000000000000000        0x4 /home/hedley/ada/NXP/LPC/LPC55S69/uart/Ada_Drivers_Library/embedded-runtimes/ravenscar-lpc55s69_evk_s/sfp/adalib/libgnarl.a(s-bbbosu.o)
 .text.system__bb__board_support__multiprocessors__current_cpu
                0x0000000000000000        0x4 /home/hedley/ada/NXP/LPC/LPC55S69/uart/Ada_Drivers_Library/embedded-runtimes/ravenscar-lpc55s69_evk_s/sfp/adalib/libgnarl.a(s-bbbosu.o)
 .text.system__bb__board_support__multiprocessors__poke_cpu
                0x0000000000000000        0x4 /home/hedley/ada/NXP/LPC/LPC55S69/uart/Ada_Drivers_Library/embedded-runtimes/ravenscar-lpc55s69_evk_s/sfp/adalib/libgnarl.a(s-bbbosu.o)
 .text.system__bb__board_support__multiprocessors__start_all_cpus
                0x0000000000000000        0x4 /home/hedley/ada/NXP/LPC/LPC55S69/uart/Ada_Drivers_Library/embedded-runtimes/ravenscar-lpc55s69_evk_s/sfp/adalib/libgnarl.a(s-bbbosu.o)
 .text.system__bb__board_support__interrupts__install_interrupt_handler
                0x0000000000000000       0x5c /home/hedley/ada/NXP/LPC/LPC55S69/uart/Ada_Drivers_Library/embedded-runtimes/ravenscar-lpc55s69_evk_s/sfp/adalib/libgnarl.a(s-bbbosu.o)
 .text.system__bb__board_support__interrupts__priority_of_interrupt
                0x0000000000000000       0x20 /home/hedley/ada/NXP/LPC/LPC55S69/uart/Ada_Drivers_Library/embedded-runtimes/ravenscar-lpc55s69_evk_s/sfp/adalib/libgnarl.a(s-bbbosu.o)
 .text.system__bb__board_support__interrupts__power_down
                0x0000000000000000        0x4 /home/hedley/ada/NXP/LPC/LPC55S69/uart/Ada_Drivers_Library/embedded-runtimes/ravenscar-lpc55s69_evk_s/sfp/adalib/libgnarl.a(s-bbbosu.o)
 .text.system__bb__board_support__interrupts__set_current_priority
                0x0000000000000000       0x18 /home/hedley/ada/NXP/LPC/LPC55S69/uart/Ada_Drivers_Library/embedded-runtimes/ravenscar-lpc55s69_evk_s/sfp/adalib/libgnarl.a(s-bbbosu.o)
 .text.system__bb__board_support__sys_tick_registersIP
                0x0000000000000000        0x4 /home/hedley/ada/NXP/LPC/LPC55S69/uart/Ada_Drivers_Library/embedded-runtimes/ravenscar-lpc55s69_evk_s/sfp/adalib/libgnarl.a(s-bbbosu.o)
 .text.system__bb__board_support__TipBIP
                0x0000000000000000        0x4 /home/hedley/ada/NXP/LPC/LPC55S69/uart/Ada_Drivers_Library/embedded-runtimes/ravenscar-lpc55s69_evk_s/sfp/adalib/libgnarl.a(s-bbbosu.o)
 .text.system__bb__board_support__enable_interrupt_request
                0x0000000000000000       0x40 /home/hedley/ada/NXP/LPC/LPC55S69/uart/Ada_Drivers_Library/embedded-runtimes/ravenscar-lpc55s69_evk_s/sfp/adalib/libgnarl.a(s-bbbosu.o)
 .text.system__bb__board_support__to_pri
                0x0000000000000000       0x14 /home/hedley/ada/NXP/LPC/LPC55S69/uart/Ada_Drivers_Library/embedded-runtimes/ravenscar-lpc55s69_evk_s/sfp/adalib/libgnarl.a(s-bbbosu.o)
 .text.system__bb__board_support__to_priority
                0x0000000000000000       0x10 /home/hedley/ada/NXP/LPC/LPC55S69/uart/Ada_Drivers_Library/embedded-runtimes/ravenscar-lpc55s69_evk_s/sfp/adalib/libgnarl.a(s-bbbosu.o)
 .rodata.system__bb__board_support__alarm_interrupt_id
                0x0000000000000000        0x4 /home/hedley/ada/NXP/LPC/LPC55S69/uart/Ada_Drivers_Library/embedded-runtimes/ravenscar-lpc55s69_evk_s/sfp/adalib/libgnarl.a(s-bbbosu.o)
 .rodata.system__bb__board_support__interrupt_request_vector
                0x0000000000000000        0x1 /home/hedley/ada/NXP/LPC/LPC55S69/uart/Ada_Drivers_Library/embedded-runtimes/ravenscar-lpc55s69_evk_s/sfp/adalib/libgnarl.a(s-bbbosu.o)
 .rodata.system__bb__board_support__nvic_iser0
                0x0000000000000000        0x4 /home/hedley/ada/NXP/LPC/LPC55S69/uart/Ada_Drivers_Library/embedded-runtimes/ravenscar-lpc55s69_evk_s/sfp/adalib/libgnarl.a(s-bbbosu.o)
 .rodata.system__bb__board_support__sys_tick_vector
                0x0000000000000000        0x1 /home/hedley/ada/NXP/LPC/LPC55S69/uart/Ada_Drivers_Library/embedded-runtimes/ravenscar-lpc55s69_evk_s/sfp/adalib/libgnarl.a(s-bbbosu.o)
 .rodata.system__bb__board_support__tick_period
                0x0000000000000000        0x4 /home/hedley/ada/NXP/LPC/LPC55S69/uart/Ada_Drivers_Library/embedded-runtimes/ravenscar-lpc55s69_evk_s/sfp/adalib/libgnarl.a(s-bbbosu.o)
 .text          0x0000000000000000        0x0 /home/hedley/ada/NXP/LPC/LPC55S69/uart/Ada_Drivers_Library/embedded-runtimes/ravenscar-lpc55s69_evk_s/sfp/adalib/libgnarl.a(s-bbcppr.o)
 .data          0x0000000000000000        0x0 /home/hedley/ada/NXP/LPC/LPC55S69/uart/Ada_Drivers_Library/embedded-runtimes/ravenscar-lpc55s69_evk_s/sfp/adalib/libgnarl.a(s-bbcppr.o)
 .bss           0x0000000000000000        0x0 /home/hedley/ada/NXP/LPC/LPC55S69/uart/Ada_Drivers_Library/embedded-runtimes/ravenscar-lpc55s69_evk_s/sfp/adalib/libgnarl.a(s-bbcppr.o)
 .text.system__bb__cpu_primitives__Tcontext_bufferBIP
                0x0000000000000000        0x4 /home/hedley/ada/NXP/LPC/LPC55S69/uart/Ada_Drivers_Library/embedded-runtimes/ravenscar-lpc55s69_evk_s/sfp/adalib/libgnarl.a(s-bbcppr.o)
 .text.system__bb__cpu_primitives__hardware_contextIP
                0x0000000000000000        0x4 /home/hedley/ada/NXP/LPC/LPC55S69/uart/Ada_Drivers_Library/embedded-runtimes/ravenscar-lpc55s69_evk_s/sfp/adalib/libgnarl.a(s-bbcppr.o)
 .text.primask  0x0000000000000000        0x8 /home/hedley/ada/NXP/LPC/LPC55S69/uart/Ada_Drivers_Library/embedded-runtimes/ravenscar-lpc55s69_evk_s/sfp/adalib/libgnarl.a(s-bbcppr.o)
 .text.system__bb__cpu_primitives__initialize_cpu
                0x0000000000000000       0x84 /home/hedley/ada/NXP/LPC/LPC55S69/uart/Ada_Drivers_Library/embedded-runtimes/ravenscar-lpc55s69_evk_s/sfp/adalib/libgnarl.a(s-bbcppr.o)
 .text.system__bb__cpu_primitives__context_switch
                0x0000000000000000       0x14 /home/hedley/ada/NXP/LPC/LPC55S69/uart/Ada_Drivers_Library/embedded-runtimes/ravenscar-lpc55s69_evk_s/sfp/adalib/libgnarl.a(s-bbcppr.o)
 .text.system__bb__cpu_primitives__get_context
                0x0000000000000000        0x8 /home/hedley/ada/NXP/LPC/LPC55S69/uart/Ada_Drivers_Library/embedded-runtimes/ravenscar-lpc55s69_evk_s/sfp/adalib/libgnarl.a(s-bbcppr.o)
 .text.system__bb__cpu_primitives__set_context
                0x0000000000000000        0x8 /home/hedley/ada/NXP/LPC/LPC55S69/uart/Ada_Drivers_Library/embedded-runtimes/ravenscar-lpc55s69_evk_s/sfp/adalib/libgnarl.a(s-bbcppr.o)
 .text.system__bb__cpu_primitives__initialize_context
                0x0000000000000000       0x50 /home/hedley/ada/NXP/LPC/LPC55S69/uart/Ada_Drivers_Library/embedded-runtimes/ravenscar-lpc55s69_evk_s/sfp/adalib/libgnarl.a(s-bbcppr.o)
 .text.system__bb__cpu_primitives__install_error_handlers
                0x0000000000000000       0x1c /home/hedley/ada/NXP/LPC/LPC55S69/uart/Ada_Drivers_Library/embedded-runtimes/ravenscar-lpc55s69_evk_s/sfp/adalib/libgnarl.a(s-bbcppr.o)
 .text.system__bb__cpu_primitives__disable_interrupts
                0x0000000000000000        0x4 /home/hedley/ada/NXP/LPC/LPC55S69/uart/Ada_Drivers_Library/embedded-runtimes/ravenscar-lpc55s69_evk_s/sfp/adalib/libgnarl.a(s-bbcppr.o)
 .text.system__bb__cpu_primitives__enable_interrupts
                0x0000000000000000       0x24 /home/hedley/ada/NXP/LPC/LPC55S69/uart/Ada_Drivers_Library/embedded-runtimes/ravenscar-lpc55s69_evk_s/sfp/adalib/libgnarl.a(s-bbcppr.o)
 .rodata.system__bb__cpu_primitives__bus_fault_vector
                0x0000000000000000        0x1 /home/hedley/ada/NXP/LPC/LPC55S69/uart/Ada_Drivers_Library/embedded-runtimes/ravenscar-lpc55s69_evk_s/sfp/adalib/libgnarl.a(s-bbcppr.o)
 .rodata.system__bb__cpu_primitives__hard_fault_vector
                0x0000000000000000        0x1 /home/hedley/ada/NXP/LPC/LPC55S69/uart/Ada_Drivers_Library/embedded-runtimes/ravenscar-lpc55s69_evk_s/sfp/adalib/libgnarl.a(s-bbcppr.o)
 .rodata.system__bb__cpu_primitives__has_os_extensions
                0x0000000000000000        0x1 /home/hedley/ada/NXP/LPC/LPC55S69/uart/Ada_Drivers_Library/embedded-runtimes/ravenscar-lpc55s69_evk_s/sfp/adalib/libgnarl.a(s-bbcppr.o)
 .rodata.system__bb__cpu_primitives__has_vtor
                0x0000000000000000        0x1 /home/hedley/ada/NXP/LPC/LPC55S69/uart/Ada_Drivers_Library/embedded-runtimes/ravenscar-lpc55s69_evk_s/sfp/adalib/libgnarl.a(s-bbcppr.o)
 .rodata.system__bb__cpu_primitives__interrupt_request_vector
                0x0000000000000000        0x1 /home/hedley/ada/NXP/LPC/LPC55S69/uart/Ada_Drivers_Library/embedded-runtimes/ravenscar-lpc55s69_evk_s/sfp/adalib/libgnarl.a(s-bbcppr.o)
 .rodata.system__bb__cpu_primitives__is_armv6m
                0x0000000000000000        0x1 /home/hedley/ada/NXP/LPC/LPC55S69/uart/Ada_Drivers_Library/embedded-runtimes/ravenscar-lpc55s69_evk_s/sfp/adalib/libgnarl.a(s-bbcppr.o)
 .rodata.system__bb__cpu_primitives__nl
                0x0000000000000000        0x2 /home/hedley/ada/NXP/LPC/LPC55S69/uart/Ada_Drivers_Library/embedded-runtimes/ravenscar-lpc55s69_evk_s/sfp/adalib/libgnarl.a(s-bbcppr.o)
 .rodata.system__bb__cpu_primitives__nmi_vector
                0x0000000000000000        0x1 /home/hedley/ada/NXP/LPC/LPC55S69/uart/Ada_Drivers_Library/embedded-runtimes/ravenscar-lpc55s69_evk_s/sfp/adalib/libgnarl.a(s-bbcppr.o)
 .rodata.system__bb__cpu_primitives__pend_sv_vector
                0x0000000000000000        0x1 /home/hedley/ada/NXP/LPC/LPC55S69/uart/Ada_Drivers_Library/embedded-runtimes/ravenscar-lpc55s69_evk_s/sfp/adalib/libgnarl.a(s-bbcppr.o)
 .rodata.system__bb__cpu_primitives__reset_vector
                0x0000000000000000        0x1 /home/hedley/ada/NXP/LPC/LPC55S69/uart/Ada_Drivers_Library/embedded-runtimes/ravenscar-lpc55s69_evk_s/sfp/adalib/libgnarl.a(s-bbcppr.o)
 .rodata.system__bb__cpu_primitives__sp_process
                0x0000000000000000        0x1 /home/hedley/ada/NXP/LPC/LPC55S69/uart/Ada_Drivers_Library/embedded-runtimes/ravenscar-lpc55s69_evk_s/sfp/adalib/libgnarl.a(s-bbcppr.o)
 .rodata.system__bb__cpu_primitives__sv_call_vector
                0x0000000000000000        0x1 /home/hedley/ada/NXP/LPC/LPC55S69/uart/Ada_Drivers_Library/embedded-runtimes/ravenscar-lpc55s69_evk_s/sfp/adalib/libgnarl.a(s-bbcppr.o)
 .rodata.system__bb__cpu_primitives__sys_tick_vector
                0x0000000000000000        0x1 /home/hedley/ada/NXP/LPC/LPC55S69/uart/Ada_Drivers_Library/embedded-runtimes/ravenscar-lpc55s69_evk_s/sfp/adalib/libgnarl.a(s-bbcppr.o)
 .rodata.system__bb__cpu_primitives__usage_fault_vector
                0x0000000000000000        0x1 /home/hedley/ada/NXP/LPC/LPC55S69/uart/Ada_Drivers_Library/embedded-runtimes/ravenscar-lpc55s69_evk_s/sfp/adalib/libgnarl.a(s-bbcppr.o)
 .text          0x0000000000000000        0x0 /home/hedley/ada/NXP/LPC/LPC55S69/uart/Ada_Drivers_Library/embedded-runtimes/ravenscar-lpc55s69_evk_s/sfp/adalib/libgnarl.a(s-bbinte.o)
 .data          0x0000000000000000        0x0 /home/hedley/ada/NXP/LPC/LPC55S69/uart/Ada_Drivers_Library/embedded-runtimes/ravenscar-lpc55s69_evk_s/sfp/adalib/libgnarl.a(s-bbinte.o)
 .bss           0x0000000000000000        0x0 /home/hedley/ada/NXP/LPC/LPC55S69/uart/Ada_Drivers_Library/embedded-runtimes/ravenscar-lpc55s69_evk_s/sfp/adalib/libgnarl.a(s-bbinte.o)
 .text.system__bb__interrupts__Tinterrupt_stacksBIP
                0x0000000000000000        0x4 /home/hedley/ada/NXP/LPC/LPC55S69/uart/Ada_Drivers_Library/embedded-runtimes/ravenscar-lpc55s69_evk_s/sfp/adalib/libgnarl.a(s-bbinte.o)
 .text.system__bb__interrupts__Tinterrupt_stack_tableBIP
                0x0000000000000000        0x4 /home/hedley/ada/NXP/LPC/LPC55S69/uart/Ada_Drivers_Library/embedded-runtimes/ravenscar-lpc55s69_evk_s/sfp/adalib/libgnarl.a(s-bbinte.o)
 .text.system__bb__interrupts__attach_handler
                0x0000000000000000       0x1c /home/hedley/ada/NXP/LPC/LPC55S69/uart/Ada_Drivers_Library/embedded-runtimes/ravenscar-lpc55s69_evk_s/sfp/adalib/libgnarl.a(s-bbinte.o)
 .text.system__bb__interrupts__current_interrupt
                0x0000000000000000       0x1c /home/hedley/ada/NXP/LPC/LPC55S69/uart/Ada_Drivers_Library/embedded-runtimes/ravenscar-lpc55s69_evk_s/sfp/adalib/libgnarl.a(s-bbinte.o)
 .text.system__bb__interrupts__within_interrupt_stack
                0x0000000000000000       0x40 /home/hedley/ada/NXP/LPC/LPC55S69/uart/Ada_Drivers_Library/embedded-runtimes/ravenscar-lpc55s69_evk_s/sfp/adalib/libgnarl.a(s-bbinte.o)
 .rodata.system__bb__interrupts__no_interrupt
                0x0000000000000000        0x4 /home/hedley/ada/NXP/LPC/LPC55S69/uart/Ada_Drivers_Library/embedded-runtimes/ravenscar-lpc55s69_evk_s/sfp/adalib/libgnarl.a(s-bbinte.o)
 .text          0x0000000000000000        0x0 /home/hedley/ada/NXP/LPC/LPC55S69/uart/Ada_Drivers_Library/embedded-runtimes/ravenscar-lpc55s69_evk_s/sfp/adalib/libgnarl.a(s-bbthqu.o)
 .data          0x0000000000000000        0x0 /home/hedley/ada/NXP/LPC/LPC55S69/uart/Ada_Drivers_Library/embedded-runtimes/ravenscar-lpc55s69_evk_s/sfp/adalib/libgnarl.a(s-bbthqu.o)
 .bss           0x0000000000000000        0x0 /home/hedley/ada/NXP/LPC/LPC55S69/uart/Ada_Drivers_Library/embedded-runtimes/ravenscar-lpc55s69_evk_s/sfp/adalib/libgnarl.a(s-bbthqu.o)
 .text.__gnat_context_switch_needed
                0x0000000000000000       0x18 /home/hedley/ada/NXP/LPC/LPC55S69/uart/Ada_Drivers_Library/embedded-runtimes/ravenscar-lpc55s69_evk_s/sfp/adalib/libgnarl.a(s-bbthqu.o)
 .text.system__bb__threads__queues__current_priority
                0x0000000000000000       0x20 /home/hedley/ada/NXP/LPC/LPC55S69/uart/Ada_Drivers_Library/embedded-runtimes/ravenscar-lpc55s69_evk_s/sfp/adalib/libgnarl.a(s-bbthqu.o)
 .text.system__bb__threads__queues__extract
                0x0000000000000000       0x28 /home/hedley/ada/NXP/LPC/LPC55S69/uart/Ada_Drivers_Library/embedded-runtimes/ravenscar-lpc55s69_evk_s/sfp/adalib/libgnarl.a(s-bbthqu.o)
 .text.system__bb__threads__queues__extract_first_alarm
                0x0000000000000000       0x24 /home/hedley/ada/NXP/LPC/LPC55S69/uart/Ada_Drivers_Library/embedded-runtimes/ravenscar-lpc55s69_evk_s/sfp/adalib/libgnarl.a(s-bbthqu.o)
 .text.system__bb__threads__queues__first_thread
                0x0000000000000000        0xc /home/hedley/ada/NXP/LPC/LPC55S69/uart/Ada_Drivers_Library/embedded-runtimes/ravenscar-lpc55s69_evk_s/sfp/adalib/libgnarl.a(s-bbthqu.o)
 .text.system__bb__threads__queues__get_next_alarm_time
                0x0000000000000000       0x24 /home/hedley/ada/NXP/LPC/LPC55S69/uart/Ada_Drivers_Library/embedded-runtimes/ravenscar-lpc55s69_evk_s/sfp/adalib/libgnarl.a(s-bbthqu.o)
 .text.system__bb__threads__queues__insert
                0x0000000000000000       0x88 /home/hedley/ada/NXP/LPC/LPC55S69/uart/Ada_Drivers_Library/embedded-runtimes/ravenscar-lpc55s69_evk_s/sfp/adalib/libgnarl.a(s-bbthqu.o)
 .text.system__bb__threads__queues__running_thread
                0x0000000000000000        0xc /home/hedley/ada/NXP/LPC/LPC55S69/uart/Ada_Drivers_Library/embedded-runtimes/ravenscar-lpc55s69_evk_s/sfp/adalib/libgnarl.a(s-bbthqu.o)
 .text          0x0000000000000000        0x0 /home/hedley/ada/NXP/LPC/LPC55S69/uart/Ada_Drivers_Library/embedded-runtimes/ravenscar-lpc55s69_evk_s/sfp/adalib/libgnarl.a(s-bbtime.o)
 .data          0x0000000000000000        0x0 /home/hedley/ada/NXP/LPC/LPC55S69/uart/Ada_Drivers_Library/embedded-runtimes/ravenscar-lpc55s69_evk_s/sfp/adalib/libgnarl.a(s-bbtime.o)
 .bss           0x0000000000000000        0x0 /home/hedley/ada/NXP/LPC/LPC55S69/uart/Ada_Drivers_Library/embedded-runtimes/ravenscar-lpc55s69_evk_s/sfp/adalib/libgnarl.a(s-bbtime.o)
 .text.system__bb__time__composite_execution_timeIP
                0x0000000000000000        0x4 /home/hedley/ada/NXP/LPC/LPC55S69/uart/Ada_Drivers_Library/embedded-runtimes/ravenscar-lpc55s69_evk_s/sfp/adalib/libgnarl.a(s-bbtime.o)
 .text.system__bb__time__composite_timeIP
                0x0000000000000000        0xc /home/hedley/ada/NXP/LPC/LPC55S69/uart/Ada_Drivers_Library/embedded-runtimes/ravenscar-lpc55s69_evk_s/sfp/adalib/libgnarl.a(s-bbtime.o)
 .text.system__bb__time__clock
                0x0000000000000000       0x5c /home/hedley/ada/NXP/LPC/LPC55S69/uart/Ada_Drivers_Library/embedded-runtimes/ravenscar-lpc55s69_evk_s/sfp/adalib/libgnarl.a(s-bbtime.o)
 .text.system__bb__time__epoch
                0x0000000000000000        0x8 /home/hedley/ada/NXP/LPC/LPC55S69/uart/Ada_Drivers_Library/embedded-runtimes/ravenscar-lpc55s69_evk_s/sfp/adalib/libgnarl.a(s-bbtime.o)
 .text.system__bb__time__get_next_timeout
                0x0000000000000000       0x40 /home/hedley/ada/NXP/LPC/LPC55S69/uart/Ada_Drivers_Library/embedded-runtimes/ravenscar-lpc55s69_evk_s/sfp/adalib/libgnarl.a(s-bbtime.o)
 .text.system__bb__time__Oconcat
                0x0000000000000000       0x18 /home/hedley/ada/NXP/LPC/LPC55S69/uart/Ada_Drivers_Library/embedded-runtimes/ravenscar-lpc55s69_evk_s/sfp/adalib/libgnarl.a(s-bbtime.o)
 .data.system__bb__time__alarm_lock
                0x0000000000000000        0x2 /home/hedley/ada/NXP/LPC/LPC55S69/uart/Ada_Drivers_Library/embedded-runtimes/ravenscar-lpc55s69_evk_s/sfp/adalib/libgnarl.a(s-bbtime.o)
 .rodata.system__bb__time__initial_composite_execution_time
                0x0000000000000000        0x8 /home/hedley/ada/NXP/LPC/LPC55S69/uart/Ada_Drivers_Library/embedded-runtimes/ravenscar-lpc55s69_evk_s/sfp/adalib/libgnarl.a(s-bbtime.o)
 .rodata.system__bb__time__periods_in_epoch
                0x0000000000000000        0x4 /home/hedley/ada/NXP/LPC/LPC55S69/uart/Ada_Drivers_Library/embedded-runtimes/ravenscar-lpc55s69_evk_s/sfp/adalib/libgnarl.a(s-bbtime.o)
 .rodata.system__bb__time__update_in_progress
                0x0000000000000000        0x4 /home/hedley/ada/NXP/LPC/LPC55S69/uart/Ada_Drivers_Library/embedded-runtimes/ravenscar-lpc55s69_evk_s/sfp/adalib/libgnarl.a(s-bbtime.o)
 .text          0x0000000000000000        0x0 /home/hedley/ada/NXP/LPC/LPC55S69/uart/Ada_Drivers_Library/embedded-runtimes/ravenscar-lpc55s69_evk_s/sfp/adalib/libgnarl.a(s-bcpcst.o)
 .data          0x0000000000000000        0x0 /home/hedley/ada/NXP/LPC/LPC55S69/uart/Ada_Drivers_Library/embedded-runtimes/ravenscar-lpc55s69_evk_s/sfp/adalib/libgnarl.a(s-bcpcst.o)
 .bss           0x0000000000000000        0x0 /home/hedley/ada/NXP/LPC/LPC55S69/uart/Ada_Drivers_Library/embedded-runtimes/ravenscar-lpc55s69_evk_s/sfp/adalib/libgnarl.a(s-bcpcst.o)
 .text          0x0000000000000000        0x0 /home/hedley/ada/NXP/LPC/LPC55S69/uart/Ada_Drivers_Library/embedded-runtimes/ravenscar-lpc55s69_evk_s/sfp/adalib/libgnarl.a(s-taskin.o)
 .data          0x0000000000000000        0x0 /home/hedley/ada/NXP/LPC/LPC55S69/uart/Ada_Drivers_Library/embedded-runtimes/ravenscar-lpc55s69_evk_s/sfp/adalib/libgnarl.a(s-taskin.o)
 .bss           0x0000000000000000        0x0 /home/hedley/ada/NXP/LPC/LPC55S69/uart/Ada_Drivers_Library/embedded-runtimes/ravenscar-lpc55s69_evk_s/sfp/adalib/libgnarl.a(s-taskin.o)
 .text.system__tasking__E5sIP
                0x0000000000000000        0x8 /home/hedley/ada/NXP/LPC/LPC55S69/uart/Ada_Drivers_Library/embedded-runtimes/ravenscar-lpc55s69_evk_s/sfp/adalib/libgnarl.a(s-taskin.o)
 .text.system__tasking__activation_chainIP
                0x0000000000000000        0x8 /home/hedley/ada/NXP/LPC/LPC55S69/uart/Ada_Drivers_Library/embedded-runtimes/ravenscar-lpc55s69_evk_s/sfp/adalib/libgnarl.a(s-taskin.o)
 .text.__gnat_get_secondary_stack
                0x0000000000000000       0x10 /home/hedley/ada/NXP/LPC/LPC55S69/uart/Ada_Drivers_Library/embedded-runtimes/ravenscar-lpc55s69_evk_s/sfp/adalib/libgnarl.a(s-taskin.o)
 .text.system__tasking__self
                0x0000000000000000        0xc /home/hedley/ada/NXP/LPC/LPC55S69/uart/Ada_Drivers_Library/embedded-runtimes/ravenscar-lpc55s69_evk_s/sfp/adalib/libgnarl.a(s-taskin.o)
 .text.system__tasking__storage_size
                0x0000000000000000        0x8 /home/hedley/ada/NXP/LPC/LPC55S69/uart/Ada_Drivers_Library/embedded-runtimes/ravenscar-lpc55s69_evk_s/sfp/adalib/libgnarl.a(s-taskin.o)
 .rodata.system__tasking__idle_priority
                0x0000000000000000        0x4 /home/hedley/ada/NXP/LPC/LPC55S69/uart/Ada_Drivers_Library/embedded-runtimes/ravenscar-lpc55s69_evk_s/sfp/adalib/libgnarl.a(s-taskin.o)
 .rodata.system__tasking__library_task_level
                0x0000000000000000        0x4 /home/hedley/ada/NXP/LPC/LPC55S69/uart/Ada_Drivers_Library/embedded-runtimes/ravenscar-lpc55s69_evk_s/sfp/adalib/libgnarl.a(s-taskin.o)
 .rodata.system__tasking__null_task
                0x0000000000000000        0x4 /home/hedley/ada/NXP/LPC/LPC55S69/uart/Ada_Drivers_Library/embedded-runtimes/ravenscar-lpc55s69_evk_s/sfp/adalib/libgnarl.a(s-taskin.o)
 .rodata.system__tasking__task_statesN
                0x0000000000000000       0x22 /home/hedley/ada/NXP/LPC/LPC55S69/uart/Ada_Drivers_Library/embedded-runtimes/ravenscar-lpc55s69_evk_s/sfp/adalib/libgnarl.a(s-taskin.o)
 .rodata.system__tasking__task_statesS
                0x0000000000000000      0x130 /home/hedley/ada/NXP/LPC/LPC55S69/uart/Ada_Drivers_Library/embedded-runtimes/ravenscar-lpc55s69_evk_s/sfp/adalib/libgnarl.a(s-taskin.o)
 .text          0x0000000000000000        0x0 /home/hedley/ada/NXP/LPC/LPC55S69/uart/Ada_Drivers_Library/embedded-runtimes/ravenscar-lpc55s69_evk_s/sfp/adalib/libgnarl.a(s-bbprot.o)
 .data          0x0000000000000000        0x0 /home/hedley/ada/NXP/LPC/LPC55S69/uart/Ada_Drivers_Library/embedded-runtimes/ravenscar-lpc55s69_evk_s/sfp/adalib/libgnarl.a(s-bbprot.o)
 .bss           0x0000000000000000        0x0 /home/hedley/ada/NXP/LPC/LPC55S69/uart/Ada_Drivers_Library/embedded-runtimes/ravenscar-lpc55s69_evk_s/sfp/adalib/libgnarl.a(s-bbprot.o)
 .text.system__bb__protection__enter_kernel
                0x0000000000000000        0x4 /home/hedley/ada/NXP/LPC/LPC55S69/uart/Ada_Drivers_Library/embedded-runtimes/ravenscar-lpc55s69_evk_s/sfp/adalib/libgnarl.a(s-bbprot.o)
 .data.system__bb__protection__wakeup_served_entry_callback
                0x0000000000000000        0x4 /home/hedley/ada/NXP/LPC/LPC55S69/uart/Ada_Drivers_Library/embedded-runtimes/ravenscar-lpc55s69_evk_s/sfp/adalib/libgnarl.a(s-bbprot.o)
 .text          0x0000000000000000        0x0 /home/hedley/ada/NXP/LPC/LPC55S69/uart/Ada_Drivers_Library/embedded-runtimes/ravenscar-lpc55s69_evk_s/sfp/adalib/libgnarl.a(s-bbthre.o)
 .data          0x0000000000000000        0x0 /home/hedley/ada/NXP/LPC/LPC55S69/uart/Ada_Drivers_Library/embedded-runtimes/ravenscar-lpc55s69_evk_s/sfp/adalib/libgnarl.a(s-bbthre.o)
 .bss           0x0000000000000000        0x0 /home/hedley/ada/NXP/LPC/LPC55S69/uart/Ada_Drivers_Library/embedded-runtimes/ravenscar-lpc55s69_evk_s/sfp/adalib/libgnarl.a(s-bbthre.o)
 .text.system__bb__threads__thread_descriptorIP
                0x0000000000000000        0xc /home/hedley/ada/NXP/LPC/LPC55S69/uart/Ada_Drivers_Library/embedded-runtimes/ravenscar-lpc55s69_evk_s/sfp/adalib/libgnarl.a(s-bbthre.o)
 .text.system__bb__threads__get_affinity
                0x0000000000000000        0x8 /home/hedley/ada/NXP/LPC/LPC55S69/uart/Ada_Drivers_Library/embedded-runtimes/ravenscar-lpc55s69_evk_s/sfp/adalib/libgnarl.a(s-bbthre.o)
 .text.system__bb__threads__get_cpu
                0x0000000000000000        0xc /home/hedley/ada/NXP/LPC/LPC55S69/uart/Ada_Drivers_Library/embedded-runtimes/ravenscar-lpc55s69_evk_s/sfp/adalib/libgnarl.a(s-bbthre.o)
 .text.system__bb__threads__get_atcb
                0x0000000000000000        0xc /home/hedley/ada/NXP/LPC/LPC55S69/uart/Ada_Drivers_Library/embedded-runtimes/ravenscar-lpc55s69_evk_s/sfp/adalib/libgnarl.a(s-bbthre.o)
 .text.system__bb__threads__get_priority
                0x0000000000000000        0x4 /home/hedley/ada/NXP/LPC/LPC55S69/uart/Ada_Drivers_Library/embedded-runtimes/ravenscar-lpc55s69_evk_s/sfp/adalib/libgnarl.a(s-bbthre.o)
 .text.system__bb__threads__initialize_slave
                0x0000000000000000       0xa0 /home/hedley/ada/NXP/LPC/LPC55S69/uart/Ada_Drivers_Library/embedded-runtimes/ravenscar-lpc55s69_evk_s/sfp/adalib/libgnarl.a(s-bbthre.o)
 .text.system__bb__threads__set_atcb
                0x0000000000000000        0x4 /home/hedley/ada/NXP/LPC/LPC55S69/uart/Ada_Drivers_Library/embedded-runtimes/ravenscar-lpc55s69_evk_s/sfp/adalib/libgnarl.a(s-bbthre.o)
 .text.system__bb__threads__set_priority
                0x0000000000000000       0x1c /home/hedley/ada/NXP/LPC/LPC55S69/uart/Ada_Drivers_Library/embedded-runtimes/ravenscar-lpc55s69_evk_s/sfp/adalib/libgnarl.a(s-bbthre.o)
 .text.system__bb__threads__sleep
                0x0000000000000000       0x48 /home/hedley/ada/NXP/LPC/LPC55S69/uart/Ada_Drivers_Library/embedded-runtimes/ravenscar-lpc55s69_evk_s/sfp/adalib/libgnarl.a(s-bbthre.o)
 .text.system__bb__threads__thread_self
                0x0000000000000000        0xc /home/hedley/ada/NXP/LPC/LPC55S69/uart/Ada_Drivers_Library/embedded-runtimes/ravenscar-lpc55s69_evk_s/sfp/adalib/libgnarl.a(s-bbthre.o)
 .text.system__bb__threads__wakeup
                0x0000000000000000       0x94 /home/hedley/ada/NXP/LPC/LPC55S69/uart/Ada_Drivers_Library/embedded-runtimes/ravenscar-lpc55s69_evk_s/sfp/adalib/libgnarl.a(s-bbthre.o)
 .rodata.system__bb__threads__null_thread_id
                0x0000000000000000        0x4 /home/hedley/ada/NXP/LPC/LPC55S69/uart/Ada_Drivers_Library/embedded-runtimes/ravenscar-lpc55s69_evk_s/sfp/adalib/libgnarl.a(s-bbthre.o)
 .rodata.system__bb__threads__thread_statesN
                0x0000000000000000        0x4 /home/hedley/ada/NXP/LPC/LPC55S69/uart/Ada_Drivers_Library/embedded-runtimes/ravenscar-lpc55s69_evk_s/sfp/adalib/libgnarl.a(s-bbthre.o)
 .rodata.system__bb__threads__thread_statesS
                0x0000000000000000       0x18 /home/hedley/ada/NXP/LPC/LPC55S69/uart/Ada_Drivers_Library/embedded-runtimes/ravenscar-lpc55s69_evk_s/sfp/adalib/libgnarl.a(s-bbthre.o)
 .text          0x0000000000000000        0x0 /home/hedley/ada/NXP/LPC/LPC55S69/uart/Ada_Drivers_Library/embedded-runtimes/ravenscar-lpc55s69_evk_s/sfp/adalib/libgnarl.a(s-bbtiev.o)
 .data          0x0000000000000000        0x0 /home/hedley/ada/NXP/LPC/LPC55S69/uart/Ada_Drivers_Library/embedded-runtimes/ravenscar-lpc55s69_evk_s/sfp/adalib/libgnarl.a(s-bbtiev.o)
 .bss           0x0000000000000000        0x0 /home/hedley/ada/NXP/LPC/LPC55S69/uart/Ada_Drivers_Library/embedded-runtimes/ravenscar-lpc55s69_evk_s/sfp/adalib/libgnarl.a(s-bbtiev.o)
 .text.system__bb__timing_events___size
                0x0000000000000000        0x8 /home/hedley/ada/NXP/LPC/LPC55S69/uart/Ada_Drivers_Library/embedded-runtimes/ravenscar-lpc55s69_evk_s/sfp/adalib/libgnarl.a(s-bbtiev.o)
 .text.system__bb__timing_events__time_of_event
                0x0000000000000000       0x10 /home/hedley/ada/NXP/LPC/LPC55S69/uart/Ada_Drivers_Library/embedded-runtimes/ravenscar-lpc55s69_evk_s/sfp/adalib/libgnarl.a(s-bbtiev.o)
 .text.system__bb__timing_events__set_handler
                0x0000000000000000       0xa4 /home/hedley/ada/NXP/LPC/LPC55S69/uart/Ada_Drivers_Library/embedded-runtimes/ravenscar-lpc55s69_evk_s/sfp/adalib/libgnarl.a(s-bbtiev.o)
 .text.system__bb__timing_events__cancel_handler
                0x0000000000000000       0x5c /home/hedley/ada/NXP/LPC/LPC55S69/uart/Ada_Drivers_Library/embedded-runtimes/ravenscar-lpc55s69_evk_s/sfp/adalib/libgnarl.a(s-bbtiev.o)
 .text.system__bb__timing_events__timing_eventIP
                0x0000000000000000       0x1c /home/hedley/ada/NXP/LPC/LPC55S69/uart/Ada_Drivers_Library/embedded-runtimes/ravenscar-lpc55s69_evk_s/sfp/adalib/libgnarl.a(s-bbtiev.o)
 .text.system__bb__timing_events__get_next_timeout
                0x0000000000000000       0x24 /home/hedley/ada/NXP/LPC/LPC55S69/uart/Ada_Drivers_Library/embedded-runtimes/ravenscar-lpc55s69_evk_s/sfp/adalib/libgnarl.a(s-bbtiev.o)
 .data.system__bb__timing_events_E
                0x0000000000000000        0x2 /home/hedley/ada/NXP/LPC/LPC55S69/uart/Ada_Drivers_Library/embedded-runtimes/ravenscar-lpc55s69_evk_s/sfp/adalib/libgnarl.a(s-bbtiev.o)
 .rodata.system__bb__timing_events__timing_eventB10s
                0x0000000000000000       0x1c /home/hedley/ada/NXP/LPC/LPC55S69/uart/Ada_Drivers_Library/embedded-runtimes/ravenscar-lpc55s69_evk_s/sfp/adalib/libgnarl.a(s-bbtiev.o)
 .rodata.system__bb__timing_events__timing_eventE6s
                0x0000000000000000       0x25 /home/hedley/ada/NXP/LPC/LPC55S69/uart/Ada_Drivers_Library/embedded-runtimes/ravenscar-lpc55s69_evk_s/sfp/adalib/libgnarl.a(s-bbtiev.o)
 .rodata.system__bb__timing_events__timing_eventP
                0x0000000000000000        0x4 /home/hedley/ada/NXP/LPC/LPC55S69/uart/Ada_Drivers_Library/embedded-runtimes/ravenscar-lpc55s69_evk_s/sfp/adalib/libgnarl.a(s-bbtiev.o)
 .rodata.system__bb__timing_events__timing_eventR8s
                0x0000000000000000        0x4 /home/hedley/ada/NXP/LPC/LPC55S69/uart/Ada_Drivers_Library/embedded-runtimes/ravenscar-lpc55s69_evk_s/sfp/adalib/libgnarl.a(s-bbtiev.o)
 .rodata.system__bb__timing_events__timing_eventR8s___UNC
                0x0000000000000000        0xc /home/hedley/ada/NXP/LPC/LPC55S69/uart/Ada_Drivers_Library/embedded-runtimes/ravenscar-lpc55s69_evk_s/sfp/adalib/libgnarl.a(s-bbtiev.o)
 .rodata.system__bb__timing_events__timing_eventT
                0x0000000000000000       0x1c /home/hedley/ada/NXP/LPC/LPC55S69/uart/Ada_Drivers_Library/embedded-runtimes/ravenscar-lpc55s69_evk_s/sfp/adalib/libgnarl.a(s-bbtiev.o)
 .rodata.system__bb__timing_events__timing_eventY
                0x0000000000000000        0x4 /home/hedley/ada/NXP/LPC/LPC55S69/uart/Ada_Drivers_Library/embedded-runtimes/ravenscar-lpc55s69_evk_s/sfp/adalib/libgnarl.a(s-bbtiev.o)
 .text          0x0000000000000000        0x0 /home/hedley/ada/NXP/LPC/LPC55S69/uart/Ada_Drivers_Library/embedded-runtimes/ravenscar-lpc55s69_evk_s/sfp/adalib/libgnarl.a(s-taprop.o)
 .data          0x0000000000000000        0x0 /home/hedley/ada/NXP/LPC/LPC55S69/uart/Ada_Drivers_Library/embedded-runtimes/ravenscar-lpc55s69_evk_s/sfp/adalib/libgnarl.a(s-taprop.o)
 .bss           0x0000000000000000        0x0 /home/hedley/ada/NXP/LPC/LPC55S69/uart/Ada_Drivers_Library/embedded-runtimes/ravenscar-lpc55s69_evk_s/sfp/adalib/libgnarl.a(s-taprop.o)
 .text.system__task_primitives__operations__Tidle_stacksBIP
                0x0000000000000000        0x4 /home/hedley/ada/NXP/LPC/LPC55S69/uart/Ada_Drivers_Library/embedded-runtimes/ravenscar-lpc55s69_evk_s/sfp/adalib/libgnarl.a(s-taprop.o)
 .text.system__task_primitives__operations__Tidle_stacks_tableBIP
                0x0000000000000000        0x4 /home/hedley/ada/NXP/LPC/LPC55S69/uart/Ada_Drivers_Library/embedded-runtimes/ravenscar-lpc55s69_evk_s/sfp/adalib/libgnarl.a(s-taprop.o)
 .text.system__task_primitives__operations__Tidle_tasksBIP
                0x0000000000000000        0x4 /home/hedley/ada/NXP/LPC/LPC55S69/uart/Ada_Drivers_Library/embedded-runtimes/ravenscar-lpc55s69_evk_s/sfp/adalib/libgnarl.a(s-taprop.o)
 .text.system__task_primitives__operations__self
                0x0000000000000000        0xc /home/hedley/ada/NXP/LPC/LPC55S69/uart/Ada_Drivers_Library/embedded-runtimes/ravenscar-lpc55s69_evk_s/sfp/adalib/libgnarl.a(s-taprop.o)
 .text.system__task_primitives__operations__sleep
                0x0000000000000000        0x4 /home/hedley/ada/NXP/LPC/LPC55S69/uart/Ada_Drivers_Library/embedded-runtimes/ravenscar-lpc55s69_evk_s/sfp/adalib/libgnarl.a(s-taprop.o)
 .text.system__task_primitives__operations__delay_until
                0x0000000000000000       0x1c /home/hedley/ada/NXP/LPC/LPC55S69/uart/Ada_Drivers_Library/embedded-runtimes/ravenscar-lpc55s69_evk_s/sfp/adalib/libgnarl.a(s-taprop.o)
 .text.system__task_primitives__operations__monotonic_clock
                0x0000000000000000       0x60 /home/hedley/ada/NXP/LPC/LPC55S69/uart/Ada_Drivers_Library/embedded-runtimes/ravenscar-lpc55s69_evk_s/sfp/adalib/libgnarl.a(s-taprop.o)
 .text.system__task_primitives__operations__wakeup
                0x0000000000000000        0x8 /home/hedley/ada/NXP/LPC/LPC55S69/uart/Ada_Drivers_Library/embedded-runtimes/ravenscar-lpc55s69_evk_s/sfp/adalib/libgnarl.a(s-taprop.o)
 .text.system__task_primitives__operations__set_priority
                0x0000000000000000       0x18 /home/hedley/ada/NXP/LPC/LPC55S69/uart/Ada_Drivers_Library/embedded-runtimes/ravenscar-lpc55s69_evk_s/sfp/adalib/libgnarl.a(s-taprop.o)
 .text.system__task_primitives__operations__get_priority
                0x0000000000000000        0x8 /home/hedley/ada/NXP/LPC/LPC55S69/uart/Ada_Drivers_Library/embedded-runtimes/ravenscar-lpc55s69_evk_s/sfp/adalib/libgnarl.a(s-taprop.o)
 .text.system__task_primitives__operations__get_affinity
                0x0000000000000000        0xc /home/hedley/ada/NXP/LPC/LPC55S69/uart/Ada_Drivers_Library/embedded-runtimes/ravenscar-lpc55s69_evk_s/sfp/adalib/libgnarl.a(s-taprop.o)
 .text.system__task_primitives__operations__get_cpu
                0x0000000000000000       0x10 /home/hedley/ada/NXP/LPC/LPC55S69/uart/Ada_Drivers_Library/embedded-runtimes/ravenscar-lpc55s69_evk_s/sfp/adalib/libgnarl.a(s-taprop.o)
 .text.system__task_primitives__operations__get_thread_id
                0x0000000000000000        0x8 /home/hedley/ada/NXP/LPC/LPC55S69/uart/Ada_Drivers_Library/embedded-runtimes/ravenscar-lpc55s69_evk_s/sfp/adalib/libgnarl.a(s-taprop.o)
 .text.system__task_primitives__operations__initialize_tcb
                0x0000000000000000        0x4 /home/hedley/ada/NXP/LPC/LPC55S69/uart/Ada_Drivers_Library/embedded-runtimes/ravenscar-lpc55s69_evk_s/sfp/adalib/libgnarl.a(s-taprop.o)
 .text.system__task_primitives__operations__create_task
                0x0000000000000000       0x34 /home/hedley/ada/NXP/LPC/LPC55S69/uart/Ada_Drivers_Library/embedded-runtimes/ravenscar-lpc55s69_evk_s/sfp/adalib/libgnarl.a(s-taprop.o)
 .text.__gnat_initialize_slave
                0x0000000000000000       0x34 /home/hedley/ada/NXP/LPC/LPC55S69/uart/Ada_Drivers_Library/embedded-runtimes/ravenscar-lpc55s69_evk_s/sfp/adalib/libgnarl.a(s-taprop.o)
 .text.system__task_primitives__operations__initialize
                0x0000000000000000       0xac /home/hedley/ada/NXP/LPC/LPC55S69/uart/Ada_Drivers_Library/embedded-runtimes/ravenscar-lpc55s69_evk_s/sfp/adalib/libgnarl.a(s-taprop.o)
 .text.system__task_primitives__operations__is_task_context
                0x0000000000000000       0x14 /home/hedley/ada/NXP/LPC/LPC55S69/uart/Ada_Drivers_Library/embedded-runtimes/ravenscar-lpc55s69_evk_s/sfp/adalib/libgnarl.a(s-taprop.o)
 .rodata.system__task_primitives__operations__idle_stack_size
                0x0000000000000000        0x4 /home/hedley/ada/NXP/LPC/LPC55S69/uart/Ada_Drivers_Library/embedded-runtimes/ravenscar-lpc55s69_evk_s/sfp/adalib/libgnarl.a(s-taprop.o)
 .text          0x0000000000000000        0x0 /home/hedley/ada/NXP/LPC/LPC55S69/uart/Ada_Drivers_Library/embedded-runtimes/ravenscar-lpc55s69_evk_s/sfp/adalib/libgnarl.a(s-tasdeb.o)
 .data          0x0000000000000000        0x0 /home/hedley/ada/NXP/LPC/LPC55S69/uart/Ada_Drivers_Library/embedded-runtimes/ravenscar-lpc55s69_evk_s/sfp/adalib/libgnarl.a(s-tasdeb.o)
 .bss           0x0000000000000000        0x0 /home/hedley/ada/NXP/LPC/LPC55S69/uart/Ada_Drivers_Library/embedded-runtimes/ravenscar-lpc55s69_evk_s/sfp/adalib/libgnarl.a(s-tasdeb.o)
 .text.system__tasking__debug__add_task_id
                0x0000000000000000       0x3c /home/hedley/ada/NXP/LPC/LPC55S69/uart/Ada_Drivers_Library/embedded-runtimes/ravenscar-lpc55s69_evk_s/sfp/adalib/libgnarl.a(s-tasdeb.o)
 .data.system__tasking__debug_E
                0x0000000000000000        0x2 /home/hedley/ada/NXP/LPC/LPC55S69/uart/Ada_Drivers_Library/embedded-runtimes/ravenscar-lpc55s69_evk_s/sfp/adalib/libgnarl.a(s-tasdeb.o)
 .text          0x0000000000000000        0x0 /home/hedley/ada/NXP/LPC/LPC55S69/uart/Ada_Drivers_Library/embedded-runtimes/ravenscar-lpc55s69_evk_s/sfp/adalib/libgnat.a(a-elchha.o)
 .data          0x0000000000000000        0x0 /home/hedley/ada/NXP/LPC/LPC55S69/uart/Ada_Drivers_Library/embedded-runtimes/ravenscar-lpc55s69_evk_s/sfp/adalib/libgnat.a(a-elchha.o)
 .bss           0x0000000000000000        0x0 /home/hedley/ada/NXP/LPC/LPC55S69/uart/Ada_Drivers_Library/embedded-runtimes/ravenscar-lpc55s69_evk_s/sfp/adalib/libgnat.a(a-elchha.o)
 .data.ada__exceptions__last_chance_handler_E
                0x0000000000000000        0x2 /home/hedley/ada/NXP/LPC/LPC55S69/uart/Ada_Drivers_Library/embedded-runtimes/ravenscar-lpc55s69_evk_s/sfp/adalib/libgnat.a(a-elchha.o)
 .text          0x0000000000000000        0x0 /home/hedley/ada/NXP/LPC/LPC55S69/uart/Ada_Drivers_Library/embedded-runtimes/ravenscar-lpc55s69_evk_s/sfp/adalib/libgnat.a(g-io.o)
 .data          0x0000000000000000        0x0 /home/hedley/ada/NXP/LPC/LPC55S69/uart/Ada_Drivers_Library/embedded-runtimes/ravenscar-lpc55s69_evk_s/sfp/adalib/libgnat.a(g-io.o)
 .bss           0x0000000000000000        0x0 /home/hedley/ada/NXP/LPC/LPC55S69/uart/Ada_Drivers_Library/embedded-runtimes/ravenscar-lpc55s69_evk_s/sfp/adalib/libgnat.a(g-io.o)
 .data.gnat__io_E
                0x0000000000000000        0x2 /home/hedley/ada/NXP/LPC/LPC55S69/uart/Ada_Drivers_Library/embedded-runtimes/ravenscar-lpc55s69_evk_s/sfp/adalib/libgnat.a(g-io.o)
 .data          0x0000000000000000        0x0 /home/hedley/ada/NXP/LPC/LPC55S69/uart/Ada_Drivers_Library/embedded-runtimes/ravenscar-lpc55s69_evk_s/sfp/adalib/libgnat.a(handler.o)
 .bss           0x0000000000000000        0x0 /home/hedley/ada/NXP/LPC/LPC55S69/uart/Ada_Drivers_Library/embedded-runtimes/ravenscar-lpc55s69_evk_s/sfp/adalib/libgnat.a(handler.o)
 .text          0x0000000000000000        0x0 /home/hedley/ada/NXP/LPC/LPC55S69/uart/Ada_Drivers_Library/embedded-runtimes/ravenscar-lpc55s69_evk_s/sfp/adalib/libgnat.a(s-assert.o)
 .data          0x0000000000000000        0x0 /home/hedley/ada/NXP/LPC/LPC55S69/uart/Ada_Drivers_Library/embedded-runtimes/ravenscar-lpc55s69_evk_s/sfp/adalib/libgnat.a(s-assert.o)
 .bss           0x0000000000000000        0x0 /home/hedley/ada/NXP/LPC/LPC55S69/uart/Ada_Drivers_Library/embedded-runtimes/ravenscar-lpc55s69_evk_s/sfp/adalib/libgnat.a(s-assert.o)
 .data.system__assertions_E
                0x0000000000000000        0x2 /home/hedley/ada/NXP/LPC/LPC55S69/uart/Ada_Drivers_Library/embedded-runtimes/ravenscar-lpc55s69_evk_s/sfp/adalib/libgnat.a(s-assert.o)
 .data.system__assertions__assert_failure
                0x0000000000000000       0x18 /home/hedley/ada/NXP/LPC/LPC55S69/uart/Ada_Drivers_Library/embedded-runtimes/ravenscar-lpc55s69_evk_s/sfp/adalib/libgnat.a(s-assert.o)
 .rodata.system__assertions__R2s
                0x0000000000000000        0x4 /home/hedley/ada/NXP/LPC/LPC55S69/uart/Ada_Drivers_Library/embedded-runtimes/ravenscar-lpc55s69_evk_s/sfp/adalib/libgnat.a(s-assert.o)
 .rodata.system__assertions__assert_failureE
                0x0000000000000000       0x21 /home/hedley/ada/NXP/LPC/LPC55S69/uart/Ada_Drivers_Library/embedded-runtimes/ravenscar-lpc55s69_evk_s/sfp/adalib/libgnat.a(s-assert.o)
 .text          0x0000000000000000        0x0 /home/hedley/ada/NXP/LPC/LPC55S69/uart/Ada_Drivers_Library/embedded-runtimes/ravenscar-lpc55s69_evk_s/sfp/adalib/libgnat.a(s-macres.o)
 .data          0x0000000000000000        0x0 /home/hedley/ada/NXP/LPC/LPC55S69/uart/Ada_Drivers_Library/embedded-runtimes/ravenscar-lpc55s69_evk_s/sfp/adalib/libgnat.a(s-macres.o)
 .bss           0x0000000000000000        0x0 /home/hedley/ada/NXP/LPC/LPC55S69/uart/Ada_Drivers_Library/embedded-runtimes/ravenscar-lpc55s69_evk_s/sfp/adalib/libgnat.a(s-macres.o)
 .text.abort    0x0000000000000000       0x10 /home/hedley/ada/NXP/LPC/LPC55S69/uart/Ada_Drivers_Library/embedded-runtimes/ravenscar-lpc55s69_evk_s/sfp/adalib/libgnat.a(s-macres.o)
 .data.system__machine_reset_E
                0x0000000000000000        0x2 /home/hedley/ada/NXP/LPC/LPC55S69/uart/Ada_Drivers_Library/embedded-runtimes/ravenscar-lpc55s69_evk_s/sfp/adalib/libgnat.a(s-macres.o)
 .text          0x0000000000000000        0x0 /home/hedley/ada/NXP/LPC/LPC55S69/uart/Ada_Drivers_Library/embedded-runtimes/ravenscar-lpc55s69_evk_s/sfp/adalib/libgnat.a(s-memcop.o)
 .data          0x0000000000000000        0x0 /home/hedley/ada/NXP/LPC/LPC55S69/uart/Ada_Drivers_Library/embedded-runtimes/ravenscar-lpc55s69_evk_s/sfp/adalib/libgnat.a(s-memcop.o)
 .bss           0x0000000000000000        0x0 /home/hedley/ada/NXP/LPC/LPC55S69/uart/Ada_Drivers_Library/embedded-runtimes/ravenscar-lpc55s69_evk_s/sfp/adalib/libgnat.a(s-memcop.o)
 .data.system__memory_copy_E
                0x0000000000000000        0x2 /home/hedley/ada/NXP/LPC/LPC55S69/uart/Ada_Drivers_Library/embedded-runtimes/ravenscar-lpc55s69_evk_s/sfp/adalib/libgnat.a(s-memcop.o)
 .text          0x0000000000000000        0x0 /home/hedley/ada/NXP/LPC/LPC55S69/uart/Ada_Drivers_Library/embedded-runtimes/ravenscar-lpc55s69_evk_s/sfp/adalib/libgnat.a(s-memset.o)
 .data          0x0000000000000000        0x0 /home/hedley/ada/NXP/LPC/LPC55S69/uart/Ada_Drivers_Library/embedded-runtimes/ravenscar-lpc55s69_evk_s/sfp/adalib/libgnat.a(s-memset.o)
 .bss           0x0000000000000000        0x0 /home/hedley/ada/NXP/LPC/LPC55S69/uart/Ada_Drivers_Library/embedded-runtimes/ravenscar-lpc55s69_evk_s/sfp/adalib/libgnat.a(s-memset.o)
 .data.system__memory_set_E
                0x0000000000000000        0x2 /home/hedley/ada/NXP/LPC/LPC55S69/uart/Ada_Drivers_Library/embedded-runtimes/ravenscar-lpc55s69_evk_s/sfp/adalib/libgnat.a(s-memset.o)
 .text          0x0000000000000000        0x0 /home/hedley/ada/NXP/LPC/LPC55S69/uart/Ada_Drivers_Library/embedded-runtimes/ravenscar-lpc55s69_evk_s/sfp/adalib/libgnat.a(s-parame.o)
 .data          0x0000000000000000        0x0 /home/hedley/ada/NXP/LPC/LPC55S69/uart/Ada_Drivers_Library/embedded-runtimes/ravenscar-lpc55s69_evk_s/sfp/adalib/libgnat.a(s-parame.o)
 .bss           0x0000000000000000        0x0 /home/hedley/ada/NXP/LPC/LPC55S69/uart/Ada_Drivers_Library/embedded-runtimes/ravenscar-lpc55s69_evk_s/sfp/adalib/libgnat.a(s-parame.o)
 .data.system__parameters_E
                0x0000000000000000        0x2 /home/hedley/ada/NXP/LPC/LPC55S69/uart/Ada_Drivers_Library/embedded-runtimes/ravenscar-lpc55s69_evk_s/sfp/adalib/libgnat.a(s-parame.o)
 .rodata.system__parameters__c_malloc_linkname
                0x0000000000000000        0xd /home/hedley/ada/NXP/LPC/LPC55S69/uart/Ada_Drivers_Library/embedded-runtimes/ravenscar-lpc55s69_evk_s/sfp/adalib/libgnat.a(s-parame.o)
 .rodata.system__parameters__default_stack_size
                0x0000000000000000        0x4 /home/hedley/ada/NXP/LPC/LPC55S69/uart/Ada_Drivers_Library/embedded-runtimes/ravenscar-lpc55s69_evk_s/sfp/adalib/libgnat.a(s-parame.o)
 .rodata.system__parameters__garbage_collected
                0x0000000000000000        0x1 /home/hedley/ada/NXP/LPC/LPC55S69/uart/Ada_Drivers_Library/embedded-runtimes/ravenscar-lpc55s69_evk_s/sfp/adalib/libgnat.a(s-parame.o)
 .rodata.system__parameters__minimum_stack_size
                0x0000000000000000        0x4 /home/hedley/ada/NXP/LPC/LPC55S69/uart/Ada_Drivers_Library/embedded-runtimes/ravenscar-lpc55s69_evk_s/sfp/adalib/libgnat.a(s-parame.o)
 .rodata.system__parameters__no_abort
                0x0000000000000000        0x1 /home/hedley/ada/NXP/LPC/LPC55S69/uart/Ada_Drivers_Library/embedded-runtimes/ravenscar-lpc55s69_evk_s/sfp/adalib/libgnat.a(s-parame.o)
 .rodata.system__parameters__runtime_default_sec_stack_size
                0x0000000000000000        0x4 /home/hedley/ada/NXP/LPC/LPC55S69/uart/Ada_Drivers_Library/embedded-runtimes/ravenscar-lpc55s69_evk_s/sfp/adalib/libgnat.a(s-parame.o)
 .rodata.system__parameters__single_lock
                0x0000000000000000        0x1 /home/hedley/ada/NXP/LPC/LPC55S69/uart/Ada_Drivers_Library/embedded-runtimes/ravenscar-lpc55s69_evk_s/sfp/adalib/libgnat.a(s-parame.o)
 .rodata.system__parameters__stack_grows_down
                0x0000000000000000        0x1 /home/hedley/ada/NXP/LPC/LPC55S69/uart/Ada_Drivers_Library/embedded-runtimes/ravenscar-lpc55s69_evk_s/sfp/adalib/libgnat.a(s-parame.o)
 .rodata.system__parameters__unspecified_size
                0x0000000000000000        0x4 /home/hedley/ada/NXP/LPC/LPC55S69/uart/Ada_Drivers_Library/embedded-runtimes/ravenscar-lpc55s69_evk_s/sfp/adalib/libgnat.a(s-parame.o)
 .text          0x0000000000000000        0x0 /home/hedley/ada/NXP/LPC/LPC55S69/uart/Ada_Drivers_Library/embedded-runtimes/ravenscar-lpc55s69_evk_s/sfp/adalib/libgnat.a(s-secsta.o)
 .data          0x0000000000000000        0x0 /home/hedley/ada/NXP/LPC/LPC55S69/uart/Ada_Drivers_Library/embedded-runtimes/ravenscar-lpc55s69_evk_s/sfp/adalib/libgnat.a(s-secsta.o)
 .bss           0x0000000000000000        0x0 /home/hedley/ada/NXP/LPC/LPC55S69/uart/Ada_Drivers_Library/embedded-runtimes/ravenscar-lpc55s69_evk_s/sfp/adalib/libgnat.a(s-secsta.o)
 .text.system__secondary_stack__memoryIP
                0x0000000000000000        0x4 /home/hedley/ada/NXP/LPC/LPC55S69/uart/Ada_Drivers_Library/embedded-runtimes/ravenscar-lpc55s69_evk_s/sfp/adalib/libgnat.a(s-secsta.o)
 .text.system__secondary_stack__ss_allocate
                0x0000000000000000       0x60 /home/hedley/ada/NXP/LPC/LPC55S69/uart/Ada_Drivers_Library/embedded-runtimes/ravenscar-lpc55s69_evk_s/sfp/adalib/libgnat.a(s-secsta.o)
 .text.system__secondary_stack__ss_get_max
                0x0000000000000000       0x10 /home/hedley/ada/NXP/LPC/LPC55S69/uart/Ada_Drivers_Library/embedded-runtimes/ravenscar-lpc55s69_evk_s/sfp/adalib/libgnat.a(s-secsta.o)
 .text.system__secondary_stack__ss_mark
                0x0000000000000000        0xc /home/hedley/ada/NXP/LPC/LPC55S69/uart/Ada_Drivers_Library/embedded-runtimes/ravenscar-lpc55s69_evk_s/sfp/adalib/libgnat.a(s-secsta.o)
 .text.system__secondary_stack__ss_release
                0x0000000000000000        0xc /home/hedley/ada/NXP/LPC/LPC55S69/uart/Ada_Drivers_Library/embedded-runtimes/ravenscar-lpc55s69_evk_s/sfp/adalib/libgnat.a(s-secsta.o)
 .bss.system__secondary_stack__ss_pool
                0x0000000000000000        0x4 /home/hedley/ada/NXP/LPC/LPC55S69/uart/Ada_Drivers_Library/embedded-runtimes/ravenscar-lpc55s69_evk_s/sfp/adalib/libgnat.a(s-secsta.o)
 .data.system__secondary_stack_E
                0x0000000000000000        0x2 /home/hedley/ada/NXP/LPC/LPC55S69/uart/Ada_Drivers_Library/embedded-runtimes/ravenscar-lpc55s69_evk_s/sfp/adalib/libgnat.a(s-secsta.o)
 .text          0x0000000000000000        0x0 /home/hedley/ada/NXP/LPC/LPC55S69/uart/Ada_Drivers_Library/embedded-runtimes/ravenscar-lpc55s69_evk_s/sfp/adalib/libgnat.a(s-textio.o)
 .data          0x0000000000000000        0x0 /home/hedley/ada/NXP/LPC/LPC55S69/uart/Ada_Drivers_Library/embedded-runtimes/ravenscar-lpc55s69_evk_s/sfp/adalib/libgnat.a(s-textio.o)
 .bss           0x0000000000000000        0x0 /home/hedley/ada/NXP/LPC/LPC55S69/uart/Ada_Drivers_Library/embedded-runtimes/ravenscar-lpc55s69_evk_s/sfp/adalib/libgnat.a(s-textio.o)
 .text.system__text_io__is_rx_ready
                0x0000000000000000        0x4 /home/hedley/ada/NXP/LPC/LPC55S69/uart/Ada_Drivers_Library/embedded-runtimes/ravenscar-lpc55s69_evk_s/sfp/adalib/libgnat.a(s-textio.o)
 .text.system__text_io__get
                0x0000000000000000        0x4 /home/hedley/ada/NXP/LPC/LPC55S69/uart/Ada_Drivers_Library/embedded-runtimes/ravenscar-lpc55s69_evk_s/sfp/adalib/libgnat.a(s-textio.o)
 .data.system__text_io_E
                0x0000000000000000        0x2 /home/hedley/ada/NXP/LPC/LPC55S69/uart/Ada_Drivers_Library/embedded-runtimes/ravenscar-lpc55s69_evk_s/sfp/adalib/libgnat.a(s-textio.o)
 .data          0x0000000000000000        0x0 /home/hedley/ada/NXP/LPC/LPC55S69/uart/Ada_Drivers_Library/embedded-runtimes/ravenscar-lpc55s69_evk_s/sfp/adalib/libgnat.a(start-common.o)
 .bss           0x0000000000000000        0x0 /home/hedley/ada/NXP/LPC/LPC55S69/uart/Ada_Drivers_Library/embedded-runtimes/ravenscar-lpc55s69_evk_s/sfp/adalib/libgnat.a(start-common.o)
 .data          0x0000000000000000        0x0 /home/hedley/ada/NXP/LPC/LPC55S69/uart/Ada_Drivers_Library/embedded-runtimes/ravenscar-lpc55s69_evk_s/sfp/adalib/libgnat.a(start-ram.o)
 .bss           0x0000000000000000        0x0 /home/hedley/ada/NXP/LPC/LPC55S69/uart/Ada_Drivers_Library/embedded-runtimes/ravenscar-lpc55s69_evk_s/sfp/adalib/libgnat.a(start-ram.o)
 .text          0x0000000000000000        0x0 /home/hedley/ada/NXP/LPC/LPC55S69/uart/Ada_Drivers_Library/embedded-runtimes/ravenscar-lpc55s69_evk_s/sfp/adalib/libgnat.a(a-except.o)
 .data          0x0000000000000000        0x0 /home/hedley/ada/NXP/LPC/LPC55S69/uart/Ada_Drivers_Library/embedded-runtimes/ravenscar-lpc55s69_evk_s/sfp/adalib/libgnat.a(a-except.o)
 .bss           0x0000000000000000        0x0 /home/hedley/ada/NXP/LPC/LPC55S69/uart/Ada_Drivers_Library/embedded-runtimes/ravenscar-lpc55s69_evk_s/sfp/adalib/libgnat.a(a-except.o)
 .data.ada__exceptions_E
                0x0000000000000000        0x2 /home/hedley/ada/NXP/LPC/LPC55S69/uart/Ada_Drivers_Library/embedded-runtimes/ravenscar-lpc55s69_evk_s/sfp/adalib/libgnat.a(a-except.o)
 .rodata.ada__exceptions__null_id
                0x0000000000000000        0x4 /home/hedley/ada/NXP/LPC/LPC55S69/uart/Ada_Drivers_Library/embedded-runtimes/ravenscar-lpc55s69_evk_s/sfp/adalib/libgnat.a(a-except.o)
 .rodata.ada__exceptions__empty_c_string
                0x0000000000000000        0x4 /home/hedley/ada/NXP/LPC/LPC55S69/uart/Ada_Drivers_Library/embedded-runtimes/ravenscar-lpc55s69_evk_s/sfp/adalib/libgnat.a(a-except.o)
 .text          0x0000000000000000        0x0 /home/hedley/ada/NXP/LPC/LPC55S69/uart/Ada_Drivers_Library/embedded-runtimes/ravenscar-lpc55s69_evk_s/sfp/adalib/libgnat.a(setup_pll.o)
 .data          0x0000000000000000        0x0 /home/hedley/ada/NXP/LPC/LPC55S69/uart/Ada_Drivers_Library/embedded-runtimes/ravenscar-lpc55s69_evk_s/sfp/adalib/libgnat.a(setup_pll.o)
 .bss           0x0000000000000000        0x0 /home/hedley/ada/NXP/LPC/LPC55S69/uart/Ada_Drivers_Library/embedded-runtimes/ravenscar-lpc55s69_evk_s/sfp/adalib/libgnat.a(setup_pll.o)
 .text          0x0000000000000000      0x158 ../../../glue/veneer_s.o
 .data          0x0000000000000000        0x0 ../../../glue/veneer_s.o
 .bss           0x0000000000000000        0x0 ../../../glue/veneer_s.o
 .debug_info    0x0000000000000000       0xd6 ../../../glue/veneer_s.o
 .debug_abbrev  0x0000000000000000       0xcd ../../../glue/veneer_s.o
 .debug_aranges
                0x0000000000000000       0x20 ../../../glue/veneer_s.o
 .debug_line    0x0000000000000000       0x81 ../../../glue/veneer_s.o
 .debug_str     0x0000000000000000      0x134 ../../../glue/veneer_s.o
 .comment       0x0000000000000000       0x3e ../../../glue/veneer_s.o
 .debug_frame   0x0000000000000000       0x84 ../../../glue/veneer_s.o
 .ARM.attributes
                0x0000000000000000       0x3c ../../../glue/veneer_s.o
 .data          0x0000000000000000        0x0 ../../../glue/veneer_ns.o
 .bss           0x0000000000000000        0x0 ../../../glue/veneer_ns.o
 .debug_info    0x0000000000000000       0x64 ../../../glue/veneer_ns.o
 .debug_abbrev  0x0000000000000000       0x53 ../../../glue/veneer_ns.o
 .debug_aranges
                0x0000000000000000       0x20 ../../../glue/veneer_ns.o
 .debug_line    0x0000000000000000       0x3b ../../../glue/veneer_ns.o
 .debug_str     0x0000000000000000       0xf0 ../../../glue/veneer_ns.o
 .comment       0x0000000000000000       0x3e ../../../glue/veneer_ns.o
 .debug_frame   0x0000000000000000       0x38 ../../../glue/veneer_ns.o
 .ARM.attributes
                0x0000000000000000       0x3c ../../../glue/veneer_ns.o
 .text          0x0000000000000000       0x5c ../../../glue/s_ns.o
 .data          0x0000000000000000        0x0 ../../../glue/s_ns.o
 .bss           0x0000000000000000        0x0 ../../../glue/s_ns.o
 .debug_line    0x0000000000000000       0x4f ../../../glue/s_ns.o
 .debug_info    0x0000000000000000       0x26 ../../../glue/s_ns.o
 .debug_abbrev  0x0000000000000000       0x14 ../../../glue/s_ns.o
 .debug_aranges
                0x0000000000000000       0x20 ../../../glue/s_ns.o
 .debug_str     0x0000000000000000       0x42 ../../../glue/s_ns.o
 .ARM.attributes
                0x0000000000000000       0x28 ../../../glue/s_ns.o
 .text          0x0000000000000000       0x98 ../../../glue/led.o
 .data          0x0000000000000000        0x0 ../../../glue/led.o
 .bss           0x0000000000000000        0x0 ../../../glue/led.o
 .debug_info    0x0000000000000000       0x99 ../../../glue/led.o
 .debug_abbrev  0x0000000000000000       0x94 ../../../glue/led.o
 .debug_aranges
                0x0000000000000000       0x20 ../../../glue/led.o
 .debug_line    0x0000000000000000       0x60 ../../../glue/led.o
 .debug_str     0x0000000000000000       0xd4 ../../../glue/led.o
 .comment       0x0000000000000000       0x3e ../../../glue/led.o
 .debug_frame   0x0000000000000000       0x60 ../../../glue/led.o
 .ARM.attributes
                0x0000000000000000       0x3c ../../../glue/led.o
 .data          0x0000000000000000        0x0 /opt/GNAT/2019-arm-elf/bin/../lib/gcc/arm-eabi/7.4.1/thumb/v7e-m/fpv4-sp/hard/libgcc.a(_aeabi_ldivmod.o)
 .bss           0x0000000000000000        0x0 /opt/GNAT/2019-arm-elf/bin/../lib/gcc/arm-eabi/7.4.1/thumb/v7e-m/fpv4-sp/hard/libgcc.a(_aeabi_ldivmod.o)
 .text          0x0000000000000000       0x30 /opt/GNAT/2019-arm-elf/bin/../lib/gcc/arm-eabi/7.4.1/thumb/v7e-m/fpv4-sp/hard/libgcc.a(_aeabi_uldivmod.o)
 .data          0x0000000000000000        0x0 /opt/GNAT/2019-arm-elf/bin/../lib/gcc/arm-eabi/7.4.1/thumb/v7e-m/fpv4-sp/hard/libgcc.a(_aeabi_uldivmod.o)
 .bss           0x0000000000000000        0x0 /opt/GNAT/2019-arm-elf/bin/../lib/gcc/arm-eabi/7.4.1/thumb/v7e-m/fpv4-sp/hard/libgcc.a(_aeabi_uldivmod.o)
 .debug_line    0x0000000000000000       0x67 /opt/GNAT/2019-arm-elf/bin/../lib/gcc/arm-eabi/7.4.1/thumb/v7e-m/fpv4-sp/hard/libgcc.a(_aeabi_uldivmod.o)
 .debug_info    0x0000000000000000       0x26 /opt/GNAT/2019-arm-elf/bin/../lib/gcc/arm-eabi/7.4.1/thumb/v7e-m/fpv4-sp/hard/libgcc.a(_aeabi_uldivmod.o)
 .debug_abbrev  0x0000000000000000       0x14 /opt/GNAT/2019-arm-elf/bin/../lib/gcc/arm-eabi/7.4.1/thumb/v7e-m/fpv4-sp/hard/libgcc.a(_aeabi_uldivmod.o)
 .debug_aranges
                0x0000000000000000       0x20 /opt/GNAT/2019-arm-elf/bin/../lib/gcc/arm-eabi/7.4.1/thumb/v7e-m/fpv4-sp/hard/libgcc.a(_aeabi_uldivmod.o)
 .debug_str     0x0000000000000000       0x94 /opt/GNAT/2019-arm-elf/bin/../lib/gcc/arm-eabi/7.4.1/thumb/v7e-m/fpv4-sp/hard/libgcc.a(_aeabi_uldivmod.o)
 .debug_frame   0x0000000000000000       0x2c /opt/GNAT/2019-arm-elf/bin/../lib/gcc/arm-eabi/7.4.1/thumb/v7e-m/fpv4-sp/hard/libgcc.a(_aeabi_uldivmod.o)
 .ARM.attributes
                0x0000000000000000       0x22 /opt/GNAT/2019-arm-elf/bin/../lib/gcc/arm-eabi/7.4.1/thumb/v7e-m/fpv4-sp/hard/libgcc.a(_aeabi_uldivmod.o)
 .data          0x0000000000000000        0x0 /opt/GNAT/2019-arm-elf/bin/../lib/gcc/arm-eabi/7.4.1/thumb/v7e-m/fpv4-sp/hard/libgcc.a(_udivmoddi4.o)
 .bss           0x0000000000000000        0x0 /opt/GNAT/2019-arm-elf/bin/../lib/gcc/arm-eabi/7.4.1/thumb/v7e-m/fpv4-sp/hard/libgcc.a(_udivmoddi4.o)
 .ARM.extab     0x0000000000000000        0x0 /opt/GNAT/2019-arm-elf/bin/../lib/gcc/arm-eabi/7.4.1/thumb/v7e-m/fpv4-sp/hard/libgcc.a(_udivmoddi4.o)
 .data          0x0000000000000000        0x0 /opt/GNAT/2019-arm-elf/bin/../lib/gcc/arm-eabi/7.4.1/thumb/v7e-m/fpv4-sp/hard/libgcc.a(_dvmd_tls.o)
 .bss           0x0000000000000000        0x0 /opt/GNAT/2019-arm-elf/bin/../lib/gcc/arm-eabi/7.4.1/thumb/v7e-m/fpv4-sp/hard/libgcc.a(_dvmd_tls.o)

Memory Configuration

Name             Origin             Length             Attributes
sflash           0x0000000010000000 0x00000000000a0000 xr
sramx            0x0000000014000000 0x0000000000008000 rw
sram12           0x0000000030000000 0x0000000000044000 xrw
sglue            0x0000000030010000 0x000000000000f000 xrw
nsglue           0x000000003001f000 0x0000000000001000 xrw
ns               0x0000000030020000 0x0000000000020000 xrw
*default*        0x0000000000000000 0xffffffffffffffff

Linker script and memory map

LOAD test_s.o
LOAD b__test_s.o
LOAD /home/hedley/ada/NXP/LPC/LPC55S69/uart/Ada_Drivers_Library/boards/lib/lpc55s69_evk_s/ravenscar-sfp/Debug/liblpc55s69_evk_s.a
LOAD /home/hedley/ada/NXP/LPC/LPC55S69/uart/Ada_Drivers_Library/components/lib/lpc55s69_evk_s/ravenscar-sfp/Debug/libcomponents.a
LOAD /home/hedley/ada/NXP/LPC/LPC55S69/uart/Ada_Drivers_Library/middleware/lib/lpc55s69_evk_s/ravenscar-sfp/Debug/libservices.a
LOAD /home/hedley/ada/NXP/LPC/LPC55S69/uart/Ada_Drivers_Library/arch/ARM/NXP/lib/lpc55s69_evk_s/ravenscar-sfp/Debug/liblpc55s69.a
LOAD /home/hedley/ada/NXP/LPC/LPC55S69/uart/Ada_Drivers_Library/arch/ARM/cortex_m/lib/cortex-m4f/lpc55s69_evk_s/ravenscar-sfp/Debug/libcortex-m4f.a
LOAD /home/hedley/ada/Ada_Drivers_Library/hal/lib/lpc55s69_evk_s/ravenscar-sfp/Debug/libHAL.a
LOAD /home/hedley/ada/NXP/LPC/LPC55S69/uart/Ada_Drivers_Library/embedded-runtimes/ravenscar-lpc55s69_evk_s/sfp/adalib/libgnarl.a
LOAD /home/hedley/ada/NXP/LPC/LPC55S69/uart/Ada_Drivers_Library/embedded-runtimes/ravenscar-lpc55s69_evk_s/sfp/adalib/libgnat.a
                0x0000000000008000                __stack_size = 0x8000
LOAD ../../../glue/veneer_s.o
LOAD ../../../glue/veneer_ns.o
LOAD ../../../glue/s_ns.o
LOAD ../../../glue/led.o
LOAD /home/hedley/ada/Ada_Drivers_Library/embedded-runtimes/ravenscar-lpc55s69_evk_s/sfp/adalib/libgnarl.a
LOAD /home/hedley/ada/Ada_Drivers_Library/embedded-runtimes/ravenscar-lpc55s69_evk_s/sfp/adalib/libgnat.a
START GROUP
LOAD /opt/GNAT/2019-arm-elf/bin/../lib/gcc/arm-eabi/7.4.1/thumb/v7e-m/fpv4-sp/hard/libgcc.a
END GROUP
                0x0000000000000000                __DYNAMIC = 0x0
                0x0000000000001000                _DEFAULT_STACK_SIZE = 0x1000

.text           0x0000000030000000     0x35a4
 *(.vectors)
 .vectors       0x0000000030000000       0x18 /home/hedley/ada/NXP/LPC/LPC55S69/uart/Ada_Drivers_Library/embedded-runtimes/ravenscar-lpc55s69_evk_s/sfp/adalib/libgnat.a(start-ram.o)
                0x0000000030000014                local_id
 *(.text .text.* .gnu.linkonce.t*)
 .text._ada_test_s
                0x0000000030000018      0x114 test_s.o
                0x0000000030000018                _ada_test_s
 .text.ada_main__Tsec_default_sized_stacksBIP
                0x000000003000012c       0x44 b__test_s.o
                0x000000003000012c                ada_main__Tsec_default_sized_stacksBIP
 .text.adainit  0x0000000030000170       0xa0 b__test_s.o
                0x0000000030000170                adainit
 .text.main     0x0000000030000210       0x1c b__test_s.o
                0x0000000030000210                main
 .text.ada_main___elabb
                0x000000003000022c       0x1c b__test_s.o
                0x000000003000022c                ada_main___elabb
 .text.nxp__board__initialize_board
                0x0000000030000248       0x6c /home/hedley/ada/NXP/LPC/LPC55S69/uart/Ada_Drivers_Library/boards/lib/lpc55s69_evk_s/ravenscar-sfp/Debug/liblpc55s69_evk_s.a(nxp-board.o)
                0x0000000030000248                nxp__board__initialize_board
 .text.nxp__board___elabs
                0x00000000300002b4       0x48 /home/hedley/ada/NXP/LPC/LPC55S69/uart/Ada_Drivers_Library/boards/lib/lpc55s69_evk_s/ravenscar-sfp/Debug/liblpc55s69_evk_s.a(nxp-board.o)
                0x00000000300002b4                nxp__board___elabs
 .text.nxp__device__enable_clock
                0x00000000300002fc       0x80 /home/hedley/ada/NXP/LPC/LPC55S69/uart/Ada_Drivers_Library/arch/ARM/NXP/lib/lpc55s69_evk_s/ravenscar-sfp/Debug/liblpc55s69.a(nxp-device.o)
                0x00000000300002fc                nxp__device__enable_clock
 .text.nxp__device__enable_clock__3
                0x000000003000037c       0x70 /home/hedley/ada/NXP/LPC/LPC55S69/uart/Ada_Drivers_Library/arch/ARM/NXP/lib/lpc55s69_evk_s/ravenscar-sfp/Debug/liblpc55s69.a(nxp-device.o)
                0x000000003000037c                nxp__device__enable_clock__3
 .text.nxp__device__s_ns_periph
                0x00000000300003ec       0x3c /home/hedley/ada/NXP/LPC/LPC55S69/uart/Ada_Drivers_Library/arch/ARM/NXP/lib/lpc55s69_evk_s/ravenscar-sfp/Debug/liblpc55s69.a(nxp-device.o)
                0x00000000300003ec                nxp__device__s_ns_periph
 .text.nxp__device___elabs
                0x0000000030000428      0x8d4 /home/hedley/ada/NXP/LPC/LPC55S69/uart/Ada_Drivers_Library/arch/ARM/NXP/lib/lpc55s69_evk_s/ravenscar-sfp/Debug/liblpc55s69.a(nxp-device.o)
                0x0000000030000428                nxp__device___elabs
 .text.nxp__gpio__gpio_pinRP
                0x0000000030000cfc      0x190 /home/hedley/ada/NXP/LPC/LPC55S69/uart/Ada_Drivers_Library/arch/ARM/NXP/lib/lpc55s69_evk_s/ravenscar-sfp/Debug/liblpc55s69.a(nxp-gpio.o)
                0x0000000030000cfc                nxp__gpio__gpio_pinRP
 .text.nxp__gpio__gpio_pointIP
                0x0000000030000e8c       0x2c /home/hedley/ada/NXP/LPC/LPC55S69/uart/Ada_Drivers_Library/arch/ARM/NXP/lib/lpc55s69_evk_s/ravenscar-sfp/Debug/liblpc55s69.a(nxp-gpio.o)
                0x0000000030000e8c                nxp__gpio__gpio_pointIP
 .text.nxp__gpio___size__2
                0x0000000030000eb8       0x1c /home/hedley/ada/NXP/LPC/LPC55S69/uart/Ada_Drivers_Library/arch/ARM/NXP/lib/lpc55s69_evk_s/ravenscar-sfp/Debug/liblpc55s69.a(nxp-gpio.o)
                0x0000000030000eb8                nxp__gpio___size__2
 .text.nxp__gpio__Oeq
                0x0000000030000ed4       0x40 /home/hedley/ada/NXP/LPC/LPC55S69/uart/Ada_Drivers_Library/arch/ARM/NXP/lib/lpc55s69_evk_s/ravenscar-sfp/Debug/liblpc55s69.a(nxp-gpio.o)
                0x0000000030000ed4                nxp__gpio__Oeq
 .text.nxp__gpio___assign
                0x0000000030000f14       0x28 /home/hedley/ada/NXP/LPC/LPC55S69/uart/Ada_Drivers_Library/arch/ARM/NXP/lib/lpc55s69_evk_s/ravenscar-sfp/Debug/liblpc55s69.a(nxp-gpio.o)
                0x0000000030000f14                nxp__gpio___assign
 .text.nxp__gpio__gpio_pointsIP
                0x0000000030000f3c       0x3c /home/hedley/ada/NXP/LPC/LPC55S69/uart/Ada_Drivers_Library/arch/ARM/NXP/lib/lpc55s69_evk_s/ravenscar-sfp/Debug/liblpc55s69.a(nxp-gpio.o)
                0x0000000030000f3c                nxp__gpio__gpio_pointsIP
 .text.nxp__gpio__mode
                0x0000000030000f78       0x38 /home/hedley/ada/NXP/LPC/LPC55S69/uart/Ada_Drivers_Library/arch/ARM/NXP/lib/lpc55s69_evk_s/ravenscar-sfp/Debug/liblpc55s69.a(nxp-gpio.o)
                0x0000000030000f78                nxp__gpio__mode
 .text.nxp__gpio__set_mode
                0x0000000030000fb0       0x3c /home/hedley/ada/NXP/LPC/LPC55S69/uart/Ada_Drivers_Library/arch/ARM/NXP/lib/lpc55s69_evk_s/ravenscar-sfp/Debug/liblpc55s69.a(nxp-gpio.o)
                0x0000000030000fb0                nxp__gpio__set_mode
 .text.nxp__gpio__pull_resistor
                0x0000000030000fec       0x38 /home/hedley/ada/NXP/LPC/LPC55S69/uart/Ada_Drivers_Library/arch/ARM/NXP/lib/lpc55s69_evk_s/ravenscar-sfp/Debug/liblpc55s69.a(nxp-gpio.o)
                0x0000000030000fec                nxp__gpio__pull_resistor
 .text.nxp__gpio__set_pull_resistor
                0x0000000030001024       0x3c /home/hedley/ada/NXP/LPC/LPC55S69/uart/Ada_Drivers_Library/arch/ARM/NXP/lib/lpc55s69_evk_s/ravenscar-sfp/Debug/liblpc55s69.a(nxp-gpio.o)
                0x0000000030001024                nxp__gpio__set_pull_resistor
 .text.nxp__gpio__set
                0x0000000030001060       0x78 /home/hedley/ada/NXP/LPC/LPC55S69/uart/Ada_Drivers_Library/arch/ARM/NXP/lib/lpc55s69_evk_s/ravenscar-sfp/Debug/liblpc55s69.a(nxp-gpio.o)
                0x0000000030001060                nxp__gpio__set
 .text.nxp__gpio__set__2
                0x00000000300010d8       0xa8 /home/hedley/ada/NXP/LPC/LPC55S69/uart/Ada_Drivers_Library/arch/ARM/NXP/lib/lpc55s69_evk_s/ravenscar-sfp/Debug/liblpc55s69.a(nxp-gpio.o)
                0x00000000300010d8                nxp__gpio__set__2
 .text.nxp__gpio__clear
                0x0000000030001180       0xa0 /home/hedley/ada/NXP/LPC/LPC55S69/uart/Ada_Drivers_Library/arch/ARM/NXP/lib/lpc55s69_evk_s/ravenscar-sfp/Debug/liblpc55s69.a(nxp-gpio.o)
                0x0000000030001180                nxp__gpio__clear
 .text.nxp__gpio__toggle
                0x0000000030001220       0xa0 /home/hedley/ada/NXP/LPC/LPC55S69/uart/Ada_Drivers_Library/arch/ARM/NXP/lib/lpc55s69_evk_s/ravenscar-sfp/Debug/liblpc55s69.a(nxp-gpio.o)
                0x0000000030001220                nxp__gpio__toggle
 .text.nxp__gpio__configure_io
                0x00000000300012c0      0x394 /home/hedley/ada/NXP/LPC/LPC55S69/uart/Ada_Drivers_Library/arch/ARM/NXP/lib/lpc55s69_evk_s/ravenscar-sfp/Debug/liblpc55s69.a(nxp-gpio.o)
                0x00000000300012c0                nxp__gpio__configure_io
 .text.nxp__gpio__configure_io__2
                0x0000000030001654       0x48 /home/hedley/ada/NXP/LPC/LPC55S69/uart/Ada_Drivers_Library/arch/ARM/NXP/lib/lpc55s69_evk_s/ravenscar-sfp/Debug/liblpc55s69.a(nxp-gpio.o)
                0x0000000030001654                nxp__gpio__configure_io__2
 .text.nxp__gpio__configure_alternate_function
                0x000000003000169c       0x84 /home/hedley/ada/NXP/LPC/LPC55S69/uart/Ada_Drivers_Library/arch/ARM/NXP/lib/lpc55s69_evk_s/ravenscar-sfp/Debug/liblpc55s69.a(nxp-gpio.o)
                0x000000003000169c                nxp__gpio__configure_alternate_function
 .text.nxp__gpio__configure_alternate_function__2
                0x0000000030001720       0x4c /home/hedley/ada/NXP/LPC/LPC55S69/uart/Ada_Drivers_Library/arch/ARM/NXP/lib/lpc55s69_evk_s/ravenscar-sfp/Debug/liblpc55s69.a(nxp-gpio.o)
                0x0000000030001720                nxp__gpio__configure_alternate_function__2
 .text.nxp__gpio__enable_gpio_interrupt
                0x000000003000176c      0x1cc /home/hedley/ada/NXP/LPC/LPC55S69/uart/Ada_Drivers_Library/arch/ARM/NXP/lib/lpc55s69_evk_s/ravenscar-sfp/Debug/liblpc55s69.a(nxp-gpio.o)
                0x000000003000176c                nxp__gpio__enable_gpio_interrupt
 .text.nxp__gpio___elabb
                0x0000000030001938       0x50 /home/hedley/ada/NXP/LPC/LPC55S69/uart/Ada_Drivers_Library/arch/ARM/NXP/lib/lpc55s69_evk_s/ravenscar-sfp/Debug/liblpc55s69.a(nxp-gpio.o)
                0x0000000030001938                nxp__gpio___elabb
 .text.nxp__pint___elabb
                0x0000000030001988       0x4c /home/hedley/ada/NXP/LPC/LPC55S69/uart/Ada_Drivers_Library/arch/ARM/NXP/lib/lpc55s69_evk_s/ravenscar-sfp/Debug/liblpc55s69.a(nxp-pint.o)
                0x0000000030001988                nxp__pint___elabb
 .text.ada__real_time__Oadd
                0x00000000300019d4       0x68 /home/hedley/ada/NXP/LPC/LPC55S69/uart/Ada_Drivers_Library/embedded-runtimes/ravenscar-lpc55s69_evk_s/sfp/adalib/libgnarl.a(a-reatim.o)
                0x00000000300019d4                ada__real_time__Oadd
 .text.ada__real_time__clock
                0x0000000030001a3c       0x60 /home/hedley/ada/NXP/LPC/LPC55S69/uart/Ada_Drivers_Library/embedded-runtimes/ravenscar-lpc55s69_evk_s/sfp/adalib/libgnarl.a(a-reatim.o)
                0x0000000030001a3c                ada__real_time__clock
 .text.ada__real_time__milliseconds
                0x0000000030001a9c       0x44 /home/hedley/ada/NXP/LPC/LPC55S69/uart/Ada_Drivers_Library/embedded-runtimes/ravenscar-lpc55s69_evk_s/sfp/adalib/libgnarl.a(a-reatim.o)
                0x0000000030001a9c                ada__real_time__milliseconds
 .text.ada__real_time___elabb
                0x0000000030001ae0        0x4 /home/hedley/ada/NXP/LPC/LPC55S69/uart/Ada_Drivers_Library/embedded-runtimes/ravenscar-lpc55s69_evk_s/sfp/adalib/libgnarl.a(a-reatim.o)
                0x0000000030001ae0                ada__real_time___elabb
 .text.ada__real_time__delays__delay_until
                0x0000000030001ae4       0x30 /home/hedley/ada/NXP/LPC/LPC55S69/uart/Ada_Drivers_Library/embedded-runtimes/ravenscar-lpc55s69_evk_s/sfp/adalib/libgnarl.a(a-retide.o)
                0x0000000030001ae4                ada__real_time__delays__delay_until
 .text.system__bb__board_support__timer_interrupt_handler
                0x0000000030001b14        0x8 /home/hedley/ada/NXP/LPC/LPC55S69/uart/Ada_Drivers_Library/embedded-runtimes/ravenscar-lpc55s69_evk_s/sfp/adalib/libgnarl.a(s-bbbosu.o)
                0x0000000030001b14                system__bb__board_support__timer_interrupt_handler
 .text.system__bb__board_support__interrupt_handler
                0x0000000030001b1c        0xc /home/hedley/ada/NXP/LPC/LPC55S69/uart/Ada_Drivers_Library/embedded-runtimes/ravenscar-lpc55s69_evk_s/sfp/adalib/libgnarl.a(s-bbbosu.o)
                0x0000000030001b1c                system__bb__board_support__interrupt_handler
 .text.system__bb__board_support__enable_interrupt_request.part.0
                0x0000000030001b28       0x1c /home/hedley/ada/NXP/LPC/LPC55S69/uart/Ada_Drivers_Library/embedded-runtimes/ravenscar-lpc55s69_evk_s/sfp/adalib/libgnarl.a(s-bbbosu.o)
 .text.system__bb__board_support__time__read_clock
                0x0000000030001b44       0x40 /home/hedley/ada/NXP/LPC/LPC55S69/uart/Ada_Drivers_Library/embedded-runtimes/ravenscar-lpc55s69_evk_s/sfp/adalib/libgnarl.a(s-bbbosu.o)
                0x0000000030001b44                system__bb__board_support__time__read_clock
 .text.system__bb__board_support__time__set_alarm
                0x0000000030001b84       0x60 /home/hedley/ada/NXP/LPC/LPC55S69/uart/Ada_Drivers_Library/embedded-runtimes/ravenscar-lpc55s69_evk_s/sfp/adalib/libgnarl.a(s-bbbosu.o)
                0x0000000030001b84                system__bb__board_support__time__set_alarm
 .text.system__bb__board_support__time__install_alarm_handler
                0x0000000030001be4        0xc /home/hedley/ada/NXP/LPC/LPC55S69/uart/Ada_Drivers_Library/embedded-runtimes/ravenscar-lpc55s69_evk_s/sfp/adalib/libgnarl.a(s-bbbosu.o)
                0x0000000030001be4                system__bb__board_support__time__install_alarm_handler
 .text.system__bb__board_support__initialize_board
                0x0000000030001bf0       0x9c /home/hedley/ada/NXP/LPC/LPC55S69/uart/Ada_Drivers_Library/embedded-runtimes/ravenscar-lpc55s69_evk_s/sfp/adalib/libgnarl.a(s-bbbosu.o)
                0x0000000030001bf0                system__bb__board_support__initialize_board
 .text.system__bb__cpu_primitives__gnat_error_handler
                0x0000000030001c8c      0x1b8 /home/hedley/ada/NXP/LPC/LPC55S69/uart/Ada_Drivers_Library/embedded-runtimes/ravenscar-lpc55s69_evk_s/sfp/adalib/libgnarl.a(s-bbcppr.o)
                0x0000000030001c8c                system__bb__cpu_primitives__gnat_error_handler
 .text.__gnat_irq_trap
                0x0000000030001e44       0x64 /home/hedley/ada/NXP/LPC/LPC55S69/uart/Ada_Drivers_Library/embedded-runtimes/ravenscar-lpc55s69_evk_s/sfp/adalib/libgnarl.a(s-bbcppr.o)
                0x0000000030001e44                __gnat_irq_trap
 .text.__gnat_sv_call_trap
                0x0000000030001ea8        0x8 /home/hedley/ada/NXP/LPC/LPC55S69/uart/Ada_Drivers_Library/embedded-runtimes/ravenscar-lpc55s69_evk_s/sfp/adalib/libgnarl.a(s-bbcppr.o)
                0x0000000030001ea8                __gnat_sv_call_trap
 .text.__gnat_sys_tick_trap
                0x0000000030001eb0       0x80 /home/hedley/ada/NXP/LPC/LPC55S69/uart/Ada_Drivers_Library/embedded-runtimes/ravenscar-lpc55s69_evk_s/sfp/adalib/libgnarl.a(s-bbcppr.o)
                0x0000000030001eb0                __gnat_sys_tick_trap
 .text.system__bb__cpu_primitives__install_trap_handler
                0x0000000030001f30        0xc /home/hedley/ada/NXP/LPC/LPC55S69/uart/Ada_Drivers_Library/embedded-runtimes/ravenscar-lpc55s69_evk_s/sfp/adalib/libgnarl.a(s-bbcppr.o)
                0x0000000030001f30                system__bb__cpu_primitives__install_trap_handler
 .text.system__bb__interrupts__interrupt_wrapper
                0x0000000030001f3c       0xf4 /home/hedley/ada/NXP/LPC/LPC55S69/uart/Ada_Drivers_Library/embedded-runtimes/ravenscar-lpc55s69_evk_s/sfp/adalib/libgnarl.a(s-bbinte.o)
                0x0000000030001f3c                system__bb__interrupts__interrupt_wrapper
 .text.system__bb__interrupts__initialize_interrupts
                0x0000000030002030       0x10 /home/hedley/ada/NXP/LPC/LPC55S69/uart/Ada_Drivers_Library/embedded-runtimes/ravenscar-lpc55s69_evk_s/sfp/adalib/libgnarl.a(s-bbinte.o)
                0x0000000030002030                system__bb__interrupts__initialize_interrupts
 .text.system__bb__threads__queues__change_priority
                0x0000000030002040       0x70 /home/hedley/ada/NXP/LPC/LPC55S69/uart/Ada_Drivers_Library/embedded-runtimes/ravenscar-lpc55s69_evk_s/sfp/adalib/libgnarl.a(s-bbthqu.o)
                0x0000000030002040                system__bb__threads__queues__change_priority
 .text.system__bb__threads__queues__insert_alarm
                0x00000000300020b0       0x58 /home/hedley/ada/NXP/LPC/LPC55S69/uart/Ada_Drivers_Library/embedded-runtimes/ravenscar-lpc55s69_evk_s/sfp/adalib/libgnarl.a(s-bbthqu.o)
                0x00000000300020b0                system__bb__threads__queues__insert_alarm
 .text.system__bb__threads__queues__wakeup_expired_alarms
                0x0000000030002108       0xf4 /home/hedley/ada/NXP/LPC/LPC55S69/uart/Ada_Drivers_Library/embedded-runtimes/ravenscar-lpc55s69_evk_s/sfp/adalib/libgnarl.a(s-bbthqu.o)
                0x0000000030002108                system__bb__threads__queues__wakeup_expired_alarms
 .text.system__bb__threads__queues__yield
                0x00000000300021fc       0x50 /home/hedley/ada/NXP/LPC/LPC55S69/uart/Ada_Drivers_Library/embedded-runtimes/ravenscar-lpc55s69_evk_s/sfp/adalib/libgnarl.a(s-bbthqu.o)
                0x00000000300021fc                system__bb__threads__queues__yield
 .text.system__bb__time__initialize_timers
                0x000000003000224c       0x94 /home/hedley/ada/NXP/LPC/LPC55S69/uart/Ada_Drivers_Library/embedded-runtimes/ravenscar-lpc55s69_evk_s/sfp/adalib/libgnarl.a(s-bbtime.o)
                0x000000003000224c                system__bb__time__initialize_timers
 .text.system__bb__time__update_alarm
                0x00000000300022e0       0x98 /home/hedley/ada/NXP/LPC/LPC55S69/uart/Ada_Drivers_Library/embedded-runtimes/ravenscar-lpc55s69_evk_s/sfp/adalib/libgnarl.a(s-bbtime.o)
                0x00000000300022e0                system__bb__time__update_alarm
 .text.system__bb__time__delay_until
                0x0000000030002378       0xe0 /home/hedley/ada/NXP/LPC/LPC55S69/uart/Ada_Drivers_Library/embedded-runtimes/ravenscar-lpc55s69_evk_s/sfp/adalib/libgnarl.a(s-bbtime.o)
                0x0000000030002378                system__bb__time__delay_until
 .text.system__bb__time__alarm_handler
                0x0000000030002458       0xb8 /home/hedley/ada/NXP/LPC/LPC55S69/uart/Ada_Drivers_Library/embedded-runtimes/ravenscar-lpc55s69_evk_s/sfp/adalib/libgnarl.a(s-bbtime.o)
 .text.system__bb__cpu_primitives__context_switch_trigger__initialize_context_switch
                0x0000000030002510        0x4 /home/hedley/ada/NXP/LPC/LPC55S69/uart/Ada_Drivers_Library/embedded-runtimes/ravenscar-lpc55s69_evk_s/sfp/adalib/libgnarl.a(s-bcpcst.o)
                0x0000000030002510                system__bb__cpu_primitives__context_switch_trigger__initialize_context_switch
 .text.system__bb__cpu_primitives__context_switch_trigger__trigger_context_switch
                0x0000000030002514       0x10 /home/hedley/ada/NXP/LPC/LPC55S69/uart/Ada_Drivers_Library/embedded-runtimes/ravenscar-lpc55s69_evk_s/sfp/adalib/libgnarl.a(s-bcpcst.o)
                0x0000000030002514                system__bb__cpu_primitives__context_switch_trigger__trigger_context_switch
 .text.__gnat_pend_sv_trap
                0x0000000030002524       0x48 /home/hedley/ada/NXP/LPC/LPC55S69/uart/Ada_Drivers_Library/embedded-runtimes/ravenscar-lpc55s69_evk_s/sfp/adalib/libgnarl.a(s-bcpcst.o)
                0x0000000030002524                __gnat_pend_sv_trap
 .text.system__tasking__initialize_atcb
                0x000000003000256c       0x30 /home/hedley/ada/NXP/LPC/LPC55S69/uart/Ada_Drivers_Library/embedded-runtimes/ravenscar-lpc55s69_evk_s/sfp/adalib/libgnarl.a(s-taskin.o)
                0x000000003000256c                system__tasking__initialize_atcb
 .text.system__tasking__initialize
                0x000000003000259c      0x174 /home/hedley/ada/NXP/LPC/LPC55S69/uart/Ada_Drivers_Library/embedded-runtimes/ravenscar-lpc55s69_evk_s/sfp/adalib/libgnarl.a(s-taskin.o)
                0x000000003000259c                system__tasking__initialize
 .text.system__bb__protection__leave_kernel
                0x0000000030002710       0x58 /home/hedley/ada/NXP/LPC/LPC55S69/uart/Ada_Drivers_Library/embedded-runtimes/ravenscar-lpc55s69_evk_s/sfp/adalib/libgnarl.a(s-bbprot.o)
                0x0000000030002710                system__bb__protection__leave_kernel
 .text.system__bb__threads__initialize
                0x0000000030002768      0x14c /home/hedley/ada/NXP/LPC/LPC55S69/uart/Ada_Drivers_Library/embedded-runtimes/ravenscar-lpc55s69_evk_s/sfp/adalib/libgnarl.a(s-bbthre.o)
                0x0000000030002768                system__bb__threads__initialize
 .text.system__bb__threads__thread_create
                0x00000000300028b4      0x100 /home/hedley/ada/NXP/LPC/LPC55S69/uart/Ada_Drivers_Library/embedded-runtimes/ravenscar-lpc55s69_evk_s/sfp/adalib/libgnarl.a(s-bbthre.o)
                0x00000000300028b4                system__bb__threads__thread_create
 .text.system__bb__timing_events__execute_expired_timing_events
                0x00000000300029b4       0x78 /home/hedley/ada/NXP/LPC/LPC55S69/uart/Ada_Drivers_Library/embedded-runtimes/ravenscar-lpc55s69_evk_s/sfp/adalib/libgnarl.a(s-bbtiev.o)
                0x00000000300029b4                system__bb__timing_events__execute_expired_timing_events
 .text.system__task_primitives__operations__enter_task
                0x0000000030002a2c       0x3c /home/hedley/ada/NXP/LPC/LPC55S69/uart/Ada_Drivers_Library/embedded-runtimes/ravenscar-lpc55s69_evk_s/sfp/adalib/libgnarl.a(s-taprop.o)
                0x0000000030002a2c                system__task_primitives__operations__enter_task
 .text.system__task_primitives__operations__idle
                0x0000000030002a68       0x14 /home/hedley/ada/NXP/LPC/LPC55S69/uart/Ada_Drivers_Library/embedded-runtimes/ravenscar-lpc55s69_evk_s/sfp/adalib/libgnarl.a(s-taprop.o)
                0x0000000030002a68                system__task_primitives__operations(int, double, long,...)
 .text.system__task_primitives__operations__initialize_idle
                0x0000000030002a7c       0x60 /home/hedley/ada/NXP/LPC/LPC55S69/uart/Ada_Drivers_Library/embedded-runtimes/ravenscar-lpc55s69_evk_s/sfp/adalib/libgnarl.a(s-taprop.o)
                0x0000000030002a7c                system__task_primitives__operations__initialize_idle
 .text.__gnat_last_chance_handler
                0x0000000030002adc       0x84 /home/hedley/ada/NXP/LPC/LPC55S69/uart/Ada_Drivers_Library/embedded-runtimes/ravenscar-lpc55s69_evk_s/sfp/adalib/libgnat.a(a-elchha.o)
                0x0000000030002adc                __gnat_last_chance_handler
 .text.gnat__io__put__2
                0x0000000030002b60       0x44 /home/hedley/ada/NXP/LPC/LPC55S69/uart/Ada_Drivers_Library/embedded-runtimes/ravenscar-lpc55s69_evk_s/sfp/adalib/libgnat.a(g-io.o)
                0x0000000030002b60                gnat__io__put__2
 .text.gnat__io__new_line
                0x0000000030002ba4       0x14 /home/hedley/ada/NXP/LPC/LPC55S69/uart/Ada_Drivers_Library/embedded-runtimes/ravenscar-lpc55s69_evk_s/sfp/adalib/libgnat.a(g-io.o)
                0x0000000030002ba4                gnat__io__new_line
 .text.gnat__io__put__3
                0x0000000030002bb8       0x20 /home/hedley/ada/NXP/LPC/LPC55S69/uart/Ada_Drivers_Library/embedded-runtimes/ravenscar-lpc55s69_evk_s/sfp/adalib/libgnat.a(g-io.o)
                0x0000000030002bb8                gnat__io__put__3
 .text.gnat__io__put
                0x0000000030002bd8       0x70 /home/hedley/ada/NXP/LPC/LPC55S69/uart/Ada_Drivers_Library/embedded-runtimes/ravenscar-lpc55s69_evk_s/sfp/adalib/libgnat.a(g-io.o)
                0x0000000030002bd8                gnat__io__put
 .text.gnat__io__put_line
                0x0000000030002c48       0x10 /home/hedley/ada/NXP/LPC/LPC55S69/uart/Ada_Drivers_Library/embedded-runtimes/ravenscar-lpc55s69_evk_s/sfp/adalib/libgnat.a(g-io.o)
                0x0000000030002c48                gnat__io__put_line
 *fill*         0x0000000030002c58      0x1a8 
 .text          0x0000000030002e00      0x1a0 /home/hedley/ada/NXP/LPC/LPC55S69/uart/Ada_Drivers_Library/embedded-runtimes/ravenscar-lpc55s69_evk_s/sfp/adalib/libgnat.a(handler.o)
                0x0000000030002e00                __vectors
 .text.system__assertions__raise_assert_failure
                0x0000000030002fa0       0x68 /home/hedley/ada/NXP/LPC/LPC55S69/uart/Ada_Drivers_Library/embedded-runtimes/ravenscar-lpc55s69_evk_s/sfp/adalib/libgnat.a(s-assert.o)
                0x0000000030002fa0                system__assertions__raise_assert_failure
 .text._exit    0x0000000030003008       0x10 /home/hedley/ada/NXP/LPC/LPC55S69/uart/Ada_Drivers_Library/embedded-runtimes/ravenscar-lpc55s69_evk_s/sfp/adalib/libgnat.a(s-macres.o)
                0x0000000030003008                _exit
 .text.system__machine_reset__stop
                0x0000000030003018       0x10 /home/hedley/ada/NXP/LPC/LPC55S69/uart/Ada_Drivers_Library/embedded-runtimes/ravenscar-lpc55s69_evk_s/sfp/adalib/libgnat.a(s-macres.o)
                0x0000000030003018                system__machine_reset__stop
 .text.memcpy   0x0000000030003028       0x48 /home/hedley/ada/NXP/LPC/LPC55S69/uart/Ada_Drivers_Library/embedded-runtimes/ravenscar-lpc55s69_evk_s/sfp/adalib/libgnat.a(s-memcop.o)
                0x0000000030003028                memcpy
 .text.memset   0x0000000030003070       0x50 /home/hedley/ada/NXP/LPC/LPC55S69/uart/Ada_Drivers_Library/embedded-runtimes/ravenscar-lpc55s69_evk_s/sfp/adalib/libgnat.a(s-memset.o)
                0x0000000030003070                memset
 .text.system__parameters__adjust_storage_size
                0x00000000300030c0        0xc /home/hedley/ada/NXP/LPC/LPC55S69/uart/Ada_Drivers_Library/embedded-runtimes/ravenscar-lpc55s69_evk_s/sfp/adalib/libgnat.a(s-parame.o)
                0x00000000300030c0                system__parameters__adjust_storage_size
 .text.system__secondary_stack__ss_stackIP
                0x00000000300030cc        0x4 /home/hedley/ada/NXP/LPC/LPC55S69/uart/Ada_Drivers_Library/embedded-runtimes/ravenscar-lpc55s69_evk_s/sfp/adalib/libgnat.a(s-secsta.o)
                0x00000000300030cc                system__secondary_stack__ss_stackIP
 .text.system__secondary_stack__ss_init
                0x00000000300030d0       0x6c /home/hedley/ada/NXP/LPC/LPC55S69/uart/Ada_Drivers_Library/embedded-runtimes/ravenscar-lpc55s69_evk_s/sfp/adalib/libgnat.a(s-secsta.o)
                0x00000000300030d0                system__secondary_stack__ss_init
 .text.system__text_io__initialize
                0x000000003000313c        0x4 /home/hedley/ada/NXP/LPC/LPC55S69/uart/Ada_Drivers_Library/embedded-runtimes/ravenscar-lpc55s69_evk_s/sfp/adalib/libgnat.a(s-textio.o)
                0x000000003000313c                system__text_io__initialize
 .text.system__text_io__is_tx_ready
                0x0000000030003140        0x4 /home/hedley/ada/NXP/LPC/LPC55S69/uart/Ada_Drivers_Library/embedded-runtimes/ravenscar-lpc55s69_evk_s/sfp/adalib/libgnat.a(s-textio.o)
                0x0000000030003140                system__text_io__is_tx_ready
 .text.system__text_io__put
                0x0000000030003144        0x4 /home/hedley/ada/NXP/LPC/LPC55S69/uart/Ada_Drivers_Library/embedded-runtimes/ravenscar-lpc55s69_evk_s/sfp/adalib/libgnat.a(s-textio.o)
                0x0000000030003144                system__text_io__put
 .text.system__text_io__use_cr_lf_for_new_line
                0x0000000030003148        0x4 /home/hedley/ada/NXP/LPC/LPC55S69/uart/Ada_Drivers_Library/embedded-runtimes/ravenscar-lpc55s69_evk_s/sfp/adalib/libgnat.a(s-textio.o)
                0x0000000030003148                system__text_io__use_cr_lf_for_new_line
 .text          0x000000003000314c       0x34 /home/hedley/ada/NXP/LPC/LPC55S69/uart/Ada_Drivers_Library/embedded-runtimes/ravenscar-lpc55s69_evk_s/sfp/adalib/libgnat.a(start-common.o)
                0x000000003000314c                _nxp_start_common
                0x0000000030003166                is_secure
                0x000000003000317c                secure_code
 .text          0x0000000030003180       0x34 /home/hedley/ada/NXP/LPC/LPC55S69/uart/Ada_Drivers_Library/embedded-runtimes/ravenscar-lpc55s69_evk_s/sfp/adalib/libgnat.a(start-ram.o)
                0x0000000030003180                _start_ram
 .text._ada_setup_pll
                0x00000000300031b4        0x4 /home/hedley/ada/NXP/LPC/LPC55S69/uart/Ada_Drivers_Library/embedded-runtimes/ravenscar-lpc55s69_evk_s/sfp/adalib/libgnat.a(setup_pll.o)
                0x00000000300031b4                _ada_setup_pll
 .text          0x00000000300031b8       0x7c ../../../glue/veneer_ns.o
                0x00000000300031b8                __acle_se_s_from_ns_veneer
 .text          0x0000000030003234       0xa0 /opt/GNAT/2019-arm-elf/bin/../lib/gcc/arm-eabi/7.4.1/thumb/v7e-m/fpv4-sp/hard/libgcc.a(_aeabi_ldivmod.o)
                0x0000000030003234                __aeabi_ldivmod
 .text          0x00000000300032d4      0x2cc /opt/GNAT/2019-arm-elf/bin/../lib/gcc/arm-eabi/7.4.1/thumb/v7e-m/fpv4-sp/hard/libgcc.a(_udivmoddi4.o)
                0x00000000300032d4                __udivmoddi4
 .text          0x00000000300035a0        0x4 /opt/GNAT/2019-arm-elf/bin/../lib/gcc/arm-eabi/7.4.1/thumb/v7e-m/fpv4-sp/hard/libgcc.a(_dvmd_tls.o)
                0x00000000300035a0                __aeabi_ldiv0
                0x00000000300035a0                __aeabi_idiv0
 *(.gnu.warning)

.glue_7         0x00000000300035a4        0x0
 .glue_7        0x00000000300035a4        0x0 linker stubs

.glue_7t        0x00000000300035a4        0x0
 .glue_7t       0x00000000300035a4        0x0 linker stubs

.vfp11_veneer   0x00000000300035a4        0x0
 .vfp11_veneer  0x00000000300035a4        0x0 linker stubs

.v4_bx          0x00000000300035a4        0x0
 .v4_bx         0x00000000300035a4        0x0 linker stubs

.iplt           0x00000000300035a4        0x0
 .iplt          0x00000000300035a4        0x0 test_s.o

.ARM.extab
 *(.ARM.extab* .gnu.linkonce.armextab.*)
                [!provide]                        PROVIDE (__exidx_start = .)

.ARM.exidx      0x00000000300035a4        0x8
 *(.ARM.exidx* .gnu.linkonce.armexidx.*)
 .ARM.exidx     0x00000000300035a4        0x8 /opt/GNAT/2019-arm-elf/bin/../lib/gcc/arm-eabi/7.4.1/thumb/v7e-m/fpv4-sp/hard/libgcc.a(_udivmoddi4.o)
                [!provide]                        PROVIDE (__exidx_end = .)

.gnu.sgstubs    0x000000003001f000       0x20
                0x000000003001f000                . = ALIGN (0x20)
                0x000000003001f000                _start_sg = .
 *(.gnu.sgstubs*)
                0x000000003001f000                . = ALIGN (0x20)
                0x000000003001f000                _end_sg = .
 .gnu.sgstubs.__stub
                0x000000003001f000        0x8 linker stubs
                0x000000003001f000                s_from_ns_veneer

.rodata         0x00000000300035ac      0x42c
 *(.lit)
 *(.rodata .rodata.* .gnu.linkonce.r*)
 .rodata        0x00000000300035ac        0x8 test_s.o
 .rodata        0x00000000300035b4        0x8 b__test_s.o
 .rodata.__gnat_ada_main_program_name
                0x00000000300035bc        0xc b__test_s.o
                0x00000000300035bc                __gnat_ada_main_program_name
 .rodata        0x00000000300035c8        0x8 /home/hedley/ada/NXP/LPC/LPC55S69/uart/Ada_Drivers_Library/boards/lib/lpc55s69_evk_s/ravenscar-sfp/Debug/liblpc55s69_evk_s.a(nxp-board.o)
 .rodata        0x00000000300035d0       0x1f /home/hedley/ada/NXP/LPC/LPC55S69/uart/Ada_Drivers_Library/arch/ARM/NXP/lib/lpc55s69_evk_s/ravenscar-sfp/Debug/liblpc55s69.a(nxp-device.o)
 *fill*         0x00000000300035ef        0x1 
 .rodata        0x00000000300035f0       0xb3 /home/hedley/ada/NXP/LPC/LPC55S69/uart/Ada_Drivers_Library/arch/ARM/NXP/lib/lpc55s69_evk_s/ravenscar-sfp/Debug/liblpc55s69.a(nxp-gpio.o)
 *fill*         0x00000000300036a3        0x1 
 .rodata.nxp__gpio__gpio_pointE88s
                0x00000000300036a4       0x14 /home/hedley/ada/NXP/LPC/LPC55S69/uart/Ada_Drivers_Library/arch/ARM/NXP/lib/lpc55s69_evk_s/ravenscar-sfp/Debug/liblpc55s69.a(nxp-gpio.o)
                0x00000000300036a4                nxp__gpio__gpio_pointE88s
 .rodata.nxp__gpio__gpio_pointB92s
                0x00000000300036b8       0x20 /home/hedley/ada/NXP/LPC/LPC55S69/uart/Ada_Drivers_Library/arch/ARM/NXP/lib/lpc55s69_evk_s/ravenscar-sfp/Debug/liblpc55s69.a(nxp-gpio.o)
                0x00000000300036b8                nxp__gpio__gpio_pointB92s
 .rodata.nxp__gpio__gpio_pointR90s___UNC
                0x00000000300036d8       0x24 /home/hedley/ada/NXP/LPC/LPC55S69/uart/Ada_Drivers_Library/arch/ARM/NXP/lib/lpc55s69_evk_s/ravenscar-sfp/Debug/liblpc55s69.a(nxp-gpio.o)
                0x00000000300036d8                nxp__gpio__gpio_pointR90s___UNC
 .rodata.nxp__gpio__gpio_pointT
                0x00000000300036fc       0x3c /home/hedley/ada/NXP/LPC/LPC55S69/uart/Ada_Drivers_Library/arch/ARM/NXP/lib/lpc55s69_evk_s/ravenscar-sfp/Debug/liblpc55s69.a(nxp-gpio.o)
                0x00000000300036fc                nxp__gpio__gpio_pointT
 .rodata        0x0000000030003738        0xd /home/hedley/ada/NXP/LPC/LPC55S69/uart/Ada_Drivers_Library/arch/ARM/NXP/lib/lpc55s69_evk_s/ravenscar-sfp/Debug/liblpc55s69.a(nxp-pint.o)
 *fill*         0x0000000030003745        0x3 
 .rodata.hal__gpio__gpio_pointE15s
                0x0000000030003748       0x14 /home/hedley/ada/Ada_Drivers_Library/hal/lib/lpc55s69_evk_s/ravenscar-sfp/Debug/libHAL.a(hal-gpio.o)
                0x0000000030003748                hal__gpio__gpio_pointE15s
 .rodata.hal__gpio__gpio_pointB19s
                0x000000003000375c       0x1c /home/hedley/ada/Ada_Drivers_Library/hal/lib/lpc55s69_evk_s/ravenscar-sfp/Debug/libHAL.a(hal-gpio.o)
                0x000000003000375c                hal__gpio__gpio_pointB19s
 .rodata.hal__gpio__gpio_pointT
                0x0000000030003778        0x8 /home/hedley/ada/Ada_Drivers_Library/hal/lib/lpc55s69_evk_s/ravenscar-sfp/Debug/libHAL.a(hal-gpio.o)
                0x0000000030003778                hal__gpio__gpio_pointT
 .rodata        0x0000000030003780        0xd /home/hedley/ada/NXP/LPC/LPC55S69/uart/Ada_Drivers_Library/embedded-runtimes/ravenscar-lpc55s69_evk_s/sfp/adalib/libgnarl.a(a-reatim.o)
 *fill*         0x000000003000378d        0x3 
 .rodata        0x0000000030003790        0xd /home/hedley/ada/NXP/LPC/LPC55S69/uart/Ada_Drivers_Library/embedded-runtimes/ravenscar-lpc55s69_evk_s/sfp/adalib/libgnarl.a(a-retide.o)
 *fill*         0x000000003000379d        0x3 
 .rodata.system__bb__cpu_primitives__gnat_error_handler.str1.4
                0x00000000300037a0      0x16c /home/hedley/ada/NXP/LPC/LPC55S69/uart/Ada_Drivers_Library/embedded-runtimes/ravenscar-lpc55s69_evk_s/sfp/adalib/libgnarl.a(s-bbcppr.o)
 .rodata.system__tasking__initialize.str1.4
                0x000000003000390c       0x3a /home/hedley/ada/NXP/LPC/LPC55S69/uart/Ada_Drivers_Library/embedded-runtimes/ravenscar-lpc55s69_evk_s/sfp/adalib/libgnarl.a(s-taskin.o)
 *fill*         0x0000000030003946        0x2 
 .rodata        0x0000000030003948       0x18 /home/hedley/ada/NXP/LPC/LPC55S69/uart/Ada_Drivers_Library/embedded-runtimes/ravenscar-lpc55s69_evk_s/sfp/adalib/libgnat.a(a-elchha.o)
 .rodata.__gnat_last_chance_handler.str1.4
                0x0000000030003960       0x5c /home/hedley/ada/NXP/LPC/LPC55S69/uart/Ada_Drivers_Library/embedded-runtimes/ravenscar-lpc55s69_evk_s/sfp/adalib/libgnat.a(a-elchha.o)
                                         0x5a (size before relaxing)
 .rodata        0x00000000300039bc        0xd /home/hedley/ada/NXP/LPC/LPC55S69/uart/Ada_Drivers_Library/embedded-runtimes/ravenscar-lpc55s69_evk_s/sfp/adalib/libgnat.a(s-secsta.o)
 *fill*         0x00000000300039c9        0x3 
 .rodata.ada__exceptions__empty_c_string___UNC
                0x00000000300039cc        0xc /home/hedley/ada/NXP/LPC/LPC55S69/uart/Ada_Drivers_Library/embedded-runtimes/ravenscar-lpc55s69_evk_s/sfp/adalib/libgnat.a(a-except.o)
                0x00000000300039cc                ada__exceptions__empty_c_string___UNC
                0x00000000300039d8                . = ALIGN (0x4)

.rel.dyn        0x00000000300039d8        0x0
 .rel.iplt      0x00000000300039d8        0x0 test_s.o

.data           0x00000000300039d8       0x68
                0x00000000300039d8                __data_start = .
 *(.data .data.* .gnu.linkonce.d*)
 .data.nxp__board_E
                0x00000000300039d8        0x2 /home/hedley/ada/NXP/LPC/LPC55S69/uart/Ada_Drivers_Library/boards/lib/lpc55s69_evk_s/ravenscar-sfp/Debug/liblpc55s69_evk_s.a(nxp-board.o)
                0x00000000300039d8                nxp__board_E
 .data.nxp__device_E
                0x00000000300039da        0x2 /home/hedley/ada/NXP/LPC/LPC55S69/uart/Ada_Drivers_Library/arch/ARM/NXP/lib/lpc55s69_evk_s/ravenscar-sfp/Debug/liblpc55s69.a(nxp-device.o)
                0x00000000300039da                nxp__device_E
 .data.nxp__gpio_E
                0x00000000300039dc        0x2 /home/hedley/ada/NXP/LPC/LPC55S69/uart/Ada_Drivers_Library/arch/ARM/NXP/lib/lpc55s69_evk_s/ravenscar-sfp/Debug/liblpc55s69.a(nxp-gpio.o)
                0x00000000300039dc                nxp__gpio_E
 .data.nxp__pint_E
                0x00000000300039de        0x2 /home/hedley/ada/NXP/LPC/LPC55S69/uart/Ada_Drivers_Library/arch/ARM/NXP/lib/lpc55s69_evk_s/ravenscar-sfp/Debug/liblpc55s69.a(nxp-pint.o)
                0x00000000300039de                nxp__pint_E
 .data.ada__real_time_E
                0x00000000300039e0        0x2 /home/hedley/ada/NXP/LPC/LPC55S69/uart/Ada_Drivers_Library/embedded-runtimes/ravenscar-lpc55s69_evk_s/sfp/adalib/libgnarl.a(a-reatim.o)
                0x00000000300039e0                ada__real_time_E
 .data.system__bb__cpu_primitives__defer_context_switch
                0x00000000300039e2        0x1 /home/hedley/ada/NXP/LPC/LPC55S69/uart/Ada_Drivers_Library/embedded-runtimes/ravenscar-lpc55s69_evk_s/sfp/adalib/libgnarl.a(s-bbcppr.o)
                0x00000000300039e2                system__bb__cpu_primitives__defer_context_switch
 *fill*         0x00000000300039e3        0x1 
 .data.system__bb__interrupts__interrupt_being_handled
                0x00000000300039e4        0x4 /home/hedley/ada/NXP/LPC/LPC55S69/uart/Ada_Drivers_Library/embedded-runtimes/ravenscar-lpc55s69_evk_s/sfp/adalib/libgnarl.a(s-bbinte.o)
                0x00000000300039e4                system__bb__interrupts__interrupt_being_handled
 .data.__gnat_running_thread_table
                0x00000000300039e8        0x4 /home/hedley/ada/NXP/LPC/LPC55S69/uart/Ada_Drivers_Library/embedded-runtimes/ravenscar-lpc55s69_evk_s/sfp/adalib/libgnarl.a(s-bbthqu.o)
                0x00000000300039e8                __gnat_running_thread_table
 .data.first_thread_table
                0x00000000300039ec        0x4 /home/hedley/ada/NXP/LPC/LPC55S69/uart/Ada_Drivers_Library/embedded-runtimes/ravenscar-lpc55s69_evk_s/sfp/adalib/libgnarl.a(s-bbthqu.o)
                0x00000000300039ec                first_thread_table
 .data.system__bb__threads__queues__alarms_table
                0x00000000300039f0        0x4 /home/hedley/ada/NXP/LPC/LPC55S69/uart/Ada_Drivers_Library/embedded-runtimes/ravenscar-lpc55s69_evk_s/sfp/adalib/libgnarl.a(s-bbthqu.o)
                0x00000000300039f0                system__bb__threads__queues__alarms_table
 .data.system__bb__threads__queues__global_list
                0x00000000300039f4        0x4 /home/hedley/ada/NXP/LPC/LPC55S69/uart/Ada_Drivers_Library/embedded-runtimes/ravenscar-lpc55s69_evk_s/sfp/adalib/libgnarl.a(s-bbthqu.o)
                0x00000000300039f4                system__bb__threads__queues__global_list
 .data.system__bb__time__max_sleep
                0x00000000300039f8        0x8 /home/hedley/ada/NXP/LPC/LPC55S69/uart/Ada_Drivers_Library/embedded-runtimes/ravenscar-lpc55s69_evk_s/sfp/adalib/libgnarl.a(s-bbtime.o)
                0x00000000300039f8                system__bb__time__max_sleep
 .data.system__bb__time__pending_alarm
                0x0000000030003a00        0x8 /home/hedley/ada/NXP/LPC/LPC55S69/uart/Ada_Drivers_Library/embedded-runtimes/ravenscar-lpc55s69_evk_s/sfp/adalib/libgnarl.a(s-bbtime.o)
                0x0000000030003a00                system__bb__time__pending_alarm
 .data.system__bb__time__scheduling_event_hook
                0x0000000030003a08        0x4 /home/hedley/ada/NXP/LPC/LPC55S69/uart/Ada_Drivers_Library/embedded-runtimes/ravenscar-lpc55s69_evk_s/sfp/adalib/libgnarl.a(s-bbtime.o)
                0x0000000030003a08                system__bb__time__scheduling_event_hook
 .data.system__bb__time__software_clock
                0x0000000030003a0c        0x8 /home/hedley/ada/NXP/LPC/LPC55S69/uart/Ada_Drivers_Library/embedded-runtimes/ravenscar-lpc55s69_evk_s/sfp/adalib/libgnarl.a(s-bbtime.o)
                0x0000000030003a0c                system__bb__time__software_clock
 .data.__gl_main_cpu
                0x0000000030003a14        0x4 /home/hedley/ada/NXP/LPC/LPC55S69/uart/Ada_Drivers_Library/embedded-runtimes/ravenscar-lpc55s69_evk_s/sfp/adalib/libgnarl.a(s-taskin.o)
                0x0000000030003a14                __gl_main_cpu
 .data.__gl_main_priority
                0x0000000030003a18        0x4 /home/hedley/ada/NXP/LPC/LPC55S69/uart/Ada_Drivers_Library/embedded-runtimes/ravenscar-lpc55s69_evk_s/sfp/adalib/libgnarl.a(s-taskin.o)
                0x0000000030003a18                __gl_main_priority
 .data.system__tasking__fall_back_handler
                0x0000000030003a1c        0x8 /home/hedley/ada/NXP/LPC/LPC55S69/uart/Ada_Drivers_Library/embedded-runtimes/ravenscar-lpc55s69_evk_s/sfp/adalib/libgnarl.a(s-taskin.o)
                0x0000000030003a1c                system__tasking__fall_back_handler
 .data.system__tasking__initialized
                0x0000000030003a24        0x1 /home/hedley/ada/NXP/LPC/LPC55S69/uart/Ada_Drivers_Library/embedded-runtimes/ravenscar-lpc55s69_evk_s/sfp/adalib/libgnarl.a(s-taskin.o)
 .data.system__bb__threads__initialized
                0x0000000030003a25        0x1 /home/hedley/ada/NXP/LPC/LPC55S69/uart/Ada_Drivers_Library/embedded-runtimes/ravenscar-lpc55s69_evk_s/sfp/adalib/libgnarl.a(s-bbthre.o)
                0x0000000030003a25                system__bb__threads__initialized
 *fill*         0x0000000030003a26        0x2 
 .data.system__bb__timing_events__events_table
                0x0000000030003a28        0x4 /home/hedley/ada/NXP/LPC/LPC55S69/uart/Ada_Drivers_Library/embedded-runtimes/ravenscar-lpc55s69_evk_s/sfp/adalib/libgnarl.a(s-bbtiev.o)
                0x0000000030003a28                system__bb__timing_events__events_table
 .data.system__task_primitives__operations__environment_task
                0x0000000030003a2c        0x4 /home/hedley/ada/NXP/LPC/LPC55S69/uart/Ada_Drivers_Library/embedded-runtimes/ravenscar-lpc55s69_evk_s/sfp/adalib/libgnarl.a(s-taprop.o)
                0x0000000030003a2c                system__task_primitives__operations__environment_task
 .data.system__tasking__debug__first_task
                0x0000000030003a30        0x4 /home/hedley/ada/NXP/LPC/LPC55S69/uart/Ada_Drivers_Library/embedded-runtimes/ravenscar-lpc55s69_evk_s/sfp/adalib/libgnarl.a(s-tasdeb.o)
                0x0000000030003a30                system__tasking__debug__first_task
 .data.system__tasking__debug__last_task
                0x0000000030003a34        0x4 /home/hedley/ada/NXP/LPC/LPC55S69/uart/Ada_Drivers_Library/embedded-runtimes/ravenscar-lpc55s69_evk_s/sfp/adalib/libgnarl.a(s-tasdeb.o)
                0x0000000030003a34                system__tasking__debug__last_task
 .data.system__secondary_stack__num_of_assigned_stacks
                0x0000000030003a38        0x4 /home/hedley/ada/NXP/LPC/LPC55S69/uart/Ada_Drivers_Library/embedded-runtimes/ravenscar-lpc55s69_evk_s/sfp/adalib/libgnat.a(s-secsta.o)
                0x0000000030003a38                system__secondary_stack__num_of_assigned_stacks
 .data.system__text_io__initialized
                0x0000000030003a3c        0x1 /home/hedley/ada/NXP/LPC/LPC55S69/uart/Ada_Drivers_Library/embedded-runtimes/ravenscar-lpc55s69_evk_s/sfp/adalib/libgnat.a(s-textio.o)
                0x0000000030003a3c                system__text_io__initialized
                0x0000000030003a40                . = ALIGN (0x4)
 *fill*         0x0000000030003a3d        0x3 
                0x0000000030003a40                __data_end = .

.igot.plt       0x0000000030003a40        0x0
 .igot.plt      0x0000000030003a40        0x0 test_s.o

.bss            0x0000000030003a40     0x99f8
                0x0000000030003a40                . = ALIGN (0x8)
                0x0000000030003a40                __bss_start = .
 *(.bss .bss.*)
 .bss.ada_main__sec_default_sized_stacks
                0x0000000030003a40      0x210 b__test_s.o
 .bss.nxp__board__S1s
                0x0000000030003c50       0x30 /home/hedley/ada/NXP/LPC/LPC55S69/uart/Ada_Drivers_Library/boards/lib/lpc55s69_evk_s/ravenscar-sfp/Debug/liblpc55s69_evk_s.a(nxp-board.o)
                0x0000000030003c50                s::nxp__board(void) static
 .bss.nxp__device__R4s
                0x0000000030003c80        0x4 /home/hedley/ada/NXP/LPC/LPC55S69/uart/Ada_Drivers_Library/arch/ARM/NXP/lib/lpc55s69_evk_s/ravenscar-sfp/Debug/liblpc55s69.a(nxp-device.o)
                0x0000000030003c80                nxp__device__R4s
 .bss.nxp__device__gpio
                0x0000000030003c84        0x4 /home/hedley/ada/NXP/LPC/LPC55S69/uart/Ada_Drivers_Library/arch/ARM/NXP/lib/lpc55s69_evk_s/ravenscar-sfp/Debug/liblpc55s69.a(nxp-device.o)
                0x0000000030003c84                nxp__device__gpio
 .bss.nxp__device__p0_0
                0x0000000030003c88       0x10 /home/hedley/ada/NXP/LPC/LPC55S69/uart/Ada_Drivers_Library/arch/ARM/NXP/lib/lpc55s69_evk_s/ravenscar-sfp/Debug/liblpc55s69.a(nxp-device.o)
                0x0000000030003c88                nxp__device__p0_0
 .bss.nxp__device__p0_1
                0x0000000030003c98       0x10 /home/hedley/ada/NXP/LPC/LPC55S69/uart/Ada_Drivers_Library/arch/ARM/NXP/lib/lpc55s69_evk_s/ravenscar-sfp/Debug/liblpc55s69.a(nxp-device.o)
                0x0000000030003c98                nxp__device__p0_1
 .bss.nxp__device__p0_2
                0x0000000030003ca8       0x10 /home/hedley/ada/NXP/LPC/LPC55S69/uart/Ada_Drivers_Library/arch/ARM/NXP/lib/lpc55s69_evk_s/ravenscar-sfp/Debug/liblpc55s69.a(nxp-device.o)
                0x0000000030003ca8                nxp__device__p0_2
 .bss.nxp__device__p0_3
                0x0000000030003cb8       0x10 /home/hedley/ada/NXP/LPC/LPC55S69/uart/Ada_Drivers_Library/arch/ARM/NXP/lib/lpc55s69_evk_s/ravenscar-sfp/Debug/liblpc55s69.a(nxp-device.o)
                0x0000000030003cb8                nxp__device__p0_3
 .bss.nxp__device__p0_4
                0x0000000030003cc8       0x10 /home/hedley/ada/NXP/LPC/LPC55S69/uart/Ada_Drivers_Library/arch/ARM/NXP/lib/lpc55s69_evk_s/ravenscar-sfp/Debug/liblpc55s69.a(nxp-device.o)
                0x0000000030003cc8                nxp__device__p0_4
 .bss.nxp__device__p0_5
                0x0000000030003cd8       0x10 /home/hedley/ada/NXP/LPC/LPC55S69/uart/Ada_Drivers_Library/arch/ARM/NXP/lib/lpc55s69_evk_s/ravenscar-sfp/Debug/liblpc55s69.a(nxp-device.o)
                0x0000000030003cd8                nxp__device__p0_5
 .bss.nxp__device__p0_6
                0x0000000030003ce8       0x10 /home/hedley/ada/NXP/LPC/LPC55S69/uart/Ada_Drivers_Library/arch/ARM/NXP/lib/lpc55s69_evk_s/ravenscar-sfp/Debug/liblpc55s69.a(nxp-device.o)
                0x0000000030003ce8                nxp__device__p0_6
 .bss.nxp__device__p0_7
                0x0000000030003cf8       0x10 /home/hedley/ada/NXP/LPC/LPC55S69/uart/Ada_Drivers_Library/arch/ARM/NXP/lib/lpc55s69_evk_s/ravenscar-sfp/Debug/liblpc55s69.a(nxp-device.o)
                0x0000000030003cf8                nxp__device__p0_7
 .bss.nxp__device__p0_8
                0x0000000030003d08       0x10 /home/hedley/ada/NXP/LPC/LPC55S69/uart/Ada_Drivers_Library/arch/ARM/NXP/lib/lpc55s69_evk_s/ravenscar-sfp/Debug/liblpc55s69.a(nxp-device.o)
                0x0000000030003d08                nxp__device__p0_8
 .bss.nxp__device__p0_9
                0x0000000030003d18       0x10 /home/hedley/ada/NXP/LPC/LPC55S69/uart/Ada_Drivers_Library/arch/ARM/NXP/lib/lpc55s69_evk_s/ravenscar-sfp/Debug/liblpc55s69.a(nxp-device.o)
                0x0000000030003d18                nxp__device__p0_9
 .bss.nxp__device__p0_10
                0x0000000030003d28       0x10 /home/hedley/ada/NXP/LPC/LPC55S69/uart/Ada_Drivers_Library/arch/ARM/NXP/lib/lpc55s69_evk_s/ravenscar-sfp/Debug/liblpc55s69.a(nxp-device.o)
                0x0000000030003d28                nxp__device__p0_10
 .bss.nxp__device__p0_11
                0x0000000030003d38       0x10 /home/hedley/ada/NXP/LPC/LPC55S69/uart/Ada_Drivers_Library/arch/ARM/NXP/lib/lpc55s69_evk_s/ravenscar-sfp/Debug/liblpc55s69.a(nxp-device.o)
                0x0000000030003d38                nxp__device__p0_11
 .bss.nxp__device__p0_12
                0x0000000030003d48       0x10 /home/hedley/ada/NXP/LPC/LPC55S69/uart/Ada_Drivers_Library/arch/ARM/NXP/lib/lpc55s69_evk_s/ravenscar-sfp/Debug/liblpc55s69.a(nxp-device.o)
                0x0000000030003d48                nxp__device__p0_12
 .bss.nxp__device__p0_13
                0x0000000030003d58       0x10 /home/hedley/ada/NXP/LPC/LPC55S69/uart/Ada_Drivers_Library/arch/ARM/NXP/lib/lpc55s69_evk_s/ravenscar-sfp/Debug/liblpc55s69.a(nxp-device.o)
                0x0000000030003d58                nxp__device__p0_13
 .bss.nxp__device__p0_14
                0x0000000030003d68       0x10 /home/hedley/ada/NXP/LPC/LPC55S69/uart/Ada_Drivers_Library/arch/ARM/NXP/lib/lpc55s69_evk_s/ravenscar-sfp/Debug/liblpc55s69.a(nxp-device.o)
                0x0000000030003d68                nxp__device__p0_14
 .bss.nxp__device__p0_15
                0x0000000030003d78       0x10 /home/hedley/ada/NXP/LPC/LPC55S69/uart/Ada_Drivers_Library/arch/ARM/NXP/lib/lpc55s69_evk_s/ravenscar-sfp/Debug/liblpc55s69.a(nxp-device.o)
                0x0000000030003d78                nxp__device__p0_15
 .bss.nxp__device__p0_16
                0x0000000030003d88       0x10 /home/hedley/ada/NXP/LPC/LPC55S69/uart/Ada_Drivers_Library/arch/ARM/NXP/lib/lpc55s69_evk_s/ravenscar-sfp/Debug/liblpc55s69.a(nxp-device.o)
                0x0000000030003d88                nxp__device__p0_16
 .bss.nxp__device__p0_17
                0x0000000030003d98       0x10 /home/hedley/ada/NXP/LPC/LPC55S69/uart/Ada_Drivers_Library/arch/ARM/NXP/lib/lpc55s69_evk_s/ravenscar-sfp/Debug/liblpc55s69.a(nxp-device.o)
                0x0000000030003d98                nxp__device__p0_17
 .bss.nxp__device__p0_18
                0x0000000030003da8       0x10 /home/hedley/ada/NXP/LPC/LPC55S69/uart/Ada_Drivers_Library/arch/ARM/NXP/lib/lpc55s69_evk_s/ravenscar-sfp/Debug/liblpc55s69.a(nxp-device.o)
                0x0000000030003da8                nxp__device__p0_18
 .bss.nxp__device__p0_19
                0x0000000030003db8       0x10 /home/hedley/ada/NXP/LPC/LPC55S69/uart/Ada_Drivers_Library/arch/ARM/NXP/lib/lpc55s69_evk_s/ravenscar-sfp/Debug/liblpc55s69.a(nxp-device.o)
                0x0000000030003db8                nxp__device__p0_19
 .bss.nxp__device__p0_20
                0x0000000030003dc8       0x10 /home/hedley/ada/NXP/LPC/LPC55S69/uart/Ada_Drivers_Library/arch/ARM/NXP/lib/lpc55s69_evk_s/ravenscar-sfp/Debug/liblpc55s69.a(nxp-device.o)
                0x0000000030003dc8                nxp__device__p0_20
 .bss.nxp__device__p0_21
                0x0000000030003dd8       0x10 /home/hedley/ada/NXP/LPC/LPC55S69/uart/Ada_Drivers_Library/arch/ARM/NXP/lib/lpc55s69_evk_s/ravenscar-sfp/Debug/liblpc55s69.a(nxp-device.o)
                0x0000000030003dd8                nxp__device__p0_21
 .bss.nxp__device__p0_22
                0x0000000030003de8       0x10 /home/hedley/ada/NXP/LPC/LPC55S69/uart/Ada_Drivers_Library/arch/ARM/NXP/lib/lpc55s69_evk_s/ravenscar-sfp/Debug/liblpc55s69.a(nxp-device.o)
                0x0000000030003de8                nxp__device__p0_22
 .bss.nxp__device__p0_23
                0x0000000030003df8       0x10 /home/hedley/ada/NXP/LPC/LPC55S69/uart/Ada_Drivers_Library/arch/ARM/NXP/lib/lpc55s69_evk_s/ravenscar-sfp/Debug/liblpc55s69.a(nxp-device.o)
                0x0000000030003df8                nxp__device__p0_23
 .bss.nxp__device__p0_24
                0x0000000030003e08       0x10 /home/hedley/ada/NXP/LPC/LPC55S69/uart/Ada_Drivers_Library/arch/ARM/NXP/lib/lpc55s69_evk_s/ravenscar-sfp/Debug/liblpc55s69.a(nxp-device.o)
                0x0000000030003e08                nxp__device__p0_24
 .bss.nxp__device__p0_25
                0x0000000030003e18       0x10 /home/hedley/ada/NXP/LPC/LPC55S69/uart/Ada_Drivers_Library/arch/ARM/NXP/lib/lpc55s69_evk_s/ravenscar-sfp/Debug/liblpc55s69.a(nxp-device.o)
                0x0000000030003e18                nxp__device__p0_25
 .bss.nxp__device__p0_26
                0x0000000030003e28       0x10 /home/hedley/ada/NXP/LPC/LPC55S69/uart/Ada_Drivers_Library/arch/ARM/NXP/lib/lpc55s69_evk_s/ravenscar-sfp/Debug/liblpc55s69.a(nxp-device.o)
                0x0000000030003e28                nxp__device__p0_26
 .bss.nxp__device__p0_27
                0x0000000030003e38       0x10 /home/hedley/ada/NXP/LPC/LPC55S69/uart/Ada_Drivers_Library/arch/ARM/NXP/lib/lpc55s69_evk_s/ravenscar-sfp/Debug/liblpc55s69.a(nxp-device.o)
                0x0000000030003e38                nxp__device__p0_27
 .bss.nxp__device__p0_28
                0x0000000030003e48       0x10 /home/hedley/ada/NXP/LPC/LPC55S69/uart/Ada_Drivers_Library/arch/ARM/NXP/lib/lpc55s69_evk_s/ravenscar-sfp/Debug/liblpc55s69.a(nxp-device.o)
                0x0000000030003e48                nxp__device__p0_28
 .bss.nxp__device__p0_29
                0x0000000030003e58       0x10 /home/hedley/ada/NXP/LPC/LPC55S69/uart/Ada_Drivers_Library/arch/ARM/NXP/lib/lpc55s69_evk_s/ravenscar-sfp/Debug/liblpc55s69.a(nxp-device.o)
                0x0000000030003e58                nxp__device__p0_29
 .bss.nxp__device__p0_30
                0x0000000030003e68       0x10 /home/hedley/ada/NXP/LPC/LPC55S69/uart/Ada_Drivers_Library/arch/ARM/NXP/lib/lpc55s69_evk_s/ravenscar-sfp/Debug/liblpc55s69.a(nxp-device.o)
                0x0000000030003e68                nxp__device__p0_30
 .bss.nxp__device__p0_31
                0x0000000030003e78       0x10 /home/hedley/ada/NXP/LPC/LPC55S69/uart/Ada_Drivers_Library/arch/ARM/NXP/lib/lpc55s69_evk_s/ravenscar-sfp/Debug/liblpc55s69.a(nxp-device.o)
                0x0000000030003e78                nxp__device__p0_31
 .bss.nxp__device__p1_0
                0x0000000030003e88       0x10 /home/hedley/ada/NXP/LPC/LPC55S69/uart/Ada_Drivers_Library/arch/ARM/NXP/lib/lpc55s69_evk_s/ravenscar-sfp/Debug/liblpc55s69.a(nxp-device.o)
                0x0000000030003e88                nxp__device(_ *, )
 .bss.nxp__device__p1_1
                0x0000000030003e98       0x10 /home/hedley/ada/NXP/LPC/LPC55S69/uart/Ada_Drivers_Library/arch/ARM/NXP/lib/lpc55s69_evk_s/ravenscar-sfp/Debug/liblpc55s69.a(nxp-device.o)
                0x0000000030003e98                nxp__device__p1_1
 .bss.nxp__device__p1_2
                0x0000000030003ea8       0x10 /home/hedley/ada/NXP/LPC/LPC55S69/uart/Ada_Drivers_Library/arch/ARM/NXP/lib/lpc55s69_evk_s/ravenscar-sfp/Debug/liblpc55s69.a(nxp-device.o)
                0x0000000030003ea8                nxp__device__p1_2
 .bss.nxp__device__p1_3
                0x0000000030003eb8       0x10 /home/hedley/ada/NXP/LPC/LPC55S69/uart/Ada_Drivers_Library/arch/ARM/NXP/lib/lpc55s69_evk_s/ravenscar-sfp/Debug/liblpc55s69.a(nxp-device.o)
                0x0000000030003eb8                nxp__device__p1_3
 .bss.nxp__device__p1_4
                0x0000000030003ec8       0x10 /home/hedley/ada/NXP/LPC/LPC55S69/uart/Ada_Drivers_Library/arch/ARM/NXP/lib/lpc55s69_evk_s/ravenscar-sfp/Debug/liblpc55s69.a(nxp-device.o)
                0x0000000030003ec8                nxp__device__p1_4
 .bss.nxp__device__p1_5
                0x0000000030003ed8       0x10 /home/hedley/ada/NXP/LPC/LPC55S69/uart/Ada_Drivers_Library/arch/ARM/NXP/lib/lpc55s69_evk_s/ravenscar-sfp/Debug/liblpc55s69.a(nxp-device.o)
                0x0000000030003ed8                nxp__device__p1_5
 .bss.nxp__device__p1_6
                0x0000000030003ee8       0x10 /home/hedley/ada/NXP/LPC/LPC55S69/uart/Ada_Drivers_Library/arch/ARM/NXP/lib/lpc55s69_evk_s/ravenscar-sfp/Debug/liblpc55s69.a(nxp-device.o)
                0x0000000030003ee8                nxp__device__p1_6
 .bss.nxp__device__p1_7
                0x0000000030003ef8       0x10 /home/hedley/ada/NXP/LPC/LPC55S69/uart/Ada_Drivers_Library/arch/ARM/NXP/lib/lpc55s69_evk_s/ravenscar-sfp/Debug/liblpc55s69.a(nxp-device.o)
                0x0000000030003ef8                nxp__device__p1_7
 .bss.nxp__device__p1_8
                0x0000000030003f08       0x10 /home/hedley/ada/NXP/LPC/LPC55S69/uart/Ada_Drivers_Library/arch/ARM/NXP/lib/lpc55s69_evk_s/ravenscar-sfp/Debug/liblpc55s69.a(nxp-device.o)
                0x0000000030003f08                nxp__device__p1_8
 .bss.nxp__device__p1_9
                0x0000000030003f18       0x10 /home/hedley/ada/NXP/LPC/LPC55S69/uart/Ada_Drivers_Library/arch/ARM/NXP/lib/lpc55s69_evk_s/ravenscar-sfp/Debug/liblpc55s69.a(nxp-device.o)
                0x0000000030003f18                nxp__device__p1_9
 .bss.nxp__device__p1_10
                0x0000000030003f28       0x10 /home/hedley/ada/NXP/LPC/LPC55S69/uart/Ada_Drivers_Library/arch/ARM/NXP/lib/lpc55s69_evk_s/ravenscar-sfp/Debug/liblpc55s69.a(nxp-device.o)
                0x0000000030003f28                nxp__device__p1_10
 .bss.nxp__device__p1_11
                0x0000000030003f38       0x10 /home/hedley/ada/NXP/LPC/LPC55S69/uart/Ada_Drivers_Library/arch/ARM/NXP/lib/lpc55s69_evk_s/ravenscar-sfp/Debug/liblpc55s69.a(nxp-device.o)
                0x0000000030003f38                nxp__device__p1_11
 .bss.nxp__device__p1_12
                0x0000000030003f48       0x10 /home/hedley/ada/NXP/LPC/LPC55S69/uart/Ada_Drivers_Library/arch/ARM/NXP/lib/lpc55s69_evk_s/ravenscar-sfp/Debug/liblpc55s69.a(nxp-device.o)
                0x0000000030003f48                nxp__device__p1_12
 .bss.nxp__device__p1_13
                0x0000000030003f58       0x10 /home/hedley/ada/NXP/LPC/LPC55S69/uart/Ada_Drivers_Library/arch/ARM/NXP/lib/lpc55s69_evk_s/ravenscar-sfp/Debug/liblpc55s69.a(nxp-device.o)
                0x0000000030003f58                nxp__device__p1_13
 .bss.nxp__device__p1_14
                0x0000000030003f68       0x10 /home/hedley/ada/NXP/LPC/LPC55S69/uart/Ada_Drivers_Library/arch/ARM/NXP/lib/lpc55s69_evk_s/ravenscar-sfp/Debug/liblpc55s69.a(nxp-device.o)
                0x0000000030003f68                nxp__device__p1_14
 .bss.nxp__device__p1_15
                0x0000000030003f78       0x10 /home/hedley/ada/NXP/LPC/LPC55S69/uart/Ada_Drivers_Library/arch/ARM/NXP/lib/lpc55s69_evk_s/ravenscar-sfp/Debug/liblpc55s69.a(nxp-device.o)
                0x0000000030003f78                nxp__device__p1_15
 .bss.nxp__device__p1_16
                0x0000000030003f88       0x10 /home/hedley/ada/NXP/LPC/LPC55S69/uart/Ada_Drivers_Library/arch/ARM/NXP/lib/lpc55s69_evk_s/ravenscar-sfp/Debug/liblpc55s69.a(nxp-device.o)
                0x0000000030003f88                nxp__device__p1_16
 .bss.nxp__device__p1_17
                0x0000000030003f98       0x10 /home/hedley/ada/NXP/LPC/LPC55S69/uart/Ada_Drivers_Library/arch/ARM/NXP/lib/lpc55s69_evk_s/ravenscar-sfp/Debug/liblpc55s69.a(nxp-device.o)
                0x0000000030003f98                nxp__device__p1_17
 .bss.nxp__device__p1_18
                0x0000000030003fa8       0x10 /home/hedley/ada/NXP/LPC/LPC55S69/uart/Ada_Drivers_Library/arch/ARM/NXP/lib/lpc55s69_evk_s/ravenscar-sfp/Debug/liblpc55s69.a(nxp-device.o)
                0x0000000030003fa8                nxp__device__p1_18
 .bss.nxp__device__p1_19
                0x0000000030003fb8       0x10 /home/hedley/ada/NXP/LPC/LPC55S69/uart/Ada_Drivers_Library/arch/ARM/NXP/lib/lpc55s69_evk_s/ravenscar-sfp/Debug/liblpc55s69.a(nxp-device.o)
                0x0000000030003fb8                nxp__device__p1_19
 .bss.nxp__device__p1_20
                0x0000000030003fc8       0x10 /home/hedley/ada/NXP/LPC/LPC55S69/uart/Ada_Drivers_Library/arch/ARM/NXP/lib/lpc55s69_evk_s/ravenscar-sfp/Debug/liblpc55s69.a(nxp-device.o)
                0x0000000030003fc8                nxp__device__p1_20
 .bss.nxp__device__p1_21
                0x0000000030003fd8       0x10 /home/hedley/ada/NXP/LPC/LPC55S69/uart/Ada_Drivers_Library/arch/ARM/NXP/lib/lpc55s69_evk_s/ravenscar-sfp/Debug/liblpc55s69.a(nxp-device.o)
                0x0000000030003fd8                nxp__device__p1_21
 .bss.nxp__device__p1_22
                0x0000000030003fe8       0x10 /home/hedley/ada/NXP/LPC/LPC55S69/uart/Ada_Drivers_Library/arch/ARM/NXP/lib/lpc55s69_evk_s/ravenscar-sfp/Debug/liblpc55s69.a(nxp-device.o)
                0x0000000030003fe8                nxp__device__p1_22
 .bss.nxp__device__p1_23
                0x0000000030003ff8       0x10 /home/hedley/ada/NXP/LPC/LPC55S69/uart/Ada_Drivers_Library/arch/ARM/NXP/lib/lpc55s69_evk_s/ravenscar-sfp/Debug/liblpc55s69.a(nxp-device.o)
                0x0000000030003ff8                nxp__device__p1_23
 .bss.nxp__device__p1_24
                0x0000000030004008       0x10 /home/hedley/ada/NXP/LPC/LPC55S69/uart/Ada_Drivers_Library/arch/ARM/NXP/lib/lpc55s69_evk_s/ravenscar-sfp/Debug/liblpc55s69.a(nxp-device.o)
                0x0000000030004008                nxp__device__p1_24
 .bss.nxp__device__p1_25
                0x0000000030004018       0x10 /home/hedley/ada/NXP/LPC/LPC55S69/uart/Ada_Drivers_Library/arch/ARM/NXP/lib/lpc55s69_evk_s/ravenscar-sfp/Debug/liblpc55s69.a(nxp-device.o)
                0x0000000030004018                nxp__device__p1_25
 .bss.nxp__device__p1_26
                0x0000000030004028       0x10 /home/hedley/ada/NXP/LPC/LPC55S69/uart/Ada_Drivers_Library/arch/ARM/NXP/lib/lpc55s69_evk_s/ravenscar-sfp/Debug/liblpc55s69.a(nxp-device.o)
                0x0000000030004028                nxp__device__p1_26
 .bss.nxp__device__p1_27
                0x0000000030004038       0x10 /home/hedley/ada/NXP/LPC/LPC55S69/uart/Ada_Drivers_Library/arch/ARM/NXP/lib/lpc55s69_evk_s/ravenscar-sfp/Debug/liblpc55s69.a(nxp-device.o)
                0x0000000030004038                nxp__device__p1_27
 .bss.nxp__device__p1_28
                0x0000000030004048       0x10 /home/hedley/ada/NXP/LPC/LPC55S69/uart/Ada_Drivers_Library/arch/ARM/NXP/lib/lpc55s69_evk_s/ravenscar-sfp/Debug/liblpc55s69.a(nxp-device.o)
                0x0000000030004048                nxp__device__p1_28
 .bss.nxp__device__p1_29
                0x0000000030004058       0x10 /home/hedley/ada/NXP/LPC/LPC55S69/uart/Ada_Drivers_Library/arch/ARM/NXP/lib/lpc55s69_evk_s/ravenscar-sfp/Debug/liblpc55s69.a(nxp-device.o)
                0x0000000030004058                nxp__device__p1_29
 .bss.nxp__device__p1_30
                0x0000000030004068       0x10 /home/hedley/ada/NXP/LPC/LPC55S69/uart/Ada_Drivers_Library/arch/ARM/NXP/lib/lpc55s69_evk_s/ravenscar-sfp/Debug/liblpc55s69.a(nxp-device.o)
                0x0000000030004068                nxp__device__p1_30
 .bss.nxp__device__p1_31
                0x0000000030004078       0x10 /home/hedley/ada/NXP/LPC/LPC55S69/uart/Ada_Drivers_Library/arch/ARM/NXP/lib/lpc55s69_evk_s/ravenscar-sfp/Debug/liblpc55s69.a(nxp-device.o)
                0x0000000030004078                nxp__device__p1_31
 .bss.nxp__device__R134s
                0x0000000030004088        0x4 /home/hedley/ada/NXP/LPC/LPC55S69/uart/Ada_Drivers_Library/arch/ARM/NXP/lib/lpc55s69_evk_s/ravenscar-sfp/Debug/liblpc55s69.a(nxp-device.o)
                0x0000000030004088                nxp__device__R134s
 .bss.nxp__device__secgpio
                0x000000003000408c        0x4 /home/hedley/ada/NXP/LPC/LPC55S69/uart/Ada_Drivers_Library/arch/ARM/NXP/lib/lpc55s69_evk_s/ravenscar-sfp/Debug/liblpc55s69.a(nxp-device.o)
                0x000000003000408c                nxp__device__secgpio
 .bss.nxp__device__R137s
                0x0000000030004090        0x4 /home/hedley/ada/NXP/LPC/LPC55S69/uart/Ada_Drivers_Library/arch/ARM/NXP/lib/lpc55s69_evk_s/ravenscar-sfp/Debug/liblpc55s69.a(nxp-device.o)
                0x0000000030004090                nxp__device__R137s
 .bss.nxp__device__syscon
                0x0000000030004094        0x4 /home/hedley/ada/NXP/LPC/LPC55S69/uart/Ada_Drivers_Library/arch/ARM/NXP/lib/lpc55s69_evk_s/ravenscar-sfp/Debug/liblpc55s69.a(nxp-device.o)
                0x0000000030004094                nxp__device__syscon
 .bss.nxp__gpio__R1b
                0x0000000030004098        0x4 /home/hedley/ada/NXP/LPC/LPC55S69/uart/Ada_Drivers_Library/arch/ARM/NXP/lib/lpc55s69_evk_s/ravenscar-sfp/Debug/liblpc55s69.a(nxp-gpio.o)
                0x0000000030004098                nxp__gpio(b &)
 .bss.nxp__gpio__iocon
                0x000000003000409c        0x4 /home/hedley/ada/NXP/LPC/LPC55S69/uart/Ada_Drivers_Library/arch/ARM/NXP/lib/lpc55s69_evk_s/ravenscar-sfp/Debug/liblpc55s69.a(nxp-gpio.o)
                0x000000003000409c                nxp__gpio__iocon
 .bss.nxp__pint__R1b
                0x00000000300040a0        0x4 /home/hedley/ada/NXP/LPC/LPC55S69/uart/Ada_Drivers_Library/arch/ARM/NXP/lib/lpc55s69_evk_s/ravenscar-sfp/Debug/liblpc55s69.a(nxp-pint.o)
 .bss.nxp__pint__pint
                0x00000000300040a4        0x4 /home/hedley/ada/NXP/LPC/LPC55S69/uart/Ada_Drivers_Library/arch/ARM/NXP/lib/lpc55s69_evk_s/ravenscar-sfp/Debug/liblpc55s69.a(nxp-pint.o)
                0x00000000300040a4                nxp__pint__pint
 .bss.__gnat_alarm_time
                0x00000000300040a8        0x4 /home/hedley/ada/NXP/LPC/LPC55S69/uart/Ada_Drivers_Library/embedded-runtimes/ravenscar-lpc55s69_evk_s/sfp/adalib/libgnarl.a(s-bbbosu.o)
                0x00000000300040a8                __gnat_alarm_time
 .bss.system__bb__board_support__next_tick_time
                0x00000000300040ac        0x4 /home/hedley/ada/NXP/LPC/LPC55S69/uart/Ada_Drivers_Library/embedded-runtimes/ravenscar-lpc55s69_evk_s/sfp/adalib/libgnarl.a(s-bbbosu.o)
                0x00000000300040ac                system__bb__board_support__next_tick_time
 .bss.__gnat_bb_exception_handlers
                0x00000000300040b0       0x44 /home/hedley/ada/NXP/LPC/LPC55S69/uart/Ada_Drivers_Library/embedded-runtimes/ravenscar-lpc55s69_evk_s/sfp/adalib/libgnarl.a(s-bbcppr.o)
                0x00000000300040b0                __gnat_bb_exception_handlers
 .bss.interrupt_stack_table
                0x00000000300040f4        0x4 /home/hedley/ada/NXP/LPC/LPC55S69/uart/Ada_Drivers_Library/embedded-runtimes/ravenscar-lpc55s69_evk_s/sfp/adalib/libgnarl.a(s-bbinte.o)
                0x00000000300040f4                interrupt_stack_table
 .bss.system__bb__interrupts__interrupt_handlers_table
                0x00000000300040f8      0x1b4 /home/hedley/ada/NXP/LPC/LPC55S69/uart/Ada_Drivers_Library/embedded-runtimes/ravenscar-lpc55s69_evk_s/sfp/adalib/libgnarl.a(s-bbinte.o)
                0x00000000300040f8                system__bb__interrupts__interrupt_handlers_table
 *fill*         0x00000000300042ac        0x4 
 .bss.system__tasking__environment_task
                0x00000000300042b0       0xb8 /home/hedley/ada/NXP/LPC/LPC55S69/uart/Ada_Drivers_Library/embedded-runtimes/ravenscar-lpc55s69_evk_s/sfp/adalib/libgnarl.a(s-taskin.o)
 .bss.__gnat_idle_stack_table
                0x0000000030004368        0x4 /home/hedley/ada/NXP/LPC/LPC55S69/uart/Ada_Drivers_Library/embedded-runtimes/ravenscar-lpc55s69_evk_s/sfp/adalib/libgnarl.a(s-taprop.o)
                0x0000000030004368                __gnat_idle_stack_table
 *fill*         0x000000003000436c        0x4 
 .bss.system__task_primitives__operations__idle_stacks
                0x0000000030004370      0x800 /home/hedley/ada/NXP/LPC/LPC55S69/uart/Ada_Drivers_Library/embedded-runtimes/ravenscar-lpc55s69_evk_s/sfp/adalib/libgnarl.a(s-taprop.o)
                0x0000000030004370                system__task_primitives__operations__idle_stacks
 .bss.system__task_primitives__operations__idle_tasks
                0x0000000030004b70       0xb8 /home/hedley/ada/NXP/LPC/LPC55S69/uart/Ada_Drivers_Library/embedded-runtimes/ravenscar-lpc55s69_evk_s/sfp/adalib/libgnarl.a(s-taprop.o)
                0x0000000030004b70                system__task_primitives__operations__idle_tasks
 .bss.__gnat_binder_ss_count
                0x0000000030004c28        0x4 /home/hedley/ada/NXP/LPC/LPC55S69/uart/Ada_Drivers_Library/embedded-runtimes/ravenscar-lpc55s69_evk_s/sfp/adalib/libgnat.a(s-secsta.o)
                0x0000000030004c28                __gnat_binder_ss_count
 .bss.__gnat_default_ss_pool
                0x0000000030004c2c        0x4 /home/hedley/ada/NXP/LPC/LPC55S69/uart/Ada_Drivers_Library/embedded-runtimes/ravenscar-lpc55s69_evk_s/sfp/adalib/libgnat.a(s-secsta.o)
                0x0000000030004c2c                __gnat_default_ss_pool
 .bss.__gnat_default_ss_size
                0x0000000030004c30        0x4 /home/hedley/ada/NXP/LPC/LPC55S69/uart/Ada_Drivers_Library/embedded-runtimes/ravenscar-lpc55s69_evk_s/sfp/adalib/libgnat.a(s-secsta.o)
                0x0000000030004c30                __gnat_default_ss_size
 *(COMMON)
                0x0000000030004c38                . = ALIGN (0x8)
 *fill*         0x0000000030004c34        0x4 
                0x0000000030004c38                __bss_end = .
                0x0000000030004c38                __interrupt_stack_start = .
 *(.interrupt_stacks)
 .interrupt_stacks
                0x0000000030004c38      0x800 /home/hedley/ada/NXP/LPC/LPC55S69/uart/Ada_Drivers_Library/embedded-runtimes/ravenscar-lpc55s69_evk_s/sfp/adalib/libgnarl.a(s-bbinte.o)
                0x0000000030004c38                system__bb__interrupts__interrupt_stacks
                0x0000000030005438                . = ALIGN (0x8)
                0x0000000030005438                __interrupt_stack_end = .
                0x0000000030005438                __stack_start = .
                0x0000000030006438                . = (. + DEFINED (__stack_size)?__stack_size:_DEFAULT_STACK_SIZE)
 *fill*         0x0000000030005438     0x8000 
                0x000000003000d438                . = ALIGN (0x8)
                0x000000003000d438                __stack_end = .
                0x000000003000d438                _end = .
                0x000000003000d438                __heap_start = .
                0x0000000030044000                __heap_end = (ORIGIN (sram_bs) + LENGTH (sram_bs))
                0x000000000000047e                __bss_words = ((__bss_end - __bss_start) >> 0x2)

.debug
 *(.debug)

.line
 *(.line)

.debug_srcinfo
 *(.debug_srcinfo)

.debug_sfnames
 *(.debug_sfnames)

.debug_aranges  0x0000000000000000      0x970
 *(.debug_aranges)
 .debug_aranges
                0x0000000000000000       0x20 test_s.o
 .debug_aranges
                0x0000000000000020       0x30 b__test_s.o
 .debug_aranges
                0x0000000000000050       0x28 /home/hedley/ada/NXP/LPC/LPC55S69/uart/Ada_Drivers_Library/boards/lib/lpc55s69_evk_s/ravenscar-sfp/Debug/liblpc55s69_evk_s.a(nxp-board.o)
 .debug_aranges
                0x0000000000000078       0x70 /home/hedley/ada/NXP/LPC/LPC55S69/uart/Ada_Drivers_Library/arch/ARM/NXP/lib/lpc55s69_evk_s/ravenscar-sfp/Debug/liblpc55s69.a(nxp-device.o)
 .debug_aranges
                0x00000000000000e8       0xb0 /home/hedley/ada/NXP/LPC/LPC55S69/uart/Ada_Drivers_Library/arch/ARM/NXP/lib/lpc55s69_evk_s/ravenscar-sfp/Debug/liblpc55s69.a(nxp-gpio.o)
 .debug_aranges
                0x0000000000000198       0x40 /home/hedley/ada/NXP/LPC/LPC55S69/uart/Ada_Drivers_Library/arch/ARM/NXP/lib/lpc55s69_evk_s/ravenscar-sfp/Debug/liblpc55s69.a(nxp-pint.o)
 .debug_aranges
                0x00000000000001d8       0x18 /home/hedley/ada/Ada_Drivers_Library/hal/lib/lpc55s69_evk_s/ravenscar-sfp/Debug/libHAL.a(hal-gpio.o)
 .debug_aranges
                0x00000000000001f0       0xd8 /home/hedley/ada/NXP/LPC/LPC55S69/uart/Ada_Drivers_Library/embedded-runtimes/ravenscar-lpc55s69_evk_s/sfp/adalib/libgnarl.a(a-reatim.o)
 .debug_aranges
                0x00000000000002c8       0x28 /home/hedley/ada/NXP/LPC/LPC55S69/uart/Ada_Drivers_Library/embedded-runtimes/ravenscar-lpc55s69_evk_s/sfp/adalib/libgnarl.a(a-retide.o)
 .debug_aranges
                0x00000000000002f0       0xb0 /home/hedley/ada/NXP/LPC/LPC55S69/uart/Ada_Drivers_Library/embedded-runtimes/ravenscar-lpc55s69_evk_s/sfp/adalib/libgnarl.a(s-bbbosu.o)
 .debug_aranges
                0x00000000000003a0       0x88 /home/hedley/ada/NXP/LPC/LPC55S69/uart/Ada_Drivers_Library/embedded-runtimes/ravenscar-lpc55s69_evk_s/sfp/adalib/libgnarl.a(s-bbcppr.o)
 .debug_aranges
                0x0000000000000428       0x40 /home/hedley/ada/NXP/LPC/LPC55S69/uart/Ada_Drivers_Library/embedded-runtimes/ravenscar-lpc55s69_evk_s/sfp/adalib/libgnarl.a(s-bbinte.o)
 .debug_aranges
                0x0000000000000468       0x78 /home/hedley/ada/NXP/LPC/LPC55S69/uart/Ada_Drivers_Library/embedded-runtimes/ravenscar-lpc55s69_evk_s/sfp/adalib/libgnarl.a(s-bbthqu.o)
 .debug_aranges
                0x00000000000004e0       0x58 /home/hedley/ada/NXP/LPC/LPC55S69/uart/Ada_Drivers_Library/embedded-runtimes/ravenscar-lpc55s69_evk_s/sfp/adalib/libgnarl.a(s-bbtime.o)
 .debug_aranges
                0x0000000000000538       0x30 /home/hedley/ada/NXP/LPC/LPC55S69/uart/Ada_Drivers_Library/embedded-runtimes/ravenscar-lpc55s69_evk_s/sfp/adalib/libgnarl.a(s-bcpcst.o)
 .debug_aranges
                0x0000000000000568       0x40 /home/hedley/ada/NXP/LPC/LPC55S69/uart/Ada_Drivers_Library/embedded-runtimes/ravenscar-lpc55s69_evk_s/sfp/adalib/libgnarl.a(s-taskin.o)
 .debug_aranges
                0x00000000000005a8       0x28 /home/hedley/ada/NXP/LPC/LPC55S69/uart/Ada_Drivers_Library/embedded-runtimes/ravenscar-lpc55s69_evk_s/sfp/adalib/libgnarl.a(s-bbprot.o)
 .debug_aranges
                0x00000000000005d0       0x78 /home/hedley/ada/NXP/LPC/LPC55S69/uart/Ada_Drivers_Library/embedded-runtimes/ravenscar-lpc55s69_evk_s/sfp/adalib/libgnarl.a(s-bbthre.o)
 .debug_aranges
                0x0000000000000648       0x40 /home/hedley/ada/NXP/LPC/LPC55S69/uart/Ada_Drivers_Library/embedded-runtimes/ravenscar-lpc55s69_evk_s/sfp/adalib/libgnarl.a(s-bbtiev.o)
 .debug_aranges
                0x0000000000000688       0xa8 /home/hedley/ada/NXP/LPC/LPC55S69/uart/Ada_Drivers_Library/embedded-runtimes/ravenscar-lpc55s69_evk_s/sfp/adalib/libgnarl.a(s-taprop.o)
 .debug_aranges
                0x0000000000000730       0x20 /home/hedley/ada/NXP/LPC/LPC55S69/uart/Ada_Drivers_Library/embedded-runtimes/ravenscar-lpc55s69_evk_s/sfp/adalib/libgnarl.a(s-tasdeb.o)
 .debug_aranges
                0x0000000000000750       0x20 /home/hedley/ada/NXP/LPC/LPC55S69/uart/Ada_Drivers_Library/embedded-runtimes/ravenscar-lpc55s69_evk_s/sfp/adalib/libgnat.a(a-elchha.o)
 .debug_aranges
                0x0000000000000770       0x40 /home/hedley/ada/NXP/LPC/LPC55S69/uart/Ada_Drivers_Library/embedded-runtimes/ravenscar-lpc55s69_evk_s/sfp/adalib/libgnat.a(g-io.o)
 .debug_aranges
                0x00000000000007b0       0x20 /home/hedley/ada/NXP/LPC/LPC55S69/uart/Ada_Drivers_Library/embedded-runtimes/ravenscar-lpc55s69_evk_s/sfp/adalib/libgnat.a(s-assert.o)
 .debug_aranges
                0x00000000000007d0       0x28 /home/hedley/ada/NXP/LPC/LPC55S69/uart/Ada_Drivers_Library/embedded-runtimes/ravenscar-lpc55s69_evk_s/sfp/adalib/libgnat.a(s-macres.o)
 .debug_aranges
                0x00000000000007f8       0x20 /home/hedley/ada/NXP/LPC/LPC55S69/uart/Ada_Drivers_Library/embedded-runtimes/ravenscar-lpc55s69_evk_s/sfp/adalib/libgnat.a(s-memcop.o)
 .debug_aranges
                0x0000000000000818       0x20 /home/hedley/ada/NXP/LPC/LPC55S69/uart/Ada_Drivers_Library/embedded-runtimes/ravenscar-lpc55s69_evk_s/sfp/adalib/libgnat.a(s-memset.o)
 .debug_aranges
                0x0000000000000838       0x20 /home/hedley/ada/NXP/LPC/LPC55S69/uart/Ada_Drivers_Library/embedded-runtimes/ravenscar-lpc55s69_evk_s/sfp/adalib/libgnat.a(s-parame.o)
 .debug_aranges
                0x0000000000000858       0x40 /home/hedley/ada/NXP/LPC/LPC55S69/uart/Ada_Drivers_Library/embedded-runtimes/ravenscar-lpc55s69_evk_s/sfp/adalib/libgnat.a(s-secsta.o)
 .debug_aranges
                0x0000000000000898       0x40 /home/hedley/ada/NXP/LPC/LPC55S69/uart/Ada_Drivers_Library/embedded-runtimes/ravenscar-lpc55s69_evk_s/sfp/adalib/libgnat.a(s-textio.o)
 .debug_aranges
                0x00000000000008d8       0x18 /home/hedley/ada/NXP/LPC/LPC55S69/uart/Ada_Drivers_Library/embedded-runtimes/ravenscar-lpc55s69_evk_s/sfp/adalib/libgnat.a(a-except.o)
 .debug_aranges
                0x00000000000008f0       0x20 /home/hedley/ada/NXP/LPC/LPC55S69/uart/Ada_Drivers_Library/embedded-runtimes/ravenscar-lpc55s69_evk_s/sfp/adalib/libgnat.a(setup_pll.o)
 .debug_aranges
                0x0000000000000910       0x20 /opt/GNAT/2019-arm-elf/bin/../lib/gcc/arm-eabi/7.4.1/thumb/v7e-m/fpv4-sp/hard/libgcc.a(_aeabi_ldivmod.o)
 .debug_aranges
                0x0000000000000930       0x20 /opt/GNAT/2019-arm-elf/bin/../lib/gcc/arm-eabi/7.4.1/thumb/v7e-m/fpv4-sp/hard/libgcc.a(_udivmoddi4.o)
 .debug_aranges
                0x0000000000000950       0x20 /opt/GNAT/2019-arm-elf/bin/../lib/gcc/arm-eabi/7.4.1/thumb/v7e-m/fpv4-sp/hard/libgcc.a(_dvmd_tls.o)

.debug_pubnames
 *(.debug_pubnames)

.debug_info     0x0000000000000000    0x16011
 *(.debug_info .gnu.linkonce.wi.*)
 .debug_info    0x0000000000000000      0x7f5 test_s.o
 .debug_info    0x00000000000007f5      0x3f7 b__test_s.o
 .debug_info    0x0000000000000bec      0x82d /home/hedley/ada/NXP/LPC/LPC55S69/uart/Ada_Drivers_Library/boards/lib/lpc55s69_evk_s/ravenscar-sfp/Debug/liblpc55s69_evk_s.a(nxp-board.o)
 .debug_info    0x0000000000001419     0x6a10 /home/hedley/ada/NXP/LPC/LPC55S69/uart/Ada_Drivers_Library/arch/ARM/NXP/lib/lpc55s69_evk_s/ravenscar-sfp/Debug/liblpc55s69.a(nxp-device.o)
 .debug_info    0x0000000000007e29     0x2b7b /home/hedley/ada/NXP/LPC/LPC55S69/uart/Ada_Drivers_Library/arch/ARM/NXP/lib/lpc55s69_evk_s/ravenscar-sfp/Debug/liblpc55s69.a(nxp-gpio.o)
 .debug_info    0x000000000000a9a4      0xb39 /home/hedley/ada/NXP/LPC/LPC55S69/uart/Ada_Drivers_Library/arch/ARM/NXP/lib/lpc55s69_evk_s/ravenscar-sfp/Debug/liblpc55s69.a(nxp-pint.o)
 .debug_info    0x000000000000b4dd       0x41 /home/hedley/ada/Ada_Drivers_Library/hal/lib/lpc55s69_evk_s/ravenscar-sfp/Debug/libHAL.a(hal-gpio.o)
 .debug_info    0x000000000000b51e     0x1137 /home/hedley/ada/NXP/LPC/LPC55S69/uart/Ada_Drivers_Library/embedded-runtimes/ravenscar-lpc55s69_evk_s/sfp/adalib/libgnarl.a(a-reatim.o)
 .debug_info    0x000000000000c655      0x7f9 /home/hedley/ada/NXP/LPC/LPC55S69/uart/Ada_Drivers_Library/embedded-runtimes/ravenscar-lpc55s69_evk_s/sfp/adalib/libgnarl.a(a-retide.o)
 .debug_info    0x000000000000ce4e      0x877 /home/hedley/ada/NXP/LPC/LPC55S69/uart/Ada_Drivers_Library/embedded-runtimes/ravenscar-lpc55s69_evk_s/sfp/adalib/libgnarl.a(s-bbbosu.o)
 .debug_info    0x000000000000d6c5      0xc4e /home/hedley/ada/NXP/LPC/LPC55S69/uart/Ada_Drivers_Library/embedded-runtimes/ravenscar-lpc55s69_evk_s/sfp/adalib/libgnarl.a(s-bbcppr.o)
 .debug_info    0x000000000000e313      0x742 /home/hedley/ada/NXP/LPC/LPC55S69/uart/Ada_Drivers_Library/embedded-runtimes/ravenscar-lpc55s69_evk_s/sfp/adalib/libgnarl.a(s-bbinte.o)
 .debug_info    0x000000000000ea55      0x6c6 /home/hedley/ada/NXP/LPC/LPC55S69/uart/Ada_Drivers_Library/embedded-runtimes/ravenscar-lpc55s69_evk_s/sfp/adalib/libgnarl.a(s-bbthqu.o)
 .debug_info    0x000000000000f11b      0xdc1 /home/hedley/ada/NXP/LPC/LPC55S69/uart/Ada_Drivers_Library/embedded-runtimes/ravenscar-lpc55s69_evk_s/sfp/adalib/libgnarl.a(s-bbtime.o)
 .debug_info    0x000000000000fedc       0xb7 /home/hedley/ada/NXP/LPC/LPC55S69/uart/Ada_Drivers_Library/embedded-runtimes/ravenscar-lpc55s69_evk_s/sfp/adalib/libgnarl.a(s-bcpcst.o)
 .debug_info    0x000000000000ff93      0xdd1 /home/hedley/ada/NXP/LPC/LPC55S69/uart/Ada_Drivers_Library/embedded-runtimes/ravenscar-lpc55s69_evk_s/sfp/adalib/libgnarl.a(s-taskin.o)
 .debug_info    0x0000000000010d64      0x373 /home/hedley/ada/NXP/LPC/LPC55S69/uart/Ada_Drivers_Library/embedded-runtimes/ravenscar-lpc55s69_evk_s/sfp/adalib/libgnarl.a(s-bbprot.o)
 .debug_info    0x00000000000110d7      0xbc6 /home/hedley/ada/NXP/LPC/LPC55S69/uart/Ada_Drivers_Library/embedded-runtimes/ravenscar-lpc55s69_evk_s/sfp/adalib/libgnarl.a(s-bbthre.o)
 .debug_info    0x0000000000011c9d      0x85e /home/hedley/ada/NXP/LPC/LPC55S69/uart/Ada_Drivers_Library/embedded-runtimes/ravenscar-lpc55s69_evk_s/sfp/adalib/libgnarl.a(s-bbtiev.o)
 .debug_info    0x00000000000124fb     0x12f1 /home/hedley/ada/NXP/LPC/LPC55S69/uart/Ada_Drivers_Library/embedded-runtimes/ravenscar-lpc55s69_evk_s/sfp/adalib/libgnarl.a(s-taprop.o)
 .debug_info    0x00000000000137ec      0x65b /home/hedley/ada/NXP/LPC/LPC55S69/uart/Ada_Drivers_Library/embedded-runtimes/ravenscar-lpc55s69_evk_s/sfp/adalib/libgnarl.a(s-tasdeb.o)
 .debug_info    0x0000000000013e47      0x2be /home/hedley/ada/NXP/LPC/LPC55S69/uart/Ada_Drivers_Library/embedded-runtimes/ravenscar-lpc55s69_evk_s/sfp/adalib/libgnat.a(a-elchha.o)
 .debug_info    0x0000000000014105      0x31f /home/hedley/ada/NXP/LPC/LPC55S69/uart/Ada_Drivers_Library/embedded-runtimes/ravenscar-lpc55s69_evk_s/sfp/adalib/libgnat.a(g-io.o)
 .debug_info    0x0000000000014424      0x1b8 /home/hedley/ada/NXP/LPC/LPC55S69/uart/Ada_Drivers_Library/embedded-runtimes/ravenscar-lpc55s69_evk_s/sfp/adalib/libgnat.a(s-assert.o)
 .debug_info    0x00000000000145dc       0xee /home/hedley/ada/NXP/LPC/LPC55S69/uart/Ada_Drivers_Library/embedded-runtimes/ravenscar-lpc55s69_evk_s/sfp/adalib/libgnat.a(s-macres.o)
 .debug_info    0x00000000000146ca       0xc3 /home/hedley/ada/NXP/LPC/LPC55S69/uart/Ada_Drivers_Library/embedded-runtimes/ravenscar-lpc55s69_evk_s/sfp/adalib/libgnat.a(s-memcop.o)
 .debug_info    0x000000000001478d      0x122 /home/hedley/ada/NXP/LPC/LPC55S69/uart/Ada_Drivers_Library/embedded-runtimes/ravenscar-lpc55s69_evk_s/sfp/adalib/libgnat.a(s-memset.o)
 .debug_info    0x00000000000148af      0x13d /home/hedley/ada/NXP/LPC/LPC55S69/uart/Ada_Drivers_Library/embedded-runtimes/ravenscar-lpc55s69_evk_s/sfp/adalib/libgnat.a(s-parame.o)
 .debug_info    0x00000000000149ec      0x661 /home/hedley/ada/NXP/LPC/LPC55S69/uart/Ada_Drivers_Library/embedded-runtimes/ravenscar-lpc55s69_evk_s/sfp/adalib/libgnat.a(s-secsta.o)
 .debug_info    0x000000000001504d       0xcc /home/hedley/ada/NXP/LPC/LPC55S69/uart/Ada_Drivers_Library/embedded-runtimes/ravenscar-lpc55s69_evk_s/sfp/adalib/libgnat.a(s-textio.o)
 .debug_info    0x0000000000015119      0x157 /home/hedley/ada/NXP/LPC/LPC55S69/uart/Ada_Drivers_Library/embedded-runtimes/ravenscar-lpc55s69_evk_s/sfp/adalib/libgnat.a(a-except.o)
 .debug_info    0x0000000000015270       0x56 /home/hedley/ada/NXP/LPC/LPC55S69/uart/Ada_Drivers_Library/embedded-runtimes/ravenscar-lpc55s69_evk_s/sfp/adalib/libgnat.a(setup_pll.o)
 .debug_info    0x00000000000152c6       0x26 /opt/GNAT/2019-arm-elf/bin/../lib/gcc/arm-eabi/7.4.1/thumb/v7e-m/fpv4-sp/hard/libgcc.a(_aeabi_ldivmod.o)
 .debug_info    0x00000000000152ec      0xcff /opt/GNAT/2019-arm-elf/bin/../lib/gcc/arm-eabi/7.4.1/thumb/v7e-m/fpv4-sp/hard/libgcc.a(_udivmoddi4.o)
 .debug_info    0x0000000000015feb       0x26 /opt/GNAT/2019-arm-elf/bin/../lib/gcc/arm-eabi/7.4.1/thumb/v7e-m/fpv4-sp/hard/libgcc.a(_dvmd_tls.o)

.debug_abbrev   0x0000000000000000     0x4f77
 *(.debug_abbrev)
 .debug_abbrev  0x0000000000000000      0x1e5 test_s.o
 .debug_abbrev  0x00000000000001e5      0x202 b__test_s.o
 .debug_abbrev  0x00000000000003e7      0x1fb /home/hedley/ada/NXP/LPC/LPC55S69/uart/Ada_Drivers_Library/boards/lib/lpc55s69_evk_s/ravenscar-sfp/Debug/liblpc55s69_evk_s.a(nxp-board.o)
 .debug_abbrev  0x00000000000005e2      0x455 /home/hedley/ada/NXP/LPC/LPC55S69/uart/Ada_Drivers_Library/arch/ARM/NXP/lib/lpc55s69_evk_s/ravenscar-sfp/Debug/liblpc55s69.a(nxp-device.o)
 .debug_abbrev  0x0000000000000a37      0x3df /home/hedley/ada/NXP/LPC/LPC55S69/uart/Ada_Drivers_Library/arch/ARM/NXP/lib/lpc55s69_evk_s/ravenscar-sfp/Debug/liblpc55s69.a(nxp-gpio.o)
 .debug_abbrev  0x0000000000000e16      0x21c /home/hedley/ada/NXP/LPC/LPC55S69/uart/Ada_Drivers_Library/arch/ARM/NXP/lib/lpc55s69_evk_s/ravenscar-sfp/Debug/liblpc55s69.a(nxp-pint.o)
 .debug_abbrev  0x0000000000001032       0x28 /home/hedley/ada/Ada_Drivers_Library/hal/lib/lpc55s69_evk_s/ravenscar-sfp/Debug/libHAL.a(hal-gpio.o)
 .debug_abbrev  0x000000000000105a      0x34c /home/hedley/ada/NXP/LPC/LPC55S69/uart/Ada_Drivers_Library/embedded-runtimes/ravenscar-lpc55s69_evk_s/sfp/adalib/libgnarl.a(a-reatim.o)
 .debug_abbrev  0x00000000000013a6      0x36a /home/hedley/ada/NXP/LPC/LPC55S69/uart/Ada_Drivers_Library/embedded-runtimes/ravenscar-lpc55s69_evk_s/sfp/adalib/libgnarl.a(a-retide.o)
 .debug_abbrev  0x0000000000001710      0x3c7 /home/hedley/ada/NXP/LPC/LPC55S69/uart/Ada_Drivers_Library/embedded-runtimes/ravenscar-lpc55s69_evk_s/sfp/adalib/libgnarl.a(s-bbbosu.o)
 .debug_abbrev  0x0000000000001ad7      0x436 /home/hedley/ada/NXP/LPC/LPC55S69/uart/Ada_Drivers_Library/embedded-runtimes/ravenscar-lpc55s69_evk_s/sfp/adalib/libgnarl.a(s-bbcppr.o)
 .debug_abbrev  0x0000000000001f0d      0x397 /home/hedley/ada/NXP/LPC/LPC55S69/uart/Ada_Drivers_Library/embedded-runtimes/ravenscar-lpc55s69_evk_s/sfp/adalib/libgnarl.a(s-bbinte.o)
 .debug_abbrev  0x00000000000022a4      0x375 /home/hedley/ada/NXP/LPC/LPC55S69/uart/Ada_Drivers_Library/embedded-runtimes/ravenscar-lpc55s69_evk_s/sfp/adalib/libgnarl.a(s-bbthqu.o)
 .debug_abbrev  0x0000000000002619      0x405 /home/hedley/ada/NXP/LPC/LPC55S69/uart/Ada_Drivers_Library/embedded-runtimes/ravenscar-lpc55s69_evk_s/sfp/adalib/libgnarl.a(s-bbtime.o)
 .debug_abbrev  0x0000000000002a1e       0x99 /home/hedley/ada/NXP/LPC/LPC55S69/uart/Ada_Drivers_Library/embedded-runtimes/ravenscar-lpc55s69_evk_s/sfp/adalib/libgnarl.a(s-bcpcst.o)
 .debug_abbrev  0x0000000000002ab7      0x4f2 /home/hedley/ada/NXP/LPC/LPC55S69/uart/Ada_Drivers_Library/embedded-runtimes/ravenscar-lpc55s69_evk_s/sfp/adalib/libgnarl.a(s-taskin.o)
 .debug_abbrev  0x0000000000002fa9      0x24a /home/hedley/ada/NXP/LPC/LPC55S69/uart/Ada_Drivers_Library/embedded-runtimes/ravenscar-lpc55s69_evk_s/sfp/adalib/libgnarl.a(s-bbprot.o)
 .debug_abbrev  0x00000000000031f3      0x43a /home/hedley/ada/NXP/LPC/LPC55S69/uart/Ada_Drivers_Library/embedded-runtimes/ravenscar-lpc55s69_evk_s/sfp/adalib/libgnarl.a(s-bbthre.o)
 .debug_abbrev  0x000000000000362d      0x35b /home/hedley/ada/NXP/LPC/LPC55S69/uart/Ada_Drivers_Library/embedded-runtimes/ravenscar-lpc55s69_evk_s/sfp/adalib/libgnarl.a(s-bbtiev.o)
 .debug_abbrev  0x0000000000003988      0x5a1 /home/hedley/ada/NXP/LPC/LPC55S69/uart/Ada_Drivers_Library/embedded-runtimes/ravenscar-lpc55s69_evk_s/sfp/adalib/libgnarl.a(s-taprop.o)
 .debug_abbrev  0x0000000000003f29      0x232 /home/hedley/ada/NXP/LPC/LPC55S69/uart/Ada_Drivers_Library/embedded-runtimes/ravenscar-lpc55s69_evk_s/sfp/adalib/libgnarl.a(s-tasdeb.o)
 .debug_abbrev  0x000000000000415b      0x1a9 /home/hedley/ada/NXP/LPC/LPC55S69/uart/Ada_Drivers_Library/embedded-runtimes/ravenscar-lpc55s69_evk_s/sfp/adalib/libgnat.a(a-elchha.o)
 .debug_abbrev  0x0000000000004304      0x1f4 /home/hedley/ada/NXP/LPC/LPC55S69/uart/Ada_Drivers_Library/embedded-runtimes/ravenscar-lpc55s69_evk_s/sfp/adalib/libgnat.a(g-io.o)
 .debug_abbrev  0x00000000000044f8      0x118 /home/hedley/ada/NXP/LPC/LPC55S69/uart/Ada_Drivers_Library/embedded-runtimes/ravenscar-lpc55s69_evk_s/sfp/adalib/libgnat.a(s-assert.o)
 .debug_abbrev  0x0000000000004610       0xff /home/hedley/ada/NXP/LPC/LPC55S69/uart/Ada_Drivers_Library/embedded-runtimes/ravenscar-lpc55s69_evk_s/sfp/adalib/libgnat.a(s-macres.o)
 .debug_abbrev  0x000000000000470f       0x76 /home/hedley/ada/NXP/LPC/LPC55S69/uart/Ada_Drivers_Library/embedded-runtimes/ravenscar-lpc55s69_evk_s/sfp/adalib/libgnat.a(s-memcop.o)
 .debug_abbrev  0x0000000000004785       0xe4 /home/hedley/ada/NXP/LPC/LPC55S69/uart/Ada_Drivers_Library/embedded-runtimes/ravenscar-lpc55s69_evk_s/sfp/adalib/libgnat.a(s-memset.o)
 .debug_abbrev  0x0000000000004869       0x95 /home/hedley/ada/NXP/LPC/LPC55S69/uart/Ada_Drivers_Library/embedded-runtimes/ravenscar-lpc55s69_evk_s/sfp/adalib/libgnat.a(s-parame.o)
 .debug_abbrev  0x00000000000048fe      0x2e9 /home/hedley/ada/NXP/LPC/LPC55S69/uart/Ada_Drivers_Library/embedded-runtimes/ravenscar-lpc55s69_evk_s/sfp/adalib/libgnat.a(s-secsta.o)
 .debug_abbrev  0x0000000000004be7       0xbc /home/hedley/ada/NXP/LPC/LPC55S69/uart/Ada_Drivers_Library/embedded-runtimes/ravenscar-lpc55s69_evk_s/sfp/adalib/libgnat.a(s-textio.o)
 .debug_abbrev  0x0000000000004ca3       0xd3 /home/hedley/ada/NXP/LPC/LPC55S69/uart/Ada_Drivers_Library/embedded-runtimes/ravenscar-lpc55s69_evk_s/sfp/adalib/libgnat.a(a-except.o)
 .debug_abbrev  0x0000000000004d76       0x40 /home/hedley/ada/NXP/LPC/LPC55S69/uart/Ada_Drivers_Library/embedded-runtimes/ravenscar-lpc55s69_evk_s/sfp/adalib/libgnat.a(setup_pll.o)
 .debug_abbrev  0x0000000000004db6       0x14 /opt/GNAT/2019-arm-elf/bin/../lib/gcc/arm-eabi/7.4.1/thumb/v7e-m/fpv4-sp/hard/libgcc.a(_aeabi_ldivmod.o)
 .debug_abbrev  0x0000000000004dca      0x199 /opt/GNAT/2019-arm-elf/bin/../lib/gcc/arm-eabi/7.4.1/thumb/v7e-m/fpv4-sp/hard/libgcc.a(_udivmoddi4.o)
 .debug_abbrev  0x0000000000004f63       0x14 /opt/GNAT/2019-arm-elf/bin/../lib/gcc/arm-eabi/7.4.1/thumb/v7e-m/fpv4-sp/hard/libgcc.a(_dvmd_tls.o)

.debug_line     0x0000000000000000     0x5077
 *(.debug_line)
 .debug_line    0x0000000000000000      0x22c test_s.o
 .debug_line    0x000000000000022c      0x132 b__test_s.o
 .debug_line    0x000000000000035e      0x262 /home/hedley/ada/NXP/LPC/LPC55S69/uart/Ada_Drivers_Library/boards/lib/lpc55s69_evk_s/ravenscar-sfp/Debug/liblpc55s69_evk_s.a(nxp-board.o)
 .debug_line    0x00000000000005c0      0x489 /home/hedley/ada/NXP/LPC/LPC55S69/uart/Ada_Drivers_Library/arch/ARM/NXP/lib/lpc55s69_evk_s/ravenscar-sfp/Debug/liblpc55s69.a(nxp-device.o)
 .debug_line    0x0000000000000a49      0x7de /home/hedley/ada/NXP/LPC/LPC55S69/uart/Ada_Drivers_Library/arch/ARM/NXP/lib/lpc55s69_evk_s/ravenscar-sfp/Debug/liblpc55s69.a(nxp-gpio.o)
 .debug_line    0x0000000000001227      0x1c0 /home/hedley/ada/NXP/LPC/LPC55S69/uart/Ada_Drivers_Library/arch/ARM/NXP/lib/lpc55s69_evk_s/ravenscar-sfp/Debug/liblpc55s69.a(nxp-pint.o)
 .debug_line    0x00000000000013e7       0x1d /home/hedley/ada/Ada_Drivers_Library/hal/lib/lpc55s69_evk_s/ravenscar-sfp/Debug/libHAL.a(hal-gpio.o)
 .debug_line    0x0000000000001404      0x4e9 /home/hedley/ada/NXP/LPC/LPC55S69/uart/Ada_Drivers_Library/embedded-runtimes/ravenscar-lpc55s69_evk_s/sfp/adalib/libgnarl.a(a-reatim.o)
 .debug_line    0x00000000000018ed      0x240 /home/hedley/ada/NXP/LPC/LPC55S69/uart/Ada_Drivers_Library/embedded-runtimes/ravenscar-lpc55s69_evk_s/sfp/adalib/libgnarl.a(a-retide.o)
 .debug_line    0x0000000000001b2d      0x33c /home/hedley/ada/NXP/LPC/LPC55S69/uart/Ada_Drivers_Library/embedded-runtimes/ravenscar-lpc55s69_evk_s/sfp/adalib/libgnarl.a(s-bbbosu.o)
 .debug_line    0x0000000000001e69      0x3ac /home/hedley/ada/NXP/LPC/LPC55S69/uart/Ada_Drivers_Library/embedded-runtimes/ravenscar-lpc55s69_evk_s/sfp/adalib/libgnarl.a(s-bbcppr.o)
 .debug_line    0x0000000000002215      0x2af /home/hedley/ada/NXP/LPC/LPC55S69/uart/Ada_Drivers_Library/embedded-runtimes/ravenscar-lpc55s69_evk_s/sfp/adalib/libgnarl.a(s-bbinte.o)
 .debug_line    0x00000000000024c4      0x32c /home/hedley/ada/NXP/LPC/LPC55S69/uart/Ada_Drivers_Library/embedded-runtimes/ravenscar-lpc55s69_evk_s/sfp/adalib/libgnarl.a(s-bbthqu.o)
 .debug_line    0x00000000000027f0      0x4ed /home/hedley/ada/NXP/LPC/LPC55S69/uart/Ada_Drivers_Library/embedded-runtimes/ravenscar-lpc55s69_evk_s/sfp/adalib/libgnarl.a(s-bbtime.o)
 .debug_line    0x0000000000002cdd       0xd7 /home/hedley/ada/NXP/LPC/LPC55S69/uart/Ada_Drivers_Library/embedded-runtimes/ravenscar-lpc55s69_evk_s/sfp/adalib/libgnarl.a(s-bcpcst.o)
 .debug_line    0x0000000000002db4      0x3b4 /home/hedley/ada/NXP/LPC/LPC55S69/uart/Ada_Drivers_Library/embedded-runtimes/ravenscar-lpc55s69_evk_s/sfp/adalib/libgnarl.a(s-taskin.o)
 .debug_line    0x0000000000003168      0x1be /home/hedley/ada/NXP/LPC/LPC55S69/uart/Ada_Drivers_Library/embedded-runtimes/ravenscar-lpc55s69_evk_s/sfp/adalib/libgnarl.a(s-bbprot.o)
 .debug_line    0x0000000000003326      0x550 /home/hedley/ada/NXP/LPC/LPC55S69/uart/Ada_Drivers_Library/embedded-runtimes/ravenscar-lpc55s69_evk_s/sfp/adalib/libgnarl.a(s-bbthre.o)
 .debug_line    0x0000000000003876      0x2d1 /home/hedley/ada/NXP/LPC/LPC55S69/uart/Ada_Drivers_Library/embedded-runtimes/ravenscar-lpc55s69_evk_s/sfp/adalib/libgnarl.a(s-bbtiev.o)
 .debug_line    0x0000000000003b47      0x573 /home/hedley/ada/NXP/LPC/LPC55S69/uart/Ada_Drivers_Library/embedded-runtimes/ravenscar-lpc55s69_evk_s/sfp/adalib/libgnarl.a(s-taprop.o)
 .debug_line    0x00000000000040ba      0x1b7 /home/hedley/ada/NXP/LPC/LPC55S69/uart/Ada_Drivers_Library/embedded-runtimes/ravenscar-lpc55s69_evk_s/sfp/adalib/libgnarl.a(s-tasdeb.o)
 .debug_line    0x0000000000004271       0xf7 /home/hedley/ada/NXP/LPC/LPC55S69/uart/Ada_Drivers_Library/embedded-runtimes/ravenscar-lpc55s69_evk_s/sfp/adalib/libgnat.a(a-elchha.o)
 .debug_line    0x0000000000004368      0x17b /home/hedley/ada/NXP/LPC/LPC55S69/uart/Ada_Drivers_Library/embedded-runtimes/ravenscar-lpc55s69_evk_s/sfp/adalib/libgnat.a(g-io.o)
 .debug_line    0x00000000000044e3       0xea /home/hedley/ada/NXP/LPC/LPC55S69/uart/Ada_Drivers_Library/embedded-runtimes/ravenscar-lpc55s69_evk_s/sfp/adalib/libgnat.a(s-assert.o)
 .debug_line    0x00000000000045cd       0xc0 /home/hedley/ada/NXP/LPC/LPC55S69/uart/Ada_Drivers_Library/embedded-runtimes/ravenscar-lpc55s69_evk_s/sfp/adalib/libgnat.a(s-macres.o)
 .debug_line    0x000000000000468d       0xcf /home/hedley/ada/NXP/LPC/LPC55S69/uart/Ada_Drivers_Library/embedded-runtimes/ravenscar-lpc55s69_evk_s/sfp/adalib/libgnat.a(s-memcop.o)
 .debug_line    0x000000000000475c       0xde /home/hedley/ada/NXP/LPC/LPC55S69/uart/Ada_Drivers_Library/embedded-runtimes/ravenscar-lpc55s69_evk_s/sfp/adalib/libgnat.a(s-memset.o)
 .debug_line    0x000000000000483a       0xbd /home/hedley/ada/NXP/LPC/LPC55S69/uart/Ada_Drivers_Library/embedded-runtimes/ravenscar-lpc55s69_evk_s/sfp/adalib/libgnat.a(s-parame.o)
 .debug_line    0x00000000000048f7      0x170 /home/hedley/ada/NXP/LPC/LPC55S69/uart/Ada_Drivers_Library/embedded-runtimes/ravenscar-lpc55s69_evk_s/sfp/adalib/libgnat.a(s-secsta.o)
 .debug_line    0x0000000000004a67      0x161 /home/hedley/ada/NXP/LPC/LPC55S69/uart/Ada_Drivers_Library/embedded-runtimes/ravenscar-lpc55s69_evk_s/sfp/adalib/libgnat.a(s-textio.o)
 .debug_line    0x0000000000004bc8       0xbb /home/hedley/ada/NXP/LPC/LPC55S69/uart/Ada_Drivers_Library/embedded-runtimes/ravenscar-lpc55s69_evk_s/sfp/adalib/libgnat.a(a-except.o)
 .debug_line    0x0000000000004c83       0xa1 /home/hedley/ada/NXP/LPC/LPC55S69/uart/Ada_Drivers_Library/embedded-runtimes/ravenscar-lpc55s69_evk_s/sfp/adalib/libgnat.a(setup_pll.o)
 .debug_line    0x0000000000004d24       0x85 /opt/GNAT/2019-arm-elf/bin/../lib/gcc/arm-eabi/7.4.1/thumb/v7e-m/fpv4-sp/hard/libgcc.a(_aeabi_ldivmod.o)
 .debug_line    0x0000000000004da9      0x267 /opt/GNAT/2019-arm-elf/bin/../lib/gcc/arm-eabi/7.4.1/thumb/v7e-m/fpv4-sp/hard/libgcc.a(_udivmoddi4.o)
 .debug_line    0x0000000000005010       0x67 /opt/GNAT/2019-arm-elf/bin/../lib/gcc/arm-eabi/7.4.1/thumb/v7e-m/fpv4-sp/hard/libgcc.a(_dvmd_tls.o)

.debug_frame    0x0000000000000000     0x1a84
 *(.debug_frame)
 .debug_frame   0x0000000000000000       0x38 test_s.o
 .debug_frame   0x0000000000000038       0x9c b__test_s.o
 .debug_frame   0x00000000000000d4       0x58 /home/hedley/ada/NXP/LPC/LPC55S69/uart/Ada_Drivers_Library/boards/lib/lpc55s69_evk_s/ravenscar-sfp/Debug/liblpc55s69_evk_s.a(nxp-board.o)
 .debug_frame   0x000000000000012c      0x1c0 /home/hedley/ada/NXP/LPC/LPC55S69/uart/Ada_Drivers_Library/arch/ARM/NXP/lib/lpc55s69_evk_s/ravenscar-sfp/Debug/liblpc55s69.a(nxp-device.o)
 .debug_frame   0x00000000000002ec      0x44c /home/hedley/ada/NXP/LPC/LPC55S69/uart/Ada_Drivers_Library/arch/ARM/NXP/lib/lpc55s69_evk_s/ravenscar-sfp/Debug/liblpc55s69.a(nxp-gpio.o)
 .debug_frame   0x0000000000000738       0xec /home/hedley/ada/NXP/LPC/LPC55S69/uart/Ada_Drivers_Library/arch/ARM/NXP/lib/lpc55s69_evk_s/ravenscar-sfp/Debug/liblpc55s69.a(nxp-pint.o)
 .debug_frame   0x0000000000000824      0x2bc /home/hedley/ada/NXP/LPC/LPC55S69/uart/Ada_Drivers_Library/embedded-runtimes/ravenscar-lpc55s69_evk_s/sfp/adalib/libgnarl.a(a-reatim.o)
 .debug_frame   0x0000000000000ae0       0x38 /home/hedley/ada/NXP/LPC/LPC55S69/uart/Ada_Drivers_Library/embedded-runtimes/ravenscar-lpc55s69_evk_s/sfp/adalib/libgnarl.a(a-retide.o)
 .debug_frame   0x0000000000000b18      0x188 /home/hedley/ada/NXP/LPC/LPC55S69/uart/Ada_Drivers_Library/embedded-runtimes/ravenscar-lpc55s69_evk_s/sfp/adalib/libgnarl.a(s-bbbosu.o)
 .debug_frame   0x0000000000000ca0      0x170 /home/hedley/ada/NXP/LPC/LPC55S69/uart/Ada_Drivers_Library/embedded-runtimes/ravenscar-lpc55s69_evk_s/sfp/adalib/libgnarl.a(s-bbcppr.o)
 .debug_frame   0x0000000000000e10       0xa4 /home/hedley/ada/NXP/LPC/LPC55S69/uart/Ada_Drivers_Library/embedded-runtimes/ravenscar-lpc55s69_evk_s/sfp/adalib/libgnarl.a(s-bbinte.o)
 .debug_frame   0x0000000000000eb4      0x178 /home/hedley/ada/NXP/LPC/LPC55S69/uart/Ada_Drivers_Library/embedded-runtimes/ravenscar-lpc55s69_evk_s/sfp/adalib/libgnarl.a(s-bbthqu.o)
 .debug_frame   0x000000000000102c      0x158 /home/hedley/ada/NXP/LPC/LPC55S69/uart/Ada_Drivers_Library/embedded-runtimes/ravenscar-lpc55s69_evk_s/sfp/adalib/libgnarl.a(s-bbtime.o)
 .debug_frame   0x0000000000001184       0x40 /home/hedley/ada/NXP/LPC/LPC55S69/uart/Ada_Drivers_Library/embedded-runtimes/ravenscar-lpc55s69_evk_s/sfp/adalib/libgnarl.a(s-bcpcst.o)
 .debug_frame   0x00000000000011c4       0xcc /home/hedley/ada/NXP/LPC/LPC55S69/uart/Ada_Drivers_Library/embedded-runtimes/ravenscar-lpc55s69_evk_s/sfp/adalib/libgnarl.a(s-taskin.o)
 .debug_frame   0x0000000000001290       0x38 /home/hedley/ada/NXP/LPC/LPC55S69/uart/Ada_Drivers_Library/embedded-runtimes/ravenscar-lpc55s69_evk_s/sfp/adalib/libgnarl.a(s-bbprot.o)
 .debug_frame   0x00000000000012c8      0x158 /home/hedley/ada/NXP/LPC/LPC55S69/uart/Ada_Drivers_Library/embedded-runtimes/ravenscar-lpc55s69_evk_s/sfp/adalib/libgnarl.a(s-bbthre.o)
 .debug_frame   0x0000000000001420       0xd0 /home/hedley/ada/NXP/LPC/LPC55S69/uart/Ada_Drivers_Library/embedded-runtimes/ravenscar-lpc55s69_evk_s/sfp/adalib/libgnarl.a(s-bbtiev.o)
 .debug_frame   0x00000000000014f0      0x1ec /home/hedley/ada/NXP/LPC/LPC55S69/uart/Ada_Drivers_Library/embedded-runtimes/ravenscar-lpc55s69_evk_s/sfp/adalib/libgnarl.a(s-taprop.o)
 .debug_frame   0x00000000000016dc       0x38 /home/hedley/ada/NXP/LPC/LPC55S69/uart/Ada_Drivers_Library/embedded-runtimes/ravenscar-lpc55s69_evk_s/sfp/adalib/libgnarl.a(s-tasdeb.o)
 .debug_frame   0x0000000000001714       0x28 /home/hedley/ada/NXP/LPC/LPC55S69/uart/Ada_Drivers_Library/embedded-runtimes/ravenscar-lpc55s69_evk_s/sfp/adalib/libgnat.a(a-elchha.o)
 .debug_frame   0x000000000000173c       0xa8 /home/hedley/ada/NXP/LPC/LPC55S69/uart/Ada_Drivers_Library/embedded-runtimes/ravenscar-lpc55s69_evk_s/sfp/adalib/libgnat.a(g-io.o)
 .debug_frame   0x00000000000017e4       0x2c /home/hedley/ada/NXP/LPC/LPC55S69/uart/Ada_Drivers_Library/embedded-runtimes/ravenscar-lpc55s69_evk_s/sfp/adalib/libgnat.a(s-assert.o)
 .debug_frame   0x0000000000001810       0x40 /home/hedley/ada/NXP/LPC/LPC55S69/uart/Ada_Drivers_Library/embedded-runtimes/ravenscar-lpc55s69_evk_s/sfp/adalib/libgnat.a(s-macres.o)
 .debug_frame   0x0000000000001850       0x34 /home/hedley/ada/NXP/LPC/LPC55S69/uart/Ada_Drivers_Library/embedded-runtimes/ravenscar-lpc55s69_evk_s/sfp/adalib/libgnat.a(s-memcop.o)
 .debug_frame   0x0000000000001884       0x30 /home/hedley/ada/NXP/LPC/LPC55S69/uart/Ada_Drivers_Library/embedded-runtimes/ravenscar-lpc55s69_evk_s/sfp/adalib/libgnat.a(s-memset.o)
 .debug_frame   0x00000000000018b4       0x20 /home/hedley/ada/NXP/LPC/LPC55S69/uart/Ada_Drivers_Library/embedded-runtimes/ravenscar-lpc55s69_evk_s/sfp/adalib/libgnat.a(s-parame.o)
 .debug_frame   0x00000000000018d4       0xa8 /home/hedley/ada/NXP/LPC/LPC55S69/uart/Ada_Drivers_Library/embedded-runtimes/ravenscar-lpc55s69_evk_s/sfp/adalib/libgnat.a(s-secsta.o)
 .debug_frame   0x000000000000197c       0x70 /home/hedley/ada/NXP/LPC/LPC55S69/uart/Ada_Drivers_Library/embedded-runtimes/ravenscar-lpc55s69_evk_s/sfp/adalib/libgnat.a(s-textio.o)
 .debug_frame   0x00000000000019ec       0x20 /home/hedley/ada/NXP/LPC/LPC55S69/uart/Ada_Drivers_Library/embedded-runtimes/ravenscar-lpc55s69_evk_s/sfp/adalib/libgnat.a(setup_pll.o)
 .debug_frame   0x0000000000001a0c       0x44 /opt/GNAT/2019-arm-elf/bin/../lib/gcc/arm-eabi/7.4.1/thumb/v7e-m/fpv4-sp/hard/libgcc.a(_aeabi_ldivmod.o)
 .debug_frame   0x0000000000001a50       0x34 /opt/GNAT/2019-arm-elf/bin/../lib/gcc/arm-eabi/7.4.1/thumb/v7e-m/fpv4-sp/hard/libgcc.a(_udivmoddi4.o)

.debug_str      0x0000000000000000    0x171b6
 *(.debug_str)
 .debug_str     0x0000000000000000      0xb32 test_s.o
                                        0xb74 (size before relaxing)
 .debug_str     0x0000000000000b32      0x71d b__test_s.o
                                        0x7b6 (size before relaxing)
 .debug_str     0x000000000000124f      0x402 /home/hedley/ada/NXP/LPC/LPC55S69/uart/Ada_Drivers_Library/boards/lib/lpc55s69_evk_s/ravenscar-sfp/Debug/liblpc55s69_evk_s.a(nxp-board.o)
                                        0xc48 (size before relaxing)
 .debug_str     0x0000000000001651     0xa799 /home/hedley/ada/NXP/LPC/LPC55S69/uart/Ada_Drivers_Library/arch/ARM/NXP/lib/lpc55s69_evk_s/ravenscar-sfp/Debug/liblpc55s69.a(nxp-device.o)
                                       0xaf82 (size before relaxing)
 .debug_str     0x000000000000bdea     0x3cc2 /home/hedley/ada/NXP/LPC/LPC55S69/uart/Ada_Drivers_Library/arch/ARM/NXP/lib/lpc55s69_evk_s/ravenscar-sfp/Debug/liblpc55s69.a(nxp-gpio.o)
                                       0x49df (size before relaxing)
 .debug_str     0x000000000000faac       0xf7 /home/hedley/ada/NXP/LPC/LPC55S69/uart/Ada_Drivers_Library/arch/ARM/NXP/lib/lpc55s69_evk_s/ravenscar-sfp/Debug/liblpc55s69.a(nxp-pint.o)
                                       0x16c4 (size before relaxing)
 .debug_str     0x000000000000fba3      0x2a1 /home/hedley/ada/Ada_Drivers_Library/hal/lib/lpc55s69_evk_s/ravenscar-sfp/Debug/libHAL.a(hal-gpio.o)
                                        0x2d5 (size before relaxing)
 .debug_str     0x000000000000fe44      0xabf /home/hedley/ada/NXP/LPC/LPC55S69/uart/Ada_Drivers_Library/embedded-runtimes/ravenscar-lpc55s69_evk_s/sfp/adalib/libgnarl.a(a-reatim.o)
                                        0xb5c (size before relaxing)
 .debug_str     0x0000000000010903      0xa4b /home/hedley/ada/NXP/LPC/LPC55S69/uart/Ada_Drivers_Library/embedded-runtimes/ravenscar-lpc55s69_evk_s/sfp/adalib/libgnarl.a(a-retide.o)
                                       0x10ab (size before relaxing)
 .debug_str     0x000000000001134e      0x789 /home/hedley/ada/NXP/LPC/LPC55S69/uart/Ada_Drivers_Library/embedded-runtimes/ravenscar-lpc55s69_evk_s/sfp/adalib/libgnarl.a(s-bbbosu.o)
                                        0xb46 (size before relaxing)
 .debug_str     0x0000000000011ad7      0x908 /home/hedley/ada/NXP/LPC/LPC55S69/uart/Ada_Drivers_Library/embedded-runtimes/ravenscar-lpc55s69_evk_s/sfp/adalib/libgnarl.a(s-bbcppr.o)
                                       0x1104 (size before relaxing)
 .debug_str     0x00000000000123df      0x3df /home/hedley/ada/NXP/LPC/LPC55S69/uart/Ada_Drivers_Library/embedded-runtimes/ravenscar-lpc55s69_evk_s/sfp/adalib/libgnarl.a(s-bbinte.o)
                                        0xc6b (size before relaxing)
 .debug_str     0x00000000000127be      0x3f8 /home/hedley/ada/NXP/LPC/LPC55S69/uart/Ada_Drivers_Library/embedded-runtimes/ravenscar-lpc55s69_evk_s/sfp/adalib/libgnarl.a(s-bbthqu.o)
                                        0xa67 (size before relaxing)
 .debug_str     0x0000000000012bb6      0x527 /home/hedley/ada/NXP/LPC/LPC55S69/uart/Ada_Drivers_Library/embedded-runtimes/ravenscar-lpc55s69_evk_s/sfp/adalib/libgnarl.a(s-bbtime.o)
                                        0xf48 (size before relaxing)
 .debug_str     0x00000000000130dd      0x188 /home/hedley/ada/NXP/LPC/LPC55S69/uart/Ada_Drivers_Library/embedded-runtimes/ravenscar-lpc55s69_evk_s/sfp/adalib/libgnarl.a(s-bcpcst.o)
                                        0x47e (size before relaxing)
 .debug_str     0x0000000000013265      0x5a5 /home/hedley/ada/NXP/LPC/LPC55S69/uart/Ada_Drivers_Library/embedded-runtimes/ravenscar-lpc55s69_evk_s/sfp/adalib/libgnarl.a(s-taskin.o)
                                       0x15a0 (size before relaxing)
 .debug_str     0x000000000001380a       0xd4 /home/hedley/ada/NXP/LPC/LPC55S69/uart/Ada_Drivers_Library/embedded-runtimes/ravenscar-lpc55s69_evk_s/sfp/adalib/libgnarl.a(s-bbprot.o)
                                        0x883 (size before relaxing)
 .debug_str     0x00000000000138de      0x1ad /home/hedley/ada/NXP/LPC/LPC55S69/uart/Ada_Drivers_Library/embedded-runtimes/ravenscar-lpc55s69_evk_s/sfp/adalib/libgnarl.a(s-bbthre.o)
                                        0xcea (size before relaxing)
 .debug_str     0x0000000000013a8b      0x1b0 /home/hedley/ada/NXP/LPC/LPC55S69/uart/Ada_Drivers_Library/embedded-runtimes/ravenscar-lpc55s69_evk_s/sfp/adalib/libgnarl.a(s-bbtiev.o)
                                        0xa17 (size before relaxing)
 .debug_str     0x0000000000013c3b      0x57e /home/hedley/ada/NXP/LPC/LPC55S69/uart/Ada_Drivers_Library/embedded-runtimes/ravenscar-lpc55s69_evk_s/sfp/adalib/libgnarl.a(s-taprop.o)
                                       0x1ae4 (size before relaxing)
 .debug_str     0x00000000000141b9      0x291 /home/hedley/ada/NXP/LPC/LPC55S69/uart/Ada_Drivers_Library/embedded-runtimes/ravenscar-lpc55s69_evk_s/sfp/adalib/libgnarl.a(s-tasdeb.o)
                                        0xe73 (size before relaxing)
 .debug_str     0x000000000001444a      0x483 /home/hedley/ada/NXP/LPC/LPC55S69/uart/Ada_Drivers_Library/embedded-runtimes/ravenscar-lpc55s69_evk_s/sfp/adalib/libgnat.a(a-elchha.o)
                                        0x51d (size before relaxing)
 .debug_str     0x00000000000148cd      0x190 /home/hedley/ada/NXP/LPC/LPC55S69/uart/Ada_Drivers_Library/embedded-runtimes/ravenscar-lpc55s69_evk_s/sfp/adalib/libgnat.a(g-io.o)
                                        0x464 (size before relaxing)
 .debug_str     0x0000000000014a5d      0x28e /home/hedley/ada/NXP/LPC/LPC55S69/uart/Ada_Drivers_Library/embedded-runtimes/ravenscar-lpc55s69_evk_s/sfp/adalib/libgnat.a(s-assert.o)
                                        0x45b (size before relaxing)
 .debug_str     0x0000000000014ceb       0xc0 /home/hedley/ada/NXP/LPC/LPC55S69/uart/Ada_Drivers_Library/embedded-runtimes/ravenscar-lpc55s69_evk_s/sfp/adalib/libgnat.a(s-macres.o)
                                        0x339 (size before relaxing)
 .debug_str     0x0000000000014dab      0x10a /home/hedley/ada/NXP/LPC/LPC55S69/uart/Ada_Drivers_Library/embedded-runtimes/ravenscar-lpc55s69_evk_s/sfp/adalib/libgnat.a(s-memcop.o)
                                        0x33b (size before relaxing)
 .debug_str     0x0000000000014eb5       0xbe /home/hedley/ada/NXP/LPC/LPC55S69/uart/Ada_Drivers_Library/embedded-runtimes/ravenscar-lpc55s69_evk_s/sfp/adalib/libgnat.a(s-memset.o)
                                        0x385 (size before relaxing)
 .debug_str     0x0000000000014f73      0x1f9 /home/hedley/ada/NXP/LPC/LPC55S69/uart/Ada_Drivers_Library/embedded-runtimes/ravenscar-lpc55s69_evk_s/sfp/adalib/libgnat.a(s-parame.o)
                                        0x4a8 (size before relaxing)
 .debug_str     0x000000000001516c      0x78b /home/hedley/ada/NXP/LPC/LPC55S69/uart/Ada_Drivers_Library/embedded-runtimes/ravenscar-lpc55s69_evk_s/sfp/adalib/libgnat.a(s-secsta.o)
                                        0xdc7 (size before relaxing)
 .debug_str     0x00000000000158f7       0xbd /home/hedley/ada/NXP/LPC/LPC55S69/uart/Ada_Drivers_Library/embedded-runtimes/ravenscar-lpc55s69_evk_s/sfp/adalib/libgnat.a(s-textio.o)
                                        0x35f (size before relaxing)
 .debug_str     0x00000000000159b4      0x326 /home/hedley/ada/NXP/LPC/LPC55S69/uart/Ada_Drivers_Library/embedded-runtimes/ravenscar-lpc55s69_evk_s/sfp/adalib/libgnat.a(a-except.o)
                                        0x3e5 (size before relaxing)
 .debug_str     0x0000000000015cda       0xb3 /home/hedley/ada/NXP/LPC/LPC55S69/uart/Ada_Drivers_Library/embedded-runtimes/ravenscar-lpc55s69_evk_s/sfp/adalib/libgnat.a(setup_pll.o)
                                        0x2d7 (size before relaxing)
 .debug_str     0x0000000000015d8d       0x94 /opt/GNAT/2019-arm-elf/bin/../lib/gcc/arm-eabi/7.4.1/thumb/v7e-m/fpv4-sp/hard/libgcc.a(_aeabi_ldivmod.o)
 .debug_str     0x0000000000015e21     0x135e /opt/GNAT/2019-arm-elf/bin/../lib/gcc/arm-eabi/7.4.1/thumb/v7e-m/fpv4-sp/hard/libgcc.a(_udivmoddi4.o)
                                       0x13f3 (size before relaxing)
 .debug_str     0x000000000001717f       0x37 /opt/GNAT/2019-arm-elf/bin/../lib/gcc/arm-eabi/7.4.1/thumb/v7e-m/fpv4-sp/hard/libgcc.a(_dvmd_tls.o)
                                         0x98 (size before relaxing)

.debug_loc      0x0000000000000000     0x4c7f
 *(.debug_loc)
 .debug_loc     0x0000000000000000      0xd3b /home/hedley/ada/NXP/LPC/LPC55S69/uart/Ada_Drivers_Library/embedded-runtimes/ravenscar-lpc55s69_evk_s/sfp/adalib/libgnarl.a(a-reatim.o)
 .debug_loc     0x0000000000000d3b       0x70 /home/hedley/ada/NXP/LPC/LPC55S69/uart/Ada_Drivers_Library/embedded-runtimes/ravenscar-lpc55s69_evk_s/sfp/adalib/libgnarl.a(a-retide.o)
 .debug_loc     0x0000000000000dab      0x386 /home/hedley/ada/NXP/LPC/LPC55S69/uart/Ada_Drivers_Library/embedded-runtimes/ravenscar-lpc55s69_evk_s/sfp/adalib/libgnarl.a(s-bbbosu.o)
 .debug_loc     0x0000000000001131      0x568 /home/hedley/ada/NXP/LPC/LPC55S69/uart/Ada_Drivers_Library/embedded-runtimes/ravenscar-lpc55s69_evk_s/sfp/adalib/libgnarl.a(s-bbcppr.o)
 .debug_loc     0x0000000000001699      0x1a1 /home/hedley/ada/NXP/LPC/LPC55S69/uart/Ada_Drivers_Library/embedded-runtimes/ravenscar-lpc55s69_evk_s/sfp/adalib/libgnarl.a(s-bbinte.o)
 .debug_loc     0x000000000000183a      0x30f /home/hedley/ada/NXP/LPC/LPC55S69/uart/Ada_Drivers_Library/embedded-runtimes/ravenscar-lpc55s69_evk_s/sfp/adalib/libgnarl.a(s-bbthqu.o)
 .debug_loc     0x0000000000001b49      0x58e /home/hedley/ada/NXP/LPC/LPC55S69/uart/Ada_Drivers_Library/embedded-runtimes/ravenscar-lpc55s69_evk_s/sfp/adalib/libgnarl.a(s-bbtime.o)
 .debug_loc     0x00000000000020d7      0x286 /home/hedley/ada/NXP/LPC/LPC55S69/uart/Ada_Drivers_Library/embedded-runtimes/ravenscar-lpc55s69_evk_s/sfp/adalib/libgnarl.a(s-taskin.o)
 .debug_loc     0x000000000000235d       0x63 /home/hedley/ada/NXP/LPC/LPC55S69/uart/Ada_Drivers_Library/embedded-runtimes/ravenscar-lpc55s69_evk_s/sfp/adalib/libgnarl.a(s-bbprot.o)
 .debug_loc     0x00000000000023c0      0x8b8 /home/hedley/ada/NXP/LPC/LPC55S69/uart/Ada_Drivers_Library/embedded-runtimes/ravenscar-lpc55s69_evk_s/sfp/adalib/libgnarl.a(s-bbthre.o)
 .debug_loc     0x0000000000002c78      0x437 /home/hedley/ada/NXP/LPC/LPC55S69/uart/Ada_Drivers_Library/embedded-runtimes/ravenscar-lpc55s69_evk_s/sfp/adalib/libgnarl.a(s-bbtiev.o)
 .debug_loc     0x00000000000030af      0x63a /home/hedley/ada/NXP/LPC/LPC55S69/uart/Ada_Drivers_Library/embedded-runtimes/ravenscar-lpc55s69_evk_s/sfp/adalib/libgnarl.a(s-taprop.o)
 .debug_loc     0x00000000000036e9      0x19b /home/hedley/ada/NXP/LPC/LPC55S69/uart/Ada_Drivers_Library/embedded-runtimes/ravenscar-lpc55s69_evk_s/sfp/adalib/libgnat.a(a-elchha.o)
 .debug_loc     0x0000000000003884      0x1a4 /home/hedley/ada/NXP/LPC/LPC55S69/uart/Ada_Drivers_Library/embedded-runtimes/ravenscar-lpc55s69_evk_s/sfp/adalib/libgnat.a(g-io.o)
 .debug_loc     0x0000000000003a28       0x38 /home/hedley/ada/NXP/LPC/LPC55S69/uart/Ada_Drivers_Library/embedded-runtimes/ravenscar-lpc55s69_evk_s/sfp/adalib/libgnat.a(s-assert.o)
 .debug_loc     0x0000000000003a60      0x14f /home/hedley/ada/NXP/LPC/LPC55S69/uart/Ada_Drivers_Library/embedded-runtimes/ravenscar-lpc55s69_evk_s/sfp/adalib/libgnat.a(s-memcop.o)
 .debug_loc     0x0000000000003baf      0x131 /home/hedley/ada/NXP/LPC/LPC55S69/uart/Ada_Drivers_Library/embedded-runtimes/ravenscar-lpc55s69_evk_s/sfp/adalib/libgnat.a(s-memset.o)
 .debug_loc     0x0000000000003ce0       0x21 /home/hedley/ada/NXP/LPC/LPC55S69/uart/Ada_Drivers_Library/embedded-runtimes/ravenscar-lpc55s69_evk_s/sfp/adalib/libgnat.a(s-parame.o)
 .debug_loc     0x0000000000003d01      0x1d4 /home/hedley/ada/NXP/LPC/LPC55S69/uart/Ada_Drivers_Library/embedded-runtimes/ravenscar-lpc55s69_evk_s/sfp/adalib/libgnat.a(s-secsta.o)
 .debug_loc     0x0000000000003ed5      0xdaa /opt/GNAT/2019-arm-elf/bin/../lib/gcc/arm-eabi/7.4.1/thumb/v7e-m/fpv4-sp/hard/libgcc.a(_udivmoddi4.o)

.debug_macinfo
 *(.debug_macinfo)

.debug_pubtypes
 *(.debug_pubtypes)

.debug_ranges   0x0000000000000000     0x1378
 *(.debug_ranges)
 .debug_ranges  0x0000000000000000       0x10 test_s.o
 .debug_ranges  0x0000000000000010       0x20 b__test_s.o
 .debug_ranges  0x0000000000000030       0x18 /home/hedley/ada/NXP/LPC/LPC55S69/uart/Ada_Drivers_Library/boards/lib/lpc55s69_evk_s/ravenscar-sfp/Debug/liblpc55s69_evk_s.a(nxp-board.o)
 .debug_ranges  0x0000000000000048       0x60 /home/hedley/ada/NXP/LPC/LPC55S69/uart/Ada_Drivers_Library/arch/ARM/NXP/lib/lpc55s69_evk_s/ravenscar-sfp/Debug/liblpc55s69.a(nxp-device.o)
 .debug_ranges  0x00000000000000a8       0xa0 /home/hedley/ada/NXP/LPC/LPC55S69/uart/Ada_Drivers_Library/arch/ARM/NXP/lib/lpc55s69_evk_s/ravenscar-sfp/Debug/liblpc55s69.a(nxp-gpio.o)
 .debug_ranges  0x0000000000000148       0x30 /home/hedley/ada/NXP/LPC/LPC55S69/uart/Ada_Drivers_Library/arch/ARM/NXP/lib/lpc55s69_evk_s/ravenscar-sfp/Debug/liblpc55s69.a(nxp-pint.o)
 .debug_ranges  0x0000000000000178      0x190 /home/hedley/ada/NXP/LPC/LPC55S69/uart/Ada_Drivers_Library/embedded-runtimes/ravenscar-lpc55s69_evk_s/sfp/adalib/libgnarl.a(a-reatim.o)
 .debug_ranges  0x0000000000000308       0x60 /home/hedley/ada/NXP/LPC/LPC55S69/uart/Ada_Drivers_Library/embedded-runtimes/ravenscar-lpc55s69_evk_s/sfp/adalib/libgnarl.a(a-retide.o)
 .debug_ranges  0x0000000000000368      0x180 /home/hedley/ada/NXP/LPC/LPC55S69/uart/Ada_Drivers_Library/embedded-runtimes/ravenscar-lpc55s69_evk_s/sfp/adalib/libgnarl.a(s-bbbosu.o)
 .debug_ranges  0x00000000000004e8      0x120 /home/hedley/ada/NXP/LPC/LPC55S69/uart/Ada_Drivers_Library/embedded-runtimes/ravenscar-lpc55s69_evk_s/sfp/adalib/libgnarl.a(s-bbcppr.o)
 .debug_ranges  0x0000000000000608       0xd0 /home/hedley/ada/NXP/LPC/LPC55S69/uart/Ada_Drivers_Library/embedded-runtimes/ravenscar-lpc55s69_evk_s/sfp/adalib/libgnarl.a(s-bbinte.o)
 .debug_ranges  0x00000000000006d8      0x180 /home/hedley/ada/NXP/LPC/LPC55S69/uart/Ada_Drivers_Library/embedded-runtimes/ravenscar-lpc55s69_evk_s/sfp/adalib/libgnarl.a(s-bbthqu.o)
 .debug_ranges  0x0000000000000858      0x208 /home/hedley/ada/NXP/LPC/LPC55S69/uart/Ada_Drivers_Library/embedded-runtimes/ravenscar-lpc55s69_evk_s/sfp/adalib/libgnarl.a(s-bbtime.o)
 .debug_ranges  0x0000000000000a60       0x20 /home/hedley/ada/NXP/LPC/LPC55S69/uart/Ada_Drivers_Library/embedded-runtimes/ravenscar-lpc55s69_evk_s/sfp/adalib/libgnarl.a(s-bcpcst.o)
 .debug_ranges  0x0000000000000a80      0x128 /home/hedley/ada/NXP/LPC/LPC55S69/uart/Ada_Drivers_Library/embedded-runtimes/ravenscar-lpc55s69_evk_s/sfp/adalib/libgnarl.a(s-taskin.o)
 .debug_ranges  0x0000000000000ba8       0x78 /home/hedley/ada/NXP/LPC/LPC55S69/uart/Ada_Drivers_Library/embedded-runtimes/ravenscar-lpc55s69_evk_s/sfp/adalib/libgnarl.a(s-bbprot.o)
 .debug_ranges  0x0000000000000c20      0x228 /home/hedley/ada/NXP/LPC/LPC55S69/uart/Ada_Drivers_Library/embedded-runtimes/ravenscar-lpc55s69_evk_s/sfp/adalib/libgnarl.a(s-bbthre.o)
 .debug_ranges  0x0000000000000e48       0xf0 /home/hedley/ada/NXP/LPC/LPC55S69/uart/Ada_Drivers_Library/embedded-runtimes/ravenscar-lpc55s69_evk_s/sfp/adalib/libgnarl.a(s-bbtiev.o)
 .debug_ranges  0x0000000000000f38      0x208 /home/hedley/ada/NXP/LPC/LPC55S69/uart/Ada_Drivers_Library/embedded-runtimes/ravenscar-lpc55s69_evk_s/sfp/adalib/libgnarl.a(s-taprop.o)
 .debug_ranges  0x0000000000001140       0x10 /home/hedley/ada/NXP/LPC/LPC55S69/uart/Ada_Drivers_Library/embedded-runtimes/ravenscar-lpc55s69_evk_s/sfp/adalib/libgnarl.a(s-tasdeb.o)
 .debug_ranges  0x0000000000001150       0x10 /home/hedley/ada/NXP/LPC/LPC55S69/uart/Ada_Drivers_Library/embedded-runtimes/ravenscar-lpc55s69_evk_s/sfp/adalib/libgnat.a(a-elchha.o)
 .debug_ranges  0x0000000000001160       0x48 /home/hedley/ada/NXP/LPC/LPC55S69/uart/Ada_Drivers_Library/embedded-runtimes/ravenscar-lpc55s69_evk_s/sfp/adalib/libgnat.a(g-io.o)
 .debug_ranges  0x00000000000011a8       0x10 /home/hedley/ada/NXP/LPC/LPC55S69/uart/Ada_Drivers_Library/embedded-runtimes/ravenscar-lpc55s69_evk_s/sfp/adalib/libgnat.a(s-assert.o)
 .debug_ranges  0x00000000000011b8       0x18 /home/hedley/ada/NXP/LPC/LPC55S69/uart/Ada_Drivers_Library/embedded-runtimes/ravenscar-lpc55s69_evk_s/sfp/adalib/libgnat.a(s-macres.o)
 .debug_ranges  0x00000000000011d0       0x10 /home/hedley/ada/NXP/LPC/LPC55S69/uart/Ada_Drivers_Library/embedded-runtimes/ravenscar-lpc55s69_evk_s/sfp/adalib/libgnat.a(s-memcop.o)
 .debug_ranges  0x00000000000011e0       0x10 /home/hedley/ada/NXP/LPC/LPC55S69/uart/Ada_Drivers_Library/embedded-runtimes/ravenscar-lpc55s69_evk_s/sfp/adalib/libgnat.a(s-memset.o)
 .debug_ranges  0x00000000000011f0       0x10 /home/hedley/ada/NXP/LPC/LPC55S69/uart/Ada_Drivers_Library/embedded-runtimes/ravenscar-lpc55s69_evk_s/sfp/adalib/libgnat.a(s-parame.o)
 .debug_ranges  0x0000000000001200       0x60 /home/hedley/ada/NXP/LPC/LPC55S69/uart/Ada_Drivers_Library/embedded-runtimes/ravenscar-lpc55s69_evk_s/sfp/adalib/libgnat.a(s-secsta.o)
 .debug_ranges  0x0000000000001260       0x30 /home/hedley/ada/NXP/LPC/LPC55S69/uart/Ada_Drivers_Library/embedded-runtimes/ravenscar-lpc55s69_evk_s/sfp/adalib/libgnat.a(s-textio.o)
 .debug_ranges  0x0000000000001290       0x10 /home/hedley/ada/NXP/LPC/LPC55S69/uart/Ada_Drivers_Library/embedded-runtimes/ravenscar-lpc55s69_evk_s/sfp/adalib/libgnat.a(setup_pll.o)
 .debug_ranges  0x00000000000012a0       0xd8 /opt/GNAT/2019-arm-elf/bin/../lib/gcc/arm-eabi/7.4.1/thumb/v7e-m/fpv4-sp/hard/libgcc.a(_udivmoddi4.o)

.comment        0x0000000000000000       0x3d
 .comment       0x0000000000000000       0x3d test_s.o
                                         0x3e (size before relaxing)
 .comment       0x000000000000003d       0x3e b__test_s.o
 .comment       0x000000000000003d       0x3e /home/hedley/ada/NXP/LPC/LPC55S69/uart/Ada_Drivers_Library/boards/lib/lpc55s69_evk_s/ravenscar-sfp/Debug/liblpc55s69_evk_s.a(nxp-board.o)
 .comment       0x000000000000003d       0x3e /home/hedley/ada/NXP/LPC/LPC55S69/uart/Ada_Drivers_Library/arch/ARM/NXP/lib/lpc55s69_evk_s/ravenscar-sfp/Debug/liblpc55s69.a(nxp-device.o)
 .comment       0x000000000000003d       0x3e /home/hedley/ada/NXP/LPC/LPC55S69/uart/Ada_Drivers_Library/arch/ARM/NXP/lib/lpc55s69_evk_s/ravenscar-sfp/Debug/liblpc55s69.a(nxp-gpio.o)
 .comment       0x000000000000003d       0x3e /home/hedley/ada/NXP/LPC/LPC55S69/uart/Ada_Drivers_Library/arch/ARM/NXP/lib/lpc55s69_evk_s/ravenscar-sfp/Debug/liblpc55s69.a(nxp-pint.o)
 .comment       0x000000000000003d       0x3e /home/hedley/ada/Ada_Drivers_Library/hal/lib/lpc55s69_evk_s/ravenscar-sfp/Debug/libHAL.a(hal-gpio.o)
 .comment       0x000000000000003d       0x3e /home/hedley/ada/NXP/LPC/LPC55S69/uart/Ada_Drivers_Library/embedded-runtimes/ravenscar-lpc55s69_evk_s/sfp/adalib/libgnarl.a(a-reatim.o)
 .comment       0x000000000000003d       0x3e /home/hedley/ada/NXP/LPC/LPC55S69/uart/Ada_Drivers_Library/embedded-runtimes/ravenscar-lpc55s69_evk_s/sfp/adalib/libgnarl.a(a-retide.o)
 .comment       0x000000000000003d       0x3e /home/hedley/ada/NXP/LPC/LPC55S69/uart/Ada_Drivers_Library/embedded-runtimes/ravenscar-lpc55s69_evk_s/sfp/adalib/libgnarl.a(s-bbbosu.o)
 .comment       0x000000000000003d       0x3e /home/hedley/ada/NXP/LPC/LPC55S69/uart/Ada_Drivers_Library/embedded-runtimes/ravenscar-lpc55s69_evk_s/sfp/adalib/libgnarl.a(s-bbcppr.o)
 .comment       0x000000000000003d       0x3e /home/hedley/ada/NXP/LPC/LPC55S69/uart/Ada_Drivers_Library/embedded-runtimes/ravenscar-lpc55s69_evk_s/sfp/adalib/libgnarl.a(s-bbinte.o)
 .comment       0x000000000000003d       0x3e /home/hedley/ada/NXP/LPC/LPC55S69/uart/Ada_Drivers_Library/embedded-runtimes/ravenscar-lpc55s69_evk_s/sfp/adalib/libgnarl.a(s-bbthqu.o)
 .comment       0x000000000000003d       0x3e /home/hedley/ada/NXP/LPC/LPC55S69/uart/Ada_Drivers_Library/embedded-runtimes/ravenscar-lpc55s69_evk_s/sfp/adalib/libgnarl.a(s-bbtime.o)
 .comment       0x000000000000003d       0x3e /home/hedley/ada/NXP/LPC/LPC55S69/uart/Ada_Drivers_Library/embedded-runtimes/ravenscar-lpc55s69_evk_s/sfp/adalib/libgnarl.a(s-bcpcst.o)
 .comment       0x000000000000003d       0x3e /home/hedley/ada/NXP/LPC/LPC55S69/uart/Ada_Drivers_Library/embedded-runtimes/ravenscar-lpc55s69_evk_s/sfp/adalib/libgnarl.a(s-taskin.o)
 .comment       0x000000000000003d       0x3e /home/hedley/ada/NXP/LPC/LPC55S69/uart/Ada_Drivers_Library/embedded-runtimes/ravenscar-lpc55s69_evk_s/sfp/adalib/libgnarl.a(s-bbprot.o)
 .comment       0x000000000000003d       0x3e /home/hedley/ada/NXP/LPC/LPC55S69/uart/Ada_Drivers_Library/embedded-runtimes/ravenscar-lpc55s69_evk_s/sfp/adalib/libgnarl.a(s-bbthre.o)
 .comment       0x000000000000003d       0x3e /home/hedley/ada/NXP/LPC/LPC55S69/uart/Ada_Drivers_Library/embedded-runtimes/ravenscar-lpc55s69_evk_s/sfp/adalib/libgnarl.a(s-bbtiev.o)
 .comment       0x000000000000003d       0x3e /home/hedley/ada/NXP/LPC/LPC55S69/uart/Ada_Drivers_Library/embedded-runtimes/ravenscar-lpc55s69_evk_s/sfp/adalib/libgnarl.a(s-taprop.o)
 .comment       0x000000000000003d       0x3e /home/hedley/ada/NXP/LPC/LPC55S69/uart/Ada_Drivers_Library/embedded-runtimes/ravenscar-lpc55s69_evk_s/sfp/adalib/libgnarl.a(s-tasdeb.o)
 .comment       0x000000000000003d       0x3e /home/hedley/ada/NXP/LPC/LPC55S69/uart/Ada_Drivers_Library/embedded-runtimes/ravenscar-lpc55s69_evk_s/sfp/adalib/libgnat.a(a-elchha.o)
 .comment       0x000000000000003d       0x3e /home/hedley/ada/NXP/LPC/LPC55S69/uart/Ada_Drivers_Library/embedded-runtimes/ravenscar-lpc55s69_evk_s/sfp/adalib/libgnat.a(g-io.o)
 .comment       0x000000000000003d       0x3e /home/hedley/ada/NXP/LPC/LPC55S69/uart/Ada_Drivers_Library/embedded-runtimes/ravenscar-lpc55s69_evk_s/sfp/adalib/libgnat.a(s-assert.o)
 .comment       0x000000000000003d       0x3e /home/hedley/ada/NXP/LPC/LPC55S69/uart/Ada_Drivers_Library/embedded-runtimes/ravenscar-lpc55s69_evk_s/sfp/adalib/libgnat.a(s-macres.o)
 .comment       0x000000000000003d       0x3e /home/hedley/ada/NXP/LPC/LPC55S69/uart/Ada_Drivers_Library/embedded-runtimes/ravenscar-lpc55s69_evk_s/sfp/adalib/libgnat.a(s-memcop.o)
 .comment       0x000000000000003d       0x3e /home/hedley/ada/NXP/LPC/LPC55S69/uart/Ada_Drivers_Library/embedded-runtimes/ravenscar-lpc55s69_evk_s/sfp/adalib/libgnat.a(s-memset.o)
 .comment       0x000000000000003d       0x3e /home/hedley/ada/NXP/LPC/LPC55S69/uart/Ada_Drivers_Library/embedded-runtimes/ravenscar-lpc55s69_evk_s/sfp/adalib/libgnat.a(s-parame.o)
 .comment       0x000000000000003d       0x3e /home/hedley/ada/NXP/LPC/LPC55S69/uart/Ada_Drivers_Library/embedded-runtimes/ravenscar-lpc55s69_evk_s/sfp/adalib/libgnat.a(s-secsta.o)
 .comment       0x000000000000003d       0x3e /home/hedley/ada/NXP/LPC/LPC55S69/uart/Ada_Drivers_Library/embedded-runtimes/ravenscar-lpc55s69_evk_s/sfp/adalib/libgnat.a(s-textio.o)
 .comment       0x000000000000003d       0x3e /home/hedley/ada/NXP/LPC/LPC55S69/uart/Ada_Drivers_Library/embedded-runtimes/ravenscar-lpc55s69_evk_s/sfp/adalib/libgnat.a(a-except.o)
 .comment       0x000000000000003d       0x3e /home/hedley/ada/NXP/LPC/LPC55S69/uart/Ada_Drivers_Library/embedded-runtimes/ravenscar-lpc55s69_evk_s/sfp/adalib/libgnat.a(setup_pll.o)
 .comment       0x000000000000003d       0x3e /opt/GNAT/2019-arm-elf/bin/../lib/gcc/arm-eabi/7.4.1/thumb/v7e-m/fpv4-sp/hard/libgcc.a(_udivmoddi4.o)

.ARM.attributes
                0x0000000000000000       0x3a
 .ARM.attributes
                0x0000000000000000       0x37 test_s.o
 .ARM.attributes
                0x0000000000000037       0x37 b__test_s.o
 .ARM.attributes
                0x000000000000006e       0x37 /home/hedley/ada/NXP/LPC/LPC55S69/uart/Ada_Drivers_Library/boards/lib/lpc55s69_evk_s/ravenscar-sfp/Debug/liblpc55s69_evk_s.a(nxp-board.o)
 .ARM.attributes
                0x00000000000000a5       0x37 /home/hedley/ada/NXP/LPC/LPC55S69/uart/Ada_Drivers_Library/arch/ARM/NXP/lib/lpc55s69_evk_s/ravenscar-sfp/Debug/liblpc55s69.a(nxp-device.o)
 .ARM.attributes
                0x00000000000000dc       0x37 /home/hedley/ada/NXP/LPC/LPC55S69/uart/Ada_Drivers_Library/arch/ARM/NXP/lib/lpc55s69_evk_s/ravenscar-sfp/Debug/liblpc55s69.a(nxp-gpio.o)
 .ARM.attributes
                0x0000000000000113       0x37 /home/hedley/ada/NXP/LPC/LPC55S69/uart/Ada_Drivers_Library/arch/ARM/NXP/lib/lpc55s69_evk_s/ravenscar-sfp/Debug/liblpc55s69.a(nxp-pint.o)
 .ARM.attributes
                0x000000000000014a       0x37 /home/hedley/ada/Ada_Drivers_Library/hal/lib/lpc55s69_evk_s/ravenscar-sfp/Debug/libHAL.a(hal-gpio.o)
 .ARM.attributes
                0x0000000000000181       0x37 /home/hedley/ada/NXP/LPC/LPC55S69/uart/Ada_Drivers_Library/embedded-runtimes/ravenscar-lpc55s69_evk_s/sfp/adalib/libgnarl.a(a-reatim.o)
 .ARM.attributes
                0x00000000000001b8       0x37 /home/hedley/ada/NXP/LPC/LPC55S69/uart/Ada_Drivers_Library/embedded-runtimes/ravenscar-lpc55s69_evk_s/sfp/adalib/libgnarl.a(a-retide.o)
 .ARM.attributes
                0x00000000000001ef       0x37 /home/hedley/ada/NXP/LPC/LPC55S69/uart/Ada_Drivers_Library/embedded-runtimes/ravenscar-lpc55s69_evk_s/sfp/adalib/libgnarl.a(s-bbbosu.o)
 .ARM.attributes
                0x0000000000000226       0x37 /home/hedley/ada/NXP/LPC/LPC55S69/uart/Ada_Drivers_Library/embedded-runtimes/ravenscar-lpc55s69_evk_s/sfp/adalib/libgnarl.a(s-bbcppr.o)
 .ARM.attributes
                0x000000000000025d       0x37 /home/hedley/ada/NXP/LPC/LPC55S69/uart/Ada_Drivers_Library/embedded-runtimes/ravenscar-lpc55s69_evk_s/sfp/adalib/libgnarl.a(s-bbinte.o)
 .ARM.attributes
                0x0000000000000294       0x37 /home/hedley/ada/NXP/LPC/LPC55S69/uart/Ada_Drivers_Library/embedded-runtimes/ravenscar-lpc55s69_evk_s/sfp/adalib/libgnarl.a(s-bbthqu.o)
 .ARM.attributes
                0x00000000000002cb       0x37 /home/hedley/ada/NXP/LPC/LPC55S69/uart/Ada_Drivers_Library/embedded-runtimes/ravenscar-lpc55s69_evk_s/sfp/adalib/libgnarl.a(s-bbtime.o)
 .ARM.attributes
                0x0000000000000302       0x37 /home/hedley/ada/NXP/LPC/LPC55S69/uart/Ada_Drivers_Library/embedded-runtimes/ravenscar-lpc55s69_evk_s/sfp/adalib/libgnarl.a(s-bcpcst.o)
 .ARM.attributes
                0x0000000000000339       0x37 /home/hedley/ada/NXP/LPC/LPC55S69/uart/Ada_Drivers_Library/embedded-runtimes/ravenscar-lpc55s69_evk_s/sfp/adalib/libgnarl.a(s-taskin.o)
 .ARM.attributes
                0x0000000000000370       0x37 /home/hedley/ada/NXP/LPC/LPC55S69/uart/Ada_Drivers_Library/embedded-runtimes/ravenscar-lpc55s69_evk_s/sfp/adalib/libgnarl.a(s-bbprot.o)
 .ARM.attributes
                0x00000000000003a7       0x37 /home/hedley/ada/NXP/LPC/LPC55S69/uart/Ada_Drivers_Library/embedded-runtimes/ravenscar-lpc55s69_evk_s/sfp/adalib/libgnarl.a(s-bbthre.o)
 .ARM.attributes
                0x00000000000003de       0x37 /home/hedley/ada/NXP/LPC/LPC55S69/uart/Ada_Drivers_Library/embedded-runtimes/ravenscar-lpc55s69_evk_s/sfp/adalib/libgnarl.a(s-bbtiev.o)
 .ARM.attributes
                0x0000000000000415       0x37 /home/hedley/ada/NXP/LPC/LPC55S69/uart/Ada_Drivers_Library/embedded-runtimes/ravenscar-lpc55s69_evk_s/sfp/adalib/libgnarl.a(s-taprop.o)
 .ARM.attributes
                0x000000000000044c       0x37 /home/hedley/ada/NXP/LPC/LPC55S69/uart/Ada_Drivers_Library/embedded-runtimes/ravenscar-lpc55s69_evk_s/sfp/adalib/libgnarl.a(s-tasdeb.o)
 .ARM.attributes
                0x0000000000000483       0x37 /home/hedley/ada/NXP/LPC/LPC55S69/uart/Ada_Drivers_Library/embedded-runtimes/ravenscar-lpc55s69_evk_s/sfp/adalib/libgnat.a(a-elchha.o)
 .ARM.attributes
                0x00000000000004ba       0x37 /home/hedley/ada/NXP/LPC/LPC55S69/uart/Ada_Drivers_Library/embedded-runtimes/ravenscar-lpc55s69_evk_s/sfp/adalib/libgnat.a(g-io.o)
 .ARM.attributes
                0x00000000000004f1       0x21 /home/hedley/ada/NXP/LPC/LPC55S69/uart/Ada_Drivers_Library/embedded-runtimes/ravenscar-lpc55s69_evk_s/sfp/adalib/libgnat.a(handler.o)
 .ARM.attributes
                0x0000000000000512       0x37 /home/hedley/ada/NXP/LPC/LPC55S69/uart/Ada_Drivers_Library/embedded-runtimes/ravenscar-lpc55s69_evk_s/sfp/adalib/libgnat.a(s-assert.o)
 .ARM.attributes
                0x0000000000000549       0x37 /home/hedley/ada/NXP/LPC/LPC55S69/uart/Ada_Drivers_Library/embedded-runtimes/ravenscar-lpc55s69_evk_s/sfp/adalib/libgnat.a(s-macres.o)
 .ARM.attributes
                0x0000000000000580       0x37 /home/hedley/ada/NXP/LPC/LPC55S69/uart/Ada_Drivers_Library/embedded-runtimes/ravenscar-lpc55s69_evk_s/sfp/adalib/libgnat.a(s-memcop.o)
 .ARM.attributes
                0x00000000000005b7       0x37 /home/hedley/ada/NXP/LPC/LPC55S69/uart/Ada_Drivers_Library/embedded-runtimes/ravenscar-lpc55s69_evk_s/sfp/adalib/libgnat.a(s-memset.o)
 .ARM.attributes
                0x00000000000005ee       0x37 /home/hedley/ada/NXP/LPC/LPC55S69/uart/Ada_Drivers_Library/embedded-runtimes/ravenscar-lpc55s69_evk_s/sfp/adalib/libgnat.a(s-parame.o)
 .ARM.attributes
                0x0000000000000625       0x37 /home/hedley/ada/NXP/LPC/LPC55S69/uart/Ada_Drivers_Library/embedded-runtimes/ravenscar-lpc55s69_evk_s/sfp/adalib/libgnat.a(s-secsta.o)
 .ARM.attributes
                0x000000000000065c       0x37 /home/hedley/ada/NXP/LPC/LPC55S69/uart/Ada_Drivers_Library/embedded-runtimes/ravenscar-lpc55s69_evk_s/sfp/adalib/libgnat.a(s-textio.o)
 .ARM.attributes
                0x0000000000000693       0x24 /home/hedley/ada/NXP/LPC/LPC55S69/uart/Ada_Drivers_Library/embedded-runtimes/ravenscar-lpc55s69_evk_s/sfp/adalib/libgnat.a(start-common.o)
 .ARM.attributes
                0x00000000000006b7       0x21 /home/hedley/ada/NXP/LPC/LPC55S69/uart/Ada_Drivers_Library/embedded-runtimes/ravenscar-lpc55s69_evk_s/sfp/adalib/libgnat.a(start-ram.o)
 .ARM.attributes
                0x00000000000006d8       0x37 /home/hedley/ada/NXP/LPC/LPC55S69/uart/Ada_Drivers_Library/embedded-runtimes/ravenscar-lpc55s69_evk_s/sfp/adalib/libgnat.a(a-except.o)
 .ARM.attributes
                0x000000000000070f       0x37 /home/hedley/ada/NXP/LPC/LPC55S69/uart/Ada_Drivers_Library/embedded-runtimes/ravenscar-lpc55s69_evk_s/sfp/adalib/libgnat.a(setup_pll.o)
 .ARM.attributes
                0x0000000000000746       0x22 /opt/GNAT/2019-arm-elf/bin/../lib/gcc/arm-eabi/7.4.1/thumb/v7e-m/fpv4-sp/hard/libgcc.a(_aeabi_ldivmod.o)
 .ARM.attributes
                0x0000000000000768       0x34 /opt/GNAT/2019-arm-elf/bin/../lib/gcc/arm-eabi/7.4.1/thumb/v7e-m/fpv4-sp/hard/libgcc.a(_udivmoddi4.o)
 .ARM.attributes
                0x000000000000079c       0x22 /opt/GNAT/2019-arm-elf/bin/../lib/gcc/arm-eabi/7.4.1/thumb/v7e-m/fpv4-sp/hard/libgcc.a(_dvmd_tls.o)

.gnu.attributes
 *(.gnu.attributes)

/DISCARD/
 *(.note.GNU-stack)
 *(.gnu_debuglink)
 *(.gnu.lto_*)
OUTPUT(test_s elf32-littlearm)
